SF:/Users/nick/Development/EttleX/EttleX-Project/Rust/crates/ettlex-cli/src/commands/ep.rs
FN:58,_RNvNtNtCslWgGk6K9LsO_10ettlex_cli8commands2ep14execute_update
FN:52,_RNvNtNtCslWgGk6K9LsO_10ettlex_cli8commands2ep7execute
FN:79,_RNCNvNtNtCslWgGk6K9LsO_10ettlex_cli8commands2ep14execute_update0B7_
FN:79,_RNCNvNtNtCseVhYX9QvYZV_10ettlex_cli8commands2ep14execute_update0B7_
FN:58,_RNvNtNtCseVhYX9QvYZV_10ettlex_cli8commands2ep14execute_update
FN:52,_RNvNtNtCseVhYX9QvYZV_10ettlex_cli8commands2ep7execute
FNDA:1,_RNvNtNtCslWgGk6K9LsO_10ettlex_cli8commands2ep14execute_update
FNDA:0,_RNvNtNtCslWgGk6K9LsO_10ettlex_cli8commands2ep7execute
FNDA:0,_RNCNvNtNtCslWgGk6K9LsO_10ettlex_cli8commands2ep14execute_update0B7_
FNDA:0,_RNCNvNtNtCseVhYX9QvYZV_10ettlex_cli8commands2ep14execute_update0B7_
FNDA:0,_RNvNtNtCseVhYX9QvYZV_10ettlex_cli8commands2ep14execute_update
FNDA:0,_RNvNtNtCseVhYX9QvYZV_10ettlex_cli8commands2ep7execute
FNF:3
FNH:1
DA:52,0
DA:53,0
DA:54,0
DA:56,0
DA:58,1
DA:59,1
DA:60,1
DA:61,1
DA:63,1
DA:64,1
DA:65,1
DA:66,1
DA:67,1
DA:68,1
DA:69,1
DA:71,1
DA:72,1
DA:73,1
DA:74,1
DA:75,1
DA:76,1
DA:77,1
DA:79,1
DA:81,1
DA:82,1
DA:83,1
BRF:0
BRH:0
LF:27
LH:22
end_of_record
SF:/Users/nick/Development/EttleX/EttleX-Project/Rust/crates/ettlex-cli/src/commands/render.rs
FN:55,_RNvNtNtCslWgGk6K9LsO_10ettlex_cli8commands6render20execute_render_ettle
FN:79,_RNvNtNtCslWgGk6K9LsO_10ettlex_cli8commands6render21execute_render_bundle
FN:47,_RNvNtNtCslWgGk6K9LsO_10ettlex_cli8commands6render7execute
FN:55,_RNvNtNtCseVhYX9QvYZV_10ettlex_cli8commands6render20execute_render_ettle
FN:79,_RNvNtNtCseVhYX9QvYZV_10ettlex_cli8commands6render21execute_render_bundle
FN:47,_RNvNtNtCseVhYX9QvYZV_10ettlex_cli8commands6render7execute
FNDA:0,_RNvNtNtCslWgGk6K9LsO_10ettlex_cli8commands6render20execute_render_ettle
FNDA:0,_RNvNtNtCslWgGk6K9LsO_10ettlex_cli8commands6render21execute_render_bundle
FNDA:0,_RNvNtNtCslWgGk6K9LsO_10ettlex_cli8commands6render7execute
FNDA:0,_RNvNtNtCseVhYX9QvYZV_10ettlex_cli8commands6render20execute_render_ettle
FNDA:0,_RNvNtNtCseVhYX9QvYZV_10ettlex_cli8commands6render21execute_render_bundle
FNDA:0,_RNvNtNtCseVhYX9QvYZV_10ettlex_cli8commands6render7execute
FNF:3
FNH:0
DA:47,0
DA:48,0
DA:49,0
DA:50,0
DA:52,0
DA:55,0
DA:57,0
DA:58,0
DA:59,0
DA:62,0
DA:65,0
DA:68,0
DA:69,0
DA:70,0
DA:71,0
DA:72,0
DA:73,0
DA:75,0
DA:76,0
DA:79,0
DA:81,0
DA:82,0
DA:83,0
DA:86,0
DA:89,0
DA:92,0
DA:93,0
DA:94,0
DA:95,0
DA:96,0
DA:97,0
DA:99,0
DA:100,0
BRF:0
BRH:0
LF:33
LH:0
end_of_record
SF:/Users/nick/Development/EttleX/EttleX-Project/Rust/crates/ettlex-cli/src/commands/seed.rs
FN:61,_RNCNCNvNtNtCslWgGk6K9LsO_10ettlex_cli8commands4seed14execute_imports0_00B9_
FN:57,_RNCNvNtNtCslWgGk6K9LsO_10ettlex_cli8commands4seed14execute_import0B7_
FN:59,_RNCNvNtNtCslWgGk6K9LsO_10ettlex_cli8commands4seed14execute_imports0_0B7_
FN:58,_RNCNvNtNtCslWgGk6K9LsO_10ettlex_cli8commands4seed14execute_imports_0B7_
FN:38,_RNvNtNtCslWgGk6K9LsO_10ettlex_cli8commands4seed14execute_import
FN:31,_RNvNtNtCslWgGk6K9LsO_10ettlex_cli8commands4seed7execute
FN:61,_RNCNCNvNtNtCseVhYX9QvYZV_10ettlex_cli8commands4seed14execute_imports0_00B9_
FN:57,_RNCNvNtNtCseVhYX9QvYZV_10ettlex_cli8commands4seed14execute_import0B7_
FN:59,_RNCNvNtNtCseVhYX9QvYZV_10ettlex_cli8commands4seed14execute_imports0_0B7_
FN:58,_RNCNvNtNtCseVhYX9QvYZV_10ettlex_cli8commands4seed14execute_imports_0B7_
FN:38,_RNvNtNtCseVhYX9QvYZV_10ettlex_cli8commands4seed14execute_import
FN:31,_RNvNtNtCseVhYX9QvYZV_10ettlex_cli8commands4seed7execute
FNDA:0,_RNCNCNvNtNtCslWgGk6K9LsO_10ettlex_cli8commands4seed14execute_imports0_00B9_
FNDA:0,_RNCNvNtNtCslWgGk6K9LsO_10ettlex_cli8commands4seed14execute_import0B7_
FNDA:0,_RNCNvNtNtCslWgGk6K9LsO_10ettlex_cli8commands4seed14execute_imports0_0B7_
FNDA:0,_RNCNvNtNtCslWgGk6K9LsO_10ettlex_cli8commands4seed14execute_imports_0B7_
FNDA:0,_RNvNtNtCslWgGk6K9LsO_10ettlex_cli8commands4seed14execute_import
FNDA:0,_RNvNtNtCslWgGk6K9LsO_10ettlex_cli8commands4seed7execute
FNDA:0,_RNCNCNvNtNtCseVhYX9QvYZV_10ettlex_cli8commands4seed14execute_imports0_00B9_
FNDA:0,_RNCNvNtNtCseVhYX9QvYZV_10ettlex_cli8commands4seed14execute_import0B7_
FNDA:0,_RNCNvNtNtCseVhYX9QvYZV_10ettlex_cli8commands4seed14execute_imports0_0B7_
FNDA:0,_RNCNvNtNtCseVhYX9QvYZV_10ettlex_cli8commands4seed14execute_imports_0B7_
FNDA:0,_RNvNtNtCseVhYX9QvYZV_10ettlex_cli8commands4seed14execute_import
FNDA:0,_RNvNtNtCseVhYX9QvYZV_10ettlex_cli8commands4seed7execute
FNF:6
FNH:0
DA:31,0
DA:32,0
DA:33,0
DA:35,0
DA:38,0
DA:40,0
DA:41,0
DA:42,0
DA:45,0
DA:46,0
DA:48,0
DA:51,0
DA:54,0
DA:56,0
DA:57,0
DA:58,0
DA:59,0
DA:60,0
DA:61,0
DA:62,0
DA:63,0
DA:64,0
DA:66,0
DA:68,0
DA:69,0
DA:70,0
DA:71,0
DA:75,0
DA:76,0
DA:77,0
DA:80,0
DA:81,0
BRF:0
BRH:0
LF:36
LH:0
end_of_record
SF:/Users/nick/Development/EttleX/EttleX-Project/Rust/crates/ettlex-cli/src/commands/snapshot.rs
FN:56,_RNvNtNtCslWgGk6K9LsO_10ettlex_cli8commands8snapshot14execute_commit
FN:50,_RNvNtNtCslWgGk6K9LsO_10ettlex_cli8commands8snapshot7execute
FN:56,_RNvNtNtCseVhYX9QvYZV_10ettlex_cli8commands8snapshot14execute_commit
FN:50,_RNvNtNtCseVhYX9QvYZV_10ettlex_cli8commands8snapshot7execute
FNDA:2,_RNvNtNtCslWgGk6K9LsO_10ettlex_cli8commands8snapshot14execute_commit
FNDA:2,_RNvNtNtCslWgGk6K9LsO_10ettlex_cli8commands8snapshot7execute
FNDA:0,_RNvNtNtCseVhYX9QvYZV_10ettlex_cli8commands8snapshot14execute_commit
FNDA:0,_RNvNtNtCseVhYX9QvYZV_10ettlex_cli8commands8snapshot7execute
FNF:2
FNH:2
DA:50,2
DA:51,2
DA:52,2
DA:54,2
DA:56,2
DA:57,2
DA:58,0
DA:59,2
DA:61,2
DA:62,2
DA:63,2
DA:64,2
DA:65,0
DA:66,2
DA:67,2
DA:68,2
DA:70,2
DA:71,2
DA:72,2
DA:73,2
DA:74,2
DA:76,2
DA:77,1
DA:78,1
DA:79,1
DA:80,1
DA:81,1
DA:82,1
DA:84,1
DA:85,1
DA:86,1
DA:87,1
DA:88,1
DA:89,1
DA:90,0
DA:91,1
DA:92,0
DA:93,0
DA:95,0
DA:97,1
DA:99,1
DA:100,1
DA:101,1
DA:102,1
DA:103,1
DA:104,1
DA:105,1
DA:106,1
DA:107,1
DA:108,1
DA:109,1
DA:110,1
DA:111,1
DA:112,0
DA:113,1
DA:114,0
DA:115,0
DA:117,0
DA:120,0
DA:123,2
DA:124,2
DA:125,2
DA:126,0
DA:127,0
DA:128,0
DA:129,2
DA:130,2
DA:131,2
DA:132,2
DA:133,2
DA:134,2
DA:135,0
DA:136,2
DA:139,0
DA:140,0
DA:141,0
DA:142,0
DA:143,0
DA:146,2
DA:147,2
BRF:0
BRH:0
LF:80
LH:60
end_of_record
SF:/Users/nick/Development/EttleX/EttleX-Project/Rust/crates/ettlex-cli/src/main.rs
FN:29,_RNvCsapINyqXVa5W_10ettlex_cli4main
FN:29,_RNvCs5RNcZzFx3h2_10ettlex_cli4main
FNDA:0,_RNvCsapINyqXVa5W_10ettlex_cli4main
FNDA:2,_RNvCs5RNcZzFx3h2_10ettlex_cli4main
FNF:1
FNH:1
DA:29,2
DA:30,2
DA:32,2
DA:33,0
DA:34,0
DA:35,0
DA:36,2
DA:39,2
DA:40,0
DA:41,0
DA:42,2
DA:43,2
BRF:0
BRH:0
LF:12
LH:7
end_of_record
SF:/Users/nick/Development/EttleX/EttleX-Project/Rust/crates/ettlex-core-types/src/correlation.rs
FN:25,_RNvMNtCs3euAMNnSGZH_17ettlex_core_types11correlationNtB2_9RequestId11from_string
FN:15,_RNvMNtCs3euAMNnSGZH_17ettlex_core_types11correlationNtB2_9RequestId3new
FN:20,_RNvMNtCs3euAMNnSGZH_17ettlex_core_types11correlationNtB2_9RequestId6as_str
FN:58,_RNvMs1_NtCs3euAMNnSGZH_17ettlex_core_types11correlationNtB5_7TraceId11from_string
FN:48,_RNvMs1_NtCs3euAMNnSGZH_17ettlex_core_types11correlationNtB5_7TraceId3new
FN:53,_RNvMs1_NtCs3euAMNnSGZH_17ettlex_core_types11correlationNtB5_7TraceId6as_str
FN:91,_RNvMs4_NtCs3euAMNnSGZH_17ettlex_core_types11correlationNtB5_6SpanId11from_string
FN:81,_RNvMs4_NtCs3euAMNnSGZH_17ettlex_core_types11correlationNtB5_6SpanId3new
FN:86,_RNvMs4_NtCs3euAMNnSGZH_17ettlex_core_types11correlationNtB5_6SpanId6as_str
FN:133,_RNvMs7_NtCs3euAMNnSGZH_17ettlex_core_types11correlationNtB5_14RequestContext13with_trace_id
FN:125,_RNvMs7_NtCs3euAMNnSGZH_17ettlex_core_types11correlationNtB5_14RequestContext15with_request_id
FN:117,_RNvMs7_NtCs3euAMNnSGZH_17ettlex_core_types11correlationNtB5_14RequestContext3new
FN:37,_RNvXs0_NtCs3euAMNnSGZH_17ettlex_core_types11correlationNtB5_9RequestIdNtNtCsezyhsC6CBT9_4core3fmt7Display3fmt
FN:64,_RNvXs2_NtCs3euAMNnSGZH_17ettlex_core_types11correlationNtB5_7TraceIdNtNtCsezyhsC6CBT9_4core7default7Default7default
FN:70,_RNvXs3_NtCs3euAMNnSGZH_17ettlex_core_types11correlationNtB5_7TraceIdNtNtCsezyhsC6CBT9_4core3fmt7Display3fmt
FN:97,_RNvXs5_NtCs3euAMNnSGZH_17ettlex_core_types11correlationNtB5_6SpanIdNtNtCsezyhsC6CBT9_4core7default7Default7default
FN:103,_RNvXs6_NtCs3euAMNnSGZH_17ettlex_core_types11correlationNtB5_6SpanIdNtNtCsezyhsC6CBT9_4core3fmt7Display3fmt
FN:140,_RNvXs8_NtCs3euAMNnSGZH_17ettlex_core_types11correlationNtB5_14RequestContextNtNtCsezyhsC6CBT9_4core7default7Default7default
FN:31,_RNvXs_NtCs3euAMNnSGZH_17ettlex_core_types11correlationNtB4_9RequestIdNtNtCsezyhsC6CBT9_4core7default7Default7default
FN:25,_RNvMNtCskCSBKs8Sj7B_17ettlex_core_types11correlationNtB2_9RequestId11from_string
FN:58,_RNvMs1_NtCskCSBKs8Sj7B_17ettlex_core_types11correlationNtB5_7TraceId11from_string
FN:91,_RNvMs4_NtCskCSBKs8Sj7B_17ettlex_core_types11correlationNtB5_6SpanId11from_string
FN:125,_RNvMs7_NtCskCSBKs8Sj7B_17ettlex_core_types11correlationNtB5_14RequestContext15with_request_id
FN:64,_RNvXs2_NtCskCSBKs8Sj7B_17ettlex_core_types11correlationNtB5_7TraceIdNtNtCsezyhsC6CBT9_4core7default7Default7default
FN:70,_RNvXs3_NtCskCSBKs8Sj7B_17ettlex_core_types11correlationNtB5_7TraceIdNtNtCsezyhsC6CBT9_4core3fmt7Display3fmt
FN:97,_RNvXs5_NtCskCSBKs8Sj7B_17ettlex_core_types11correlationNtB5_6SpanIdNtNtCsezyhsC6CBT9_4core7default7Default7default
FN:103,_RNvXs6_NtCskCSBKs8Sj7B_17ettlex_core_types11correlationNtB5_6SpanIdNtNtCsezyhsC6CBT9_4core3fmt7Display3fmt
FN:140,_RNvXs8_NtCskCSBKs8Sj7B_17ettlex_core_types11correlationNtB5_14RequestContextNtNtCsezyhsC6CBT9_4core7default7Default7default
FN:31,_RNvXs_NtCskCSBKs8Sj7B_17ettlex_core_types11correlationNtB4_9RequestIdNtNtCsezyhsC6CBT9_4core7default7Default7default
FN:15,_RNvMNtCskCSBKs8Sj7B_17ettlex_core_types11correlationNtB2_9RequestId3new
FN:20,_RNvMNtCskCSBKs8Sj7B_17ettlex_core_types11correlationNtB2_9RequestId6as_str
FN:48,_RNvMs1_NtCskCSBKs8Sj7B_17ettlex_core_types11correlationNtB5_7TraceId3new
FN:53,_RNvMs1_NtCskCSBKs8Sj7B_17ettlex_core_types11correlationNtB5_7TraceId6as_str
FN:81,_RNvMs4_NtCskCSBKs8Sj7B_17ettlex_core_types11correlationNtB5_6SpanId3new
FN:86,_RNvMs4_NtCskCSBKs8Sj7B_17ettlex_core_types11correlationNtB5_6SpanId6as_str
FN:133,_RNvMs7_NtCskCSBKs8Sj7B_17ettlex_core_types11correlationNtB5_14RequestContext13with_trace_id
FN:117,_RNvMs7_NtCskCSBKs8Sj7B_17ettlex_core_types11correlationNtB5_14RequestContext3new
FN:37,_RNvXs0_NtCskCSBKs8Sj7B_17ettlex_core_types11correlationNtB5_9RequestIdNtNtCsezyhsC6CBT9_4core3fmt7Display3fmt
FN:204,_RNvNtNtCskCSBKs8Sj7B_17ettlex_core_types11correlation5testss_18test_serialization
FN:163,_RNvNtNtCskCSBKs8Sj7B_17ettlex_core_types11correlation5testss_23test_request_id_display
FN:179,_RNvNtNtCskCSBKs8Sj7B_17ettlex_core_types11correlation5testss_23test_span_id_generation
FN:170,_RNvNtNtCskCSBKs8Sj7B_17ettlex_core_types11correlation5testss_24test_trace_id_generation
FN:150,_RNvNtNtCskCSBKs8Sj7B_17ettlex_core_types11correlation5testss_26test_request_id_generation
FN:188,_RNvNtNtCskCSBKs8Sj7B_17ettlex_core_types11correlation5testss_29test_request_context_creation
FN:195,_RNvNtNtCskCSBKs8Sj7B_17ettlex_core_types11correlation5testss_34test_request_context_with_trace_id
FNDA:0,_RNvMNtCs3euAMNnSGZH_17ettlex_core_types11correlationNtB2_9RequestId11from_string
FNDA:2,_RNvMNtCs3euAMNnSGZH_17ettlex_core_types11correlationNtB2_9RequestId3new
FNDA:0,_RNvMNtCs3euAMNnSGZH_17ettlex_core_types11correlationNtB2_9RequestId6as_str
FNDA:0,_RNvMs1_NtCs3euAMNnSGZH_17ettlex_core_types11correlationNtB5_7TraceId11from_string
FNDA:1,_RNvMs1_NtCs3euAMNnSGZH_17ettlex_core_types11correlationNtB5_7TraceId3new
FNDA:0,_RNvMs1_NtCs3euAMNnSGZH_17ettlex_core_types11correlationNtB5_7TraceId6as_str
FNDA:0,_RNvMs4_NtCs3euAMNnSGZH_17ettlex_core_types11correlationNtB5_6SpanId11from_string
FNDA:0,_RNvMs4_NtCs3euAMNnSGZH_17ettlex_core_types11correlationNtB5_6SpanId3new
FNDA:0,_RNvMs4_NtCs3euAMNnSGZH_17ettlex_core_types11correlationNtB5_6SpanId6as_str
FNDA:0,_RNvMs7_NtCs3euAMNnSGZH_17ettlex_core_types11correlationNtB5_14RequestContext13with_trace_id
FNDA:0,_RNvMs7_NtCs3euAMNnSGZH_17ettlex_core_types11correlationNtB5_14RequestContext15with_request_id
FNDA:0,_RNvMs7_NtCs3euAMNnSGZH_17ettlex_core_types11correlationNtB5_14RequestContext3new
FNDA:0,_RNvXs0_NtCs3euAMNnSGZH_17ettlex_core_types11correlationNtB5_9RequestIdNtNtCsezyhsC6CBT9_4core3fmt7Display3fmt
FNDA:0,_RNvXs2_NtCs3euAMNnSGZH_17ettlex_core_types11correlationNtB5_7TraceIdNtNtCsezyhsC6CBT9_4core7default7Default7default
FNDA:0,_RNvXs3_NtCs3euAMNnSGZH_17ettlex_core_types11correlationNtB5_7TraceIdNtNtCsezyhsC6CBT9_4core3fmt7Display3fmt
FNDA:0,_RNvXs5_NtCs3euAMNnSGZH_17ettlex_core_types11correlationNtB5_6SpanIdNtNtCsezyhsC6CBT9_4core7default7Default7default
FNDA:0,_RNvXs6_NtCs3euAMNnSGZH_17ettlex_core_types11correlationNtB5_6SpanIdNtNtCsezyhsC6CBT9_4core3fmt7Display3fmt
FNDA:0,_RNvXs8_NtCs3euAMNnSGZH_17ettlex_core_types11correlationNtB5_14RequestContextNtNtCsezyhsC6CBT9_4core7default7Default7default
FNDA:0,_RNvXs_NtCs3euAMNnSGZH_17ettlex_core_types11correlationNtB4_9RequestIdNtNtCsezyhsC6CBT9_4core7default7Default7default
FNDA:0,_RNvMNtCskCSBKs8Sj7B_17ettlex_core_types11correlationNtB2_9RequestId11from_string
FNDA:0,_RNvMs1_NtCskCSBKs8Sj7B_17ettlex_core_types11correlationNtB5_7TraceId11from_string
FNDA:0,_RNvMs4_NtCskCSBKs8Sj7B_17ettlex_core_types11correlationNtB5_6SpanId11from_string
FNDA:0,_RNvMs7_NtCskCSBKs8Sj7B_17ettlex_core_types11correlationNtB5_14RequestContext15with_request_id
FNDA:0,_RNvXs2_NtCskCSBKs8Sj7B_17ettlex_core_types11correlationNtB5_7TraceIdNtNtCsezyhsC6CBT9_4core7default7Default7default
FNDA:0,_RNvXs3_NtCskCSBKs8Sj7B_17ettlex_core_types11correlationNtB5_7TraceIdNtNtCsezyhsC6CBT9_4core3fmt7Display3fmt
FNDA:0,_RNvXs5_NtCskCSBKs8Sj7B_17ettlex_core_types11correlationNtB5_6SpanIdNtNtCsezyhsC6CBT9_4core7default7Default7default
FNDA:0,_RNvXs6_NtCskCSBKs8Sj7B_17ettlex_core_types11correlationNtB5_6SpanIdNtNtCsezyhsC6CBT9_4core3fmt7Display3fmt
FNDA:0,_RNvXs8_NtCskCSBKs8Sj7B_17ettlex_core_types11correlationNtB5_14RequestContextNtNtCsezyhsC6CBT9_4core7default7Default7default
FNDA:0,_RNvXs_NtCskCSBKs8Sj7B_17ettlex_core_types11correlationNtB4_9RequestIdNtNtCsezyhsC6CBT9_4core7default7Default7default
FNDA:6,_RNvMNtCskCSBKs8Sj7B_17ettlex_core_types11correlationNtB2_9RequestId3new
FNDA:4,_RNvMNtCskCSBKs8Sj7B_17ettlex_core_types11correlationNtB2_9RequestId6as_str
FNDA:3,_RNvMs1_NtCskCSBKs8Sj7B_17ettlex_core_types11correlationNtB5_7TraceId3new
FNDA:1,_RNvMs1_NtCskCSBKs8Sj7B_17ettlex_core_types11correlationNtB5_7TraceId6as_str
FNDA:2,_RNvMs4_NtCskCSBKs8Sj7B_17ettlex_core_types11correlationNtB5_6SpanId3new
FNDA:1,_RNvMs4_NtCskCSBKs8Sj7B_17ettlex_core_types11correlationNtB5_6SpanId6as_str
FNDA:1,_RNvMs7_NtCskCSBKs8Sj7B_17ettlex_core_types11correlationNtB5_14RequestContext13with_trace_id
FNDA:2,_RNvMs7_NtCskCSBKs8Sj7B_17ettlex_core_types11correlationNtB5_14RequestContext3new
FNDA:1,_RNvXs0_NtCskCSBKs8Sj7B_17ettlex_core_types11correlationNtB5_9RequestIdNtNtCsezyhsC6CBT9_4core3fmt7Display3fmt
FNDA:1,_RNvNtNtCskCSBKs8Sj7B_17ettlex_core_types11correlation5testss_18test_serialization
FNDA:1,_RNvNtNtCskCSBKs8Sj7B_17ettlex_core_types11correlation5testss_23test_request_id_display
FNDA:1,_RNvNtNtCskCSBKs8Sj7B_17ettlex_core_types11correlation5testss_23test_span_id_generation
FNDA:1,_RNvNtNtCskCSBKs8Sj7B_17ettlex_core_types11correlation5testss_24test_trace_id_generation
FNDA:1,_RNvNtNtCskCSBKs8Sj7B_17ettlex_core_types11correlation5testss_26test_request_id_generation
FNDA:1,_RNvNtNtCskCSBKs8Sj7B_17ettlex_core_types11correlation5testss_29test_request_context_creation
FNDA:1,_RNvNtNtCskCSBKs8Sj7B_17ettlex_core_types11correlation5testss_34test_request_context_with_trace_id
FNF:26
FNH:16
DA:15,8
DA:16,8
DA:17,8
DA:20,4
DA:21,4
DA:22,4
DA:25,0
DA:26,0
DA:27,0
DA:31,0
DA:32,0
DA:33,0
DA:37,1
DA:38,1
DA:39,1
DA:48,4
DA:49,4
DA:50,4
DA:53,1
DA:54,1
DA:55,1
DA:58,0
DA:59,0
DA:60,0
DA:64,0
DA:65,0
DA:66,0
DA:70,0
DA:71,0
DA:72,0
DA:81,2
DA:82,2
DA:83,2
DA:86,1
DA:87,1
DA:88,1
DA:91,0
DA:92,0
DA:93,0
DA:97,0
DA:98,0
DA:99,0
DA:103,0
DA:104,0
DA:105,0
DA:117,2
DA:118,2
DA:119,2
DA:120,2
DA:121,2
DA:122,2
DA:125,0
DA:126,0
DA:127,0
DA:128,0
DA:129,0
DA:130,0
DA:133,1
DA:134,1
DA:135,1
DA:136,1
DA:140,0
DA:141,0
DA:142,0
DA:150,1
DA:151,1
DA:152,1
DA:155,1
DA:158,1
DA:159,1
DA:160,1
DA:163,1
DA:164,1
DA:165,1
DA:166,1
DA:167,1
DA:170,1
DA:171,1
DA:172,1
DA:174,1
DA:175,1
DA:176,1
DA:179,1
DA:180,1
DA:181,1
DA:183,1
DA:184,1
DA:185,1
DA:188,1
DA:189,1
DA:190,1
DA:191,1
DA:192,1
DA:195,1
DA:196,1
DA:197,1
DA:199,1
DA:200,1
DA:201,1
DA:204,1
DA:205,1
DA:206,1
DA:207,1
DA:208,1
DA:209,1
BRF:0
BRH:0
LF:105
LH:72
end_of_record
SF:/Users/nick/Development/EttleX/EttleX-Project/Rust/crates/ettlex-core-types/src/schema.rs
FN:37,_RNvNtNtCskCSBKs8Sj7B_17ettlex_core_types6schema5testss_28test_constants_accessibility
FN:47,_RNvNtNtCskCSBKs8Sj7B_17ettlex_core_types6schema5testss_29test_event_names_are_distinct
FNDA:1,_RNvNtNtCskCSBKs8Sj7B_17ettlex_core_types6schema5testss_28test_constants_accessibility
FNDA:1,_RNvNtNtCskCSBKs8Sj7B_17ettlex_core_types6schema5testss_29test_event_names_are_distinct
FNF:2
FNH:2
DA:37,1
DA:39,1
DA:40,1
DA:41,1
DA:42,1
DA:43,1
DA:44,1
DA:47,1
DA:48,1
DA:49,1
DA:50,1
DA:51,1
BRF:0
BRH:0
LF:12
LH:12
end_of_record
SF:/Users/nick/Development/EttleX/EttleX-Project/Rust/crates/ettlex-core-types/src/sensitive.rs
FN:39,_RNvMNtCs3euAMNnSGZH_17ettlex_core_types9sensitiveINtB2_9SensitivepE10into_innerB4_
FN:26,_RNvMNtCs3euAMNnSGZH_17ettlex_core_types9sensitiveINtB2_9SensitivepE3newB4_
FN:34,_RNvMNtCs3euAMNnSGZH_17ettlex_core_types9sensitiveINtB2_9SensitivepE6exposeB4_
FN:51,_RNvXININtCs3euAMNnSGZH_17ettlex_core_types9sensitives0_0pEINtB5_9SensitivepENtNtCsezyhsC6CBT9_4core3fmt7Display3fmtB7_
FN:57,_RNvXININtCs3euAMNnSGZH_17ettlex_core_types9sensitives1_0pEINtB5_9SensitivepENtNtCsezyhsC6CBT9_4core5clone5Clone5cloneB7_
FN:45,_RNvXININtCs3euAMNnSGZH_17ettlex_core_types9sensitives_0pEINtB5_9SensitivepENtNtCsezyhsC6CBT9_4core3fmt5Debug3fmtB7_
FN:96,_RNvNtNtCskCSBKs8Sj7B_17ettlex_core_types9sensitive5testss_20test_sensitive_clone
FN:83,_RNvNtNtCskCSBKs8Sj7B_17ettlex_core_types9sensitive5testss_21test_sensitive_expose
FN:89,_RNvNtNtCskCSBKs8Sj7B_17ettlex_core_types9sensitive5testss_25test_sensitive_into_inner
FN:103,_RNvNtNtCskCSBKs8Sj7B_17ettlex_core_types9sensitive5testss_26test_sensitive_with_struct
FN:67,_RNvNtNtCskCSBKs8Sj7B_17ettlex_core_types9sensitive5testss_30test_sensitive_debug_redaction
FN:75,_RNvNtNtCskCSBKs8Sj7B_17ettlex_core_types9sensitive5testss_32test_sensitive_display_redaction
FN:39,_RNvMNtCskCSBKs8Sj7B_17ettlex_core_types9sensitiveINtB2_9SensitiveNtNtCs5bkkNO3hTYU_5alloc6string6StringE10into_innerB4_
FN:26,_RNvMNtCskCSBKs8Sj7B_17ettlex_core_types9sensitiveINtB2_9SensitiveNtNtCs5bkkNO3hTYU_5alloc6string6StringE3newB4_
FN:34,_RNvMNtCskCSBKs8Sj7B_17ettlex_core_types9sensitiveINtB2_9SensitiveNtNtCs5bkkNO3hTYU_5alloc6string6StringE6exposeB4_
FN:26,_RNvMNtCskCSBKs8Sj7B_17ettlex_core_types9sensitiveINtB2_9SensitiveReE3newB4_
FN:26,_RNvMNtCskCSBKs8Sj7B_17ettlex_core_types9sensitiveINtB2_9SensitivelE3newB4_
FN:34,_RNvMNtCskCSBKs8Sj7B_17ettlex_core_types9sensitiveINtB2_9SensitivelE6exposeB4_
FN:51,_RNvXs0_NtCskCSBKs8Sj7B_17ettlex_core_types9sensitiveINtB5_9SensitiveReENtNtCsezyhsC6CBT9_4core3fmt7Display3fmtB7_
FN:57,_RNvXs1_NtCskCSBKs8Sj7B_17ettlex_core_types9sensitiveINtB5_9SensitiveNtNtCs5bkkNO3hTYU_5alloc6string6StringENtNtCsezyhsC6CBT9_4core5clone5Clone5cloneB7_
FN:45,_RNvXs_NtCskCSBKs8Sj7B_17ettlex_core_types9sensitiveINtB4_9SensitiveNtNtCs5bkkNO3hTYU_5alloc6string6StringENtNtCsezyhsC6CBT9_4core3fmt5Debug3fmtB6_
FN:45,_RNvXs_NtCskCSBKs8Sj7B_17ettlex_core_types9sensitiveINtB4_9SensitiveReENtNtCsezyhsC6CBT9_4core3fmt5Debug3fmtB6_
FNDA:0,_RNvMNtCs3euAMNnSGZH_17ettlex_core_types9sensitiveINtB2_9SensitivepE10into_innerB4_
FNDA:0,_RNvMNtCs3euAMNnSGZH_17ettlex_core_types9sensitiveINtB2_9SensitivepE3newB4_
FNDA:0,_RNvMNtCs3euAMNnSGZH_17ettlex_core_types9sensitiveINtB2_9SensitivepE6exposeB4_
FNDA:0,_RNvXININtCs3euAMNnSGZH_17ettlex_core_types9sensitives0_0pEINtB5_9SensitivepENtNtCsezyhsC6CBT9_4core3fmt7Display3fmtB7_
FNDA:0,_RNvXININtCs3euAMNnSGZH_17ettlex_core_types9sensitives1_0pEINtB5_9SensitivepENtNtCsezyhsC6CBT9_4core5clone5Clone5cloneB7_
FNDA:0,_RNvXININtCs3euAMNnSGZH_17ettlex_core_types9sensitives_0pEINtB5_9SensitivepENtNtCsezyhsC6CBT9_4core3fmt5Debug3fmtB7_
FNDA:1,_RNvNtNtCskCSBKs8Sj7B_17ettlex_core_types9sensitive5testss_20test_sensitive_clone
FNDA:1,_RNvNtNtCskCSBKs8Sj7B_17ettlex_core_types9sensitive5testss_21test_sensitive_expose
FNDA:1,_RNvNtNtCskCSBKs8Sj7B_17ettlex_core_types9sensitive5testss_25test_sensitive_into_inner
FNDA:1,_RNvNtNtCskCSBKs8Sj7B_17ettlex_core_types9sensitive5testss_26test_sensitive_with_struct
FNDA:1,_RNvNtNtCskCSBKs8Sj7B_17ettlex_core_types9sensitive5testss_30test_sensitive_debug_redaction
FNDA:1,_RNvNtNtCskCSBKs8Sj7B_17ettlex_core_types9sensitive5testss_32test_sensitive_display_redaction
FNDA:1,_RNvMNtCskCSBKs8Sj7B_17ettlex_core_types9sensitiveINtB2_9SensitiveNtNtCs5bkkNO3hTYU_5alloc6string6StringE10into_innerB4_
FNDA:3,_RNvMNtCskCSBKs8Sj7B_17ettlex_core_types9sensitiveINtB2_9SensitiveNtNtCs5bkkNO3hTYU_5alloc6string6StringE3newB4_
FNDA:2,_RNvMNtCskCSBKs8Sj7B_17ettlex_core_types9sensitiveINtB2_9SensitiveNtNtCs5bkkNO3hTYU_5alloc6string6StringE6exposeB4_
FNDA:2,_RNvMNtCskCSBKs8Sj7B_17ettlex_core_types9sensitiveINtB2_9SensitiveReE3newB4_
FNDA:1,_RNvMNtCskCSBKs8Sj7B_17ettlex_core_types9sensitiveINtB2_9SensitivelE3newB4_
FNDA:1,_RNvMNtCskCSBKs8Sj7B_17ettlex_core_types9sensitiveINtB2_9SensitivelE6exposeB4_
FNDA:1,_RNvXs0_NtCskCSBKs8Sj7B_17ettlex_core_types9sensitiveINtB5_9SensitiveReENtNtCsezyhsC6CBT9_4core3fmt7Display3fmtB7_
FNDA:1,_RNvXs1_NtCskCSBKs8Sj7B_17ettlex_core_types9sensitiveINtB5_9SensitiveNtNtCs5bkkNO3hTYU_5alloc6string6StringENtNtCsezyhsC6CBT9_4core5clone5Clone5cloneB7_
FNDA:1,_RNvXs_NtCskCSBKs8Sj7B_17ettlex_core_types9sensitiveINtB4_9SensitiveNtNtCs5bkkNO3hTYU_5alloc6string6StringENtNtCsezyhsC6CBT9_4core3fmt5Debug3fmtB6_
FNDA:1,_RNvXs_NtCskCSBKs8Sj7B_17ettlex_core_types9sensitiveINtB4_9SensitiveReENtNtCsezyhsC6CBT9_4core3fmt5Debug3fmtB6_
FNF:12
FNH:12
DA:26,6
DA:27,6
DA:28,6
DA:34,3
DA:35,3
DA:36,3
DA:39,1
DA:40,1
DA:41,1
DA:45,2
DA:46,2
DA:47,2
DA:51,1
DA:52,1
DA:53,1
DA:57,1
DA:58,1
DA:59,1
DA:67,1
DA:68,1
DA:69,1
DA:70,1
DA:71,1
DA:72,1
DA:75,1
DA:76,1
DA:77,1
DA:78,1
DA:79,1
DA:80,1
DA:83,1
DA:84,1
DA:85,1
DA:86,1
DA:89,1
DA:90,1
DA:91,1
DA:92,1
DA:93,1
DA:96,1
DA:97,1
DA:98,1
DA:99,1
DA:100,1
DA:103,1
DA:111,1
DA:112,1
DA:113,1
DA:114,1
DA:116,1
DA:117,1
DA:118,1
DA:119,1
DA:120,1
BRF:0
BRH:0
LF:54
LH:54
end_of_record
SF:/Users/nick/Development/EttleX/EttleX-Project/Rust/crates/ettlex-core/src/apply.rs
FN:368,_RNCNvNtCs4640luT8Huz_11ettlex_core5apply14hard_delete_ep0B5_
FN:394,_RNCNvNtCs4640luT8Huz_11ettlex_core5apply14hard_delete_eps0_0B5_
FN:388,_RNCNvNtCs4640luT8Huz_11ettlex_core5apply14hard_delete_eps_0B5_
FN:345,_RNvNtCs4640luT8Huz_11ettlex_core5apply14hard_delete_ep
FN:84,_RNvNtCs4640luT8Huz_11ettlex_core5apply5apply
FN:456,_RNvNtNtCsixIA6ROfhIR_11ettlex_core5apply5testss_20test_apply_ep_create
FN:417,_RNvNtNtCsixIA6ROfhIR_11ettlex_core5apply5testss_23test_apply_ettle_create
FN:436,_RNvNtNtCsixIA6ROfhIR_11ettlex_core5apply5testss_23test_apply_ettle_update
FN:598,_RNvNtNtCsixIA6ROfhIR_11ettlex_core5apply5testss_26test_apply_atomic_on_error
FN:621,_RNvNtNtCsixIA6ROfhIR_11ettlex_core5apply5testss_28test_apply_constraint_create
FN:570,_RNvNtNtCsixIA6ROfhIR_11ettlex_core5apply5testss_28test_apply_refine_link_child
FN:552,_RNvNtNtCsixIA6ROfhIR_11ettlex_core5apply5testss_34test_hard_delete_cannot_delete_ep0
FN:791,_RNvNtNtCsixIA6ROfhIR_11ettlex_core5apply5testss_36test_apply_constraint_attach_success
FN:958,_RNvNtNtCsixIA6ROfhIR_11ettlex_core5apply5testss_36test_apply_constraint_detach_success
FN:690,_RNvNtNtCsixIA6ROfhIR_11ettlex_core5apply5testss_36test_apply_constraint_update_deleted
FN:642,_RNvNtNtCsixIA6ROfhIR_11ettlex_core5apply5testss_36test_apply_constraint_update_success
FN:719,_RNvNtNtCsixIA6ROfhIR_11ettlex_core5apply5testss_39test_apply_constraint_tombstone_success
FN:670,_RNvNtNtCsixIA6ROfhIR_11ettlex_core5apply5testss_40test_apply_constraint_update_nonexistent
FN:993,_RNvNtNtCsixIA6ROfhIR_11ettlex_core5apply5testss_41test_apply_constraint_detach_not_attached
FN:517,_RNvNtNtCsixIA6ROfhIR_11ettlex_core5apply5testss_42test_apply_ep_delete_hard_for_non_anchored
FN:889,_RNvNtNtCsixIA6ROfhIR_11ettlex_core5apply5testss_43test_apply_constraint_attach_nonexistent_ep
FN:746,_RNvNtNtCsixIA6ROfhIR_11ettlex_core5apply5testss_43test_apply_constraint_tombstone_nonexistent
FN:479,_RNvNtNtCsixIA6ROfhIR_11ettlex_core5apply5testss_43test_apply_ep_delete_tombstone_for_anchored
FN:918,_RNvNtNtCsixIA6ROfhIR_11ettlex_core5apply5testss_45test_apply_constraint_attach_already_attached
FN:850,_RNvNtNtCsixIA6ROfhIR_11ettlex_core5apply5testss_47test_apply_constraint_attach_deleted_constraint
FN:763,_RNvNtNtCsixIA6ROfhIR_11ettlex_core5apply5testss_47test_apply_constraint_tombstone_already_deleted
FN:825,_RNvNtNtCsixIA6ROfhIR_11ettlex_core5apply5testss_51test_apply_constraint_attach_nonexistent_constraint
FN:345,_RNvNtCsixIA6ROfhIR_11ettlex_core5apply14hard_delete_ep
FN:84,_RNvNtCsixIA6ROfhIR_11ettlex_core5apply5apply
FN:368,_RNCNvNtCsixIA6ROfhIR_11ettlex_core5apply14hard_delete_ep0B5_
FN:394,_RNCNvNtCsixIA6ROfhIR_11ettlex_core5apply14hard_delete_eps0_0B5_
FN:388,_RNCNvNtCsixIA6ROfhIR_11ettlex_core5apply14hard_delete_eps_0B5_
FNDA:0,_RNCNvNtCs4640luT8Huz_11ettlex_core5apply14hard_delete_ep0B5_
FNDA:12,_RNCNvNtCs4640luT8Huz_11ettlex_core5apply14hard_delete_eps0_0B5_
FNDA:0,_RNCNvNtCs4640luT8Huz_11ettlex_core5apply14hard_delete_eps_0B5_
FNDA:7,_RNvNtCs4640luT8Huz_11ettlex_core5apply14hard_delete_ep
FNDA:49,_RNvNtCs4640luT8Huz_11ettlex_core5apply5apply
FNDA:1,_RNvNtNtCsixIA6ROfhIR_11ettlex_core5apply5testss_20test_apply_ep_create
FNDA:1,_RNvNtNtCsixIA6ROfhIR_11ettlex_core5apply5testss_23test_apply_ettle_create
FNDA:1,_RNvNtNtCsixIA6ROfhIR_11ettlex_core5apply5testss_23test_apply_ettle_update
FNDA:1,_RNvNtNtCsixIA6ROfhIR_11ettlex_core5apply5testss_26test_apply_atomic_on_error
FNDA:1,_RNvNtNtCsixIA6ROfhIR_11ettlex_core5apply5testss_28test_apply_constraint_create
FNDA:1,_RNvNtNtCsixIA6ROfhIR_11ettlex_core5apply5testss_28test_apply_refine_link_child
FNDA:1,_RNvNtNtCsixIA6ROfhIR_11ettlex_core5apply5testss_34test_hard_delete_cannot_delete_ep0
FNDA:1,_RNvNtNtCsixIA6ROfhIR_11ettlex_core5apply5testss_36test_apply_constraint_attach_success
FNDA:1,_RNvNtNtCsixIA6ROfhIR_11ettlex_core5apply5testss_36test_apply_constraint_detach_success
FNDA:1,_RNvNtNtCsixIA6ROfhIR_11ettlex_core5apply5testss_36test_apply_constraint_update_deleted
FNDA:1,_RNvNtNtCsixIA6ROfhIR_11ettlex_core5apply5testss_36test_apply_constraint_update_success
FNDA:1,_RNvNtNtCsixIA6ROfhIR_11ettlex_core5apply5testss_39test_apply_constraint_tombstone_success
FNDA:1,_RNvNtNtCsixIA6ROfhIR_11ettlex_core5apply5testss_40test_apply_constraint_update_nonexistent
FNDA:1,_RNvNtNtCsixIA6ROfhIR_11ettlex_core5apply5testss_41test_apply_constraint_detach_not_attached
FNDA:1,_RNvNtNtCsixIA6ROfhIR_11ettlex_core5apply5testss_42test_apply_ep_delete_hard_for_non_anchored
FNDA:1,_RNvNtNtCsixIA6ROfhIR_11ettlex_core5apply5testss_43test_apply_constraint_attach_nonexistent_ep
FNDA:1,_RNvNtNtCsixIA6ROfhIR_11ettlex_core5apply5testss_43test_apply_constraint_tombstone_nonexistent
FNDA:1,_RNvNtNtCsixIA6ROfhIR_11ettlex_core5apply5testss_43test_apply_ep_delete_tombstone_for_anchored
FNDA:1,_RNvNtNtCsixIA6ROfhIR_11ettlex_core5apply5testss_45test_apply_constraint_attach_already_attached
FNDA:1,_RNvNtNtCsixIA6ROfhIR_11ettlex_core5apply5testss_47test_apply_constraint_attach_deleted_constraint
FNDA:1,_RNvNtNtCsixIA6ROfhIR_11ettlex_core5apply5testss_47test_apply_constraint_tombstone_already_deleted
FNDA:1,_RNvNtNtCsixIA6ROfhIR_11ettlex_core5apply5testss_51test_apply_constraint_attach_nonexistent_constraint
FNDA:2,_RNvNtCsixIA6ROfhIR_11ettlex_core5apply14hard_delete_ep
FNDA:22,_RNvNtCsixIA6ROfhIR_11ettlex_core5apply5apply
FNDA:0,_RNCNvNtCsixIA6ROfhIR_11ettlex_core5apply14hard_delete_ep0B5_
FNDA:2,_RNCNvNtCsixIA6ROfhIR_11ettlex_core5apply14hard_delete_eps0_0B5_
FNDA:0,_RNCNvNtCsixIA6ROfhIR_11ettlex_core5apply14hard_delete_eps_0B5_
FNF:27
FNH:25
DA:84,71
DA:85,71
DA:87,11
DA:88,11
DA:89,11
DA:90,11
DA:91,11
DA:93,11
DA:94,8
DA:98,5
DA:99,5
DA:100,5
DA:102,5
DA:103,2
DA:106,1
DA:107,1
DA:108,1
DA:112,4
DA:113,4
DA:114,4
DA:115,4
DA:116,4
DA:117,4
DA:119,4
DA:120,2
DA:124,13
DA:125,13
DA:126,13
DA:127,13
DA:128,13
DA:129,13
DA:131,13
DA:132,8
DA:135,13
DA:137,13
DA:139,4
DA:142,9
DA:144,10
DA:148,3
DA:149,3
DA:151,3
DA:153,2
DA:154,2
DA:157,1
DA:158,1
DA:160,1
DA:161,1
DA:165,1
DA:166,1
DA:167,1
DA:168,1
DA:169,1
DA:171,1
DA:172,1
DA:173,1
DA:174,1
DA:175,1
DA:176,1
DA:177,1
DA:178,0
DA:179,1
DA:183,3
DA:184,3
DA:186,3
DA:187,1
DA:190,3
DA:191,3
DA:192,1
DA:196,5
DA:197,5
DA:198,5
DA:200,5
DA:201,1
DA:205,2
DA:206,2
DA:208,2
DA:209,1
DA:213,1
DA:214,1
DA:215,1
DA:216,1
DA:217,1
DA:218,1
DA:219,1
DA:220,1
DA:221,1
DA:222,1
DA:223,1
DA:225,1
DA:226,1
DA:227,1
DA:228,1
DA:229,1
DA:230,1
DA:231,1
DA:232,1
DA:233,1
DA:234,1
DA:235,1
DA:236,1
DA:237,1
DA:238,0
DA:239,1
DA:243,1
DA:244,1
DA:245,1
DA:246,1
DA:247,1
DA:248,1
DA:249,1
DA:250,1
DA:251,1
DA:252,1
DA:253,1
DA:255,1
DA:256,1
DA:257,1
DA:258,1
DA:259,1
DA:260,1
DA:261,1
DA:262,1
DA:263,1
DA:264,1
DA:265,1
DA:266,1
DA:267,1
DA:268,0
DA:269,1
DA:272,1
DA:273,1
DA:274,1
DA:278,1
DA:279,1
DA:280,1
DA:281,1
DA:282,1
DA:284,1
DA:285,1
DA:286,1
DA:287,1
DA:288,1
DA:289,1
DA:290,1
DA:291,0
DA:292,1
DA:296,1
DA:297,1
DA:298,1
DA:299,1
DA:301,1
DA:302,1
DA:303,1
DA:304,1
DA:305,1
DA:306,1
DA:307,0
DA:308,1
DA:312,1
DA:313,1
DA:315,1
DA:316,1
DA:319,71
DA:345,9
DA:350,9
DA:353,9
DA:354,3
DA:355,3
DA:356,3
DA:357,6
DA:360,6
DA:362,0
DA:363,0
DA:366,0
DA:367,0
DA:368,0
DA:369,0
DA:372,0
DA:373,0
DA:374,0
DA:375,0
DA:376,0
DA:377,0
DA:378,6
DA:381,6
DA:384,6
DA:385,6
DA:386,6
DA:387,6
DA:388,0
DA:389,0
DA:392,6
DA:393,6
DA:394,14
DA:397,6
DA:398,0
DA:399,0
DA:400,0
DA:401,0
DA:402,6
DA:404,6
DA:406,6
DA:407,9
DA:417,1
DA:418,1
DA:419,1
DA:420,1
DA:421,1
DA:422,1
DA:423,1
DA:424,1
DA:425,1
DA:427,1
DA:428,1
DA:430,1
DA:431,1
DA:432,1
DA:433,1
DA:436,1
DA:437,1
DA:438,1
DA:439,1
DA:440,1
DA:442,1
DA:443,1
DA:444,1
DA:445,1
DA:446,1
DA:448,1
DA:449,1
DA:451,1
DA:452,1
DA:453,1
DA:456,1
DA:457,1
DA:458,1
DA:459,1
DA:460,1
DA:462,1
DA:463,1
DA:464,1
DA:465,1
DA:466,1
DA:467,1
DA:468,1
DA:469,1
DA:471,1
DA:472,1
DA:474,1
DA:475,1
DA:476,1
DA:479,1
DA:480,1
DA:481,1
DA:482,1
DA:483,1
DA:484,1
DA:485,1
DA:486,1
DA:489,1
DA:490,1
DA:491,1
DA:493,1
DA:496,1
DA:497,1
DA:498,1
DA:500,1
DA:501,1
DA:502,1
DA:504,1
DA:507,1
DA:508,1
DA:509,1
DA:512,1
DA:513,1
DA:514,1
DA:517,1
DA:518,1
DA:519,1
DA:520,1
DA:521,1
DA:522,1
DA:523,1
DA:524,1
DA:527,1
DA:528,1
DA:529,1
DA:531,1
DA:534,1
DA:536,1
DA:537,1
DA:538,1
DA:540,1
DA:543,1
DA:546,1
DA:547,1
DA:548,1
DA:549,1
DA:552,1
DA:553,1
DA:554,1
DA:555,1
DA:556,1
DA:558,1
DA:559,1
DA:561,1
DA:562,1
DA:564,1
DA:565,1
DA:566,1
DA:567,1
DA:570,1
DA:571,1
DA:572,1
DA:573,1
DA:574,1
DA:575,1
DA:576,1
DA:577,1
DA:579,1
DA:580,1
DA:582,1
DA:583,1
DA:584,1
DA:585,1
DA:587,1
DA:588,1
DA:590,1
DA:591,1
DA:593,1
DA:594,1
DA:595,1
DA:598,1
DA:599,1
DA:600,1
DA:601,1
DA:602,1
DA:603,1
DA:604,1
DA:605,1
DA:606,1
DA:608,1
DA:609,1
DA:612,1
DA:615,1
DA:616,1
DA:621,1
DA:624,1
DA:625,1
DA:626,1
DA:627,1
DA:628,1
DA:629,1
DA:630,1
DA:631,1
DA:633,1
DA:634,1
DA:636,1
DA:637,1
DA:638,1
DA:639,1
DA:642,1
DA:646,1
DA:647,1
DA:648,1
DA:649,1
DA:650,1
DA:651,1
DA:652,1
DA:653,1
DA:655,1
DA:657,1
DA:658,1
DA:659,1
DA:660,1
DA:662,1
DA:663,1
DA:665,1
DA:666,1
DA:667,1
DA:670,1
DA:673,1
DA:674,1
DA:675,1
DA:676,1
DA:677,1
DA:679,1
DA:680,1
DA:682,1
DA:683,1
DA:684,1
DA:687,1
DA:690,1
DA:694,1
DA:695,1
DA:696,1
DA:697,1
DA:698,1
DA:699,1
DA:700,1
DA:701,1
DA:703,1
DA:704,1
DA:706,1
DA:707,1
DA:708,1
DA:709,1
DA:711,1
DA:712,1
DA:714,1
DA:715,1
DA:716,1
DA:719,1
DA:723,1
DA:724,1
DA:725,1
DA:726,1
DA:727,1
DA:728,1
DA:729,1
DA:730,1
DA:732,1
DA:734,1
DA:735,1
DA:736,1
DA:738,1
DA:739,1
DA:741,1
DA:742,1
DA:743,1
DA:746,1
DA:747,1
DA:748,1
DA:749,1
DA:750,1
DA:752,1
DA:753,1
DA:755,1
DA:756,1
DA:757,1
DA:760,1
DA:763,1
DA:767,1
DA:768,1
DA:769,1
DA:770,1
DA:771,1
DA:772,1
DA:773,1
DA:774,1
DA:776,1
DA:777,1
DA:779,1
DA:780,1
DA:781,1
DA:783,1
DA:784,1
DA:786,1
DA:787,1
DA:788,1
DA:791,1
DA:795,1
DA:796,1
DA:797,1
DA:798,1
DA:799,1
DA:800,1
DA:802,1
DA:803,1
DA:804,1
DA:805,1
DA:806,1
DA:807,1
DA:808,1
DA:810,1
DA:812,1
DA:813,1
DA:814,1
DA:815,1
DA:816,1
DA:818,1
DA:819,1
DA:821,1
DA:822,1
DA:825,1
DA:826,1
DA:827,1
DA:828,1
DA:829,1
DA:830,1
DA:831,1
DA:833,1
DA:834,1
DA:835,1
DA:836,1
DA:837,1
DA:839,1
DA:840,1
DA:842,1
DA:843,1
DA:844,1
DA:847,1
DA:850,1
DA:854,1
DA:855,1
DA:856,1
DA:857,1
DA:858,1
DA:859,1
DA:861,1
DA:862,1
DA:863,1
DA:864,1
DA:865,1
DA:866,1
DA:867,1
DA:869,1
DA:870,1
DA:872,1
DA:873,1
DA:874,1
DA:875,1
DA:876,1
DA:878,1
DA:879,1
DA:881,1
DA:882,1
DA:883,1
DA:886,1
DA:889,1
DA:893,1
DA:894,1
DA:895,1
DA:896,1
DA:897,1
DA:898,1
DA:899,1
DA:900,1
DA:902,1
DA:904,1
DA:905,1
DA:906,1
DA:907,1
DA:908,1
DA:910,1
DA:911,1
DA:913,1
DA:914,1
DA:915,1
DA:918,1
DA:922,1
DA:923,1
DA:924,1
DA:925,1
DA:926,1
DA:927,1
DA:929,1
DA:930,1
DA:931,1
DA:932,1
DA:933,1
DA:934,1
DA:935,1
DA:937,1
DA:938,1
DA:939,1
DA:941,1
DA:942,1
DA:943,1
DA:944,1
DA:945,1
DA:947,1
DA:948,1
DA:950,1
DA:951,1
DA:952,1
DA:955,1
DA:958,1
DA:962,1
DA:963,1
DA:964,1
DA:965,1
DA:966,1
DA:967,1
DA:969,1
DA:970,1
DA:971,1
DA:972,1
DA:973,1
DA:974,1
DA:975,1
DA:977,1
DA:978,1
DA:979,1
DA:981,1
DA:982,1
DA:983,1
DA:984,1
DA:986,1
DA:987,1
DA:989,1
DA:990,1
DA:993,1
DA:997,1
DA:998,1
DA:999,1
DA:1000,1
DA:1001,1
DA:1002,1
DA:1004,1
DA:1005,1
DA:1006,1
DA:1007,1
DA:1008,1
DA:1009,1
DA:1010,1
DA:1012,1
DA:1014,1
DA:1015,1
DA:1016,1
DA:1017,1
DA:1019,1
DA:1020,1
DA:1022,1
DA:1023,1
DA:1024,1
DA:1027,1
BRF:0
BRH:0
LF:630
LH:576
end_of_record
SF:/Users/nick/Development/EttleX/EttleX-Project/Rust/crates/ettlex-core/src/approval_router.rs
FN:27,_RNvXNtCs4640luT8Huz_11ettlex_core15approval_routerNtB2_18NoopApprovalRouterNtB2_14ApprovalRouter22route_approval_request
FN:38,_RNvNtNtCsixIA6ROfhIR_11ettlex_core15approval_router5testss_45test_noop_approval_router_returns_unavailable
FN:27,_RNvXNtCsixIA6ROfhIR_11ettlex_core15approval_routerNtB2_18NoopApprovalRouterNtB2_14ApprovalRouter22route_approval_request
FNDA:1,_RNvXNtCs4640luT8Huz_11ettlex_core15approval_routerNtB2_18NoopApprovalRouterNtB2_14ApprovalRouter22route_approval_request
FNDA:1,_RNvNtNtCsixIA6ROfhIR_11ettlex_core15approval_router5testss_45test_noop_approval_router_returns_unavailable
FNDA:2,_RNvXNtCsixIA6ROfhIR_11ettlex_core15approval_routerNtB2_18NoopApprovalRouterNtB2_14ApprovalRouter22route_approval_request
FNF:2
FNH:2
DA:27,3
DA:28,3
DA:29,3
DA:30,3
DA:38,1
DA:40,1
DA:41,1
DA:42,1
DA:43,1
DA:44,1
DA:47,1
BRF:0
BRH:0
LF:11
LH:11
end_of_record
SF:/Users/nick/Development/EttleX/EttleX-Project/Rust/crates/ettlex-core/src/candidate_resolver.rs
FN:22,_RNvMNtCs4640luT8Huz_11ettlex_core18candidate_resolverNtB2_15AmbiguityPolicy5parse
FN:59,_RNvNtCs4640luT8Huz_11ettlex_core18candidate_resolver18resolve_candidates
FN:116,_RNvNtCs4640luT8Huz_11ettlex_core18candidate_resolver26compute_dry_run_resolution
FN:76,_RNCNvNtCs4640luT8Huz_11ettlex_core18candidate_resolver18resolve_candidates0B5_
FN:82,_RNCNvNtCs4640luT8Huz_11ettlex_core18candidate_resolver18resolve_candidatess_0B5_
FN:133,_RNCNvNtCs4640luT8Huz_11ettlex_core18candidate_resolver26compute_dry_run_resolution0B5_
FN:59,_RNvNtCsixIA6ROfhIR_11ettlex_core18candidate_resolver18resolve_candidates
FN:76,_RNCNvNtCsixIA6ROfhIR_11ettlex_core18candidate_resolver18resolve_candidates0B5_
FN:82,_RNCNvNtCsixIA6ROfhIR_11ettlex_core18candidate_resolver18resolve_candidatess_0B5_
FN:162,_RNCNvNtNtCsixIA6ROfhIR_11ettlex_core18candidate_resolver5tests5cands0B7_
FN:133,_RNCNvNtCsixIA6ROfhIR_11ettlex_core18candidate_resolver26compute_dry_run_resolution0B5_
FN:22,_RNvMNtCsixIA6ROfhIR_11ettlex_core18candidate_resolverNtB2_15AmbiguityPolicy5parse
FN:116,_RNvNtCsixIA6ROfhIR_11ettlex_core18candidate_resolver26compute_dry_run_resolution
FN:158,_RNvNtNtCsixIA6ROfhIR_11ettlex_core18candidate_resolver5tests5cands
FN:169,_RNvNtNtCsixIA6ROfhIR_11ettlex_core18candidate_resolver5testss_32test_resolve_empty_returns_empty
FN:175,_RNvNtNtCsixIA6ROfhIR_11ettlex_core18candidate_resolver5testss_36test_resolve_single_returns_selected
FN:186,_RNvNtNtCsixIA6ROfhIR_11ettlex_core18candidate_resolver5testss_38test_resolve_multiple_fail_fast_errors
FN:208,_RNvNtNtCsixIA6ROfhIR_11ettlex_core18candidate_resolver5testss_56test_resolve_route_for_approval_noop_returns_unavailable
FN:197,_RNvNtNtCsixIA6ROfhIR_11ettlex_core18candidate_resolver5testss_58test_resolve_multiple_choose_deterministic_picks_first_lex
FNDA:23,_RNvMNtCs4640luT8Huz_11ettlex_core18candidate_resolverNtB2_15AmbiguityPolicy5parse
FNDA:64,_RNvNtCs4640luT8Huz_11ettlex_core18candidate_resolver18resolve_candidates
FNDA:14,_RNvNtCs4640luT8Huz_11ettlex_core18candidate_resolver26compute_dry_run_resolution
FNDA:2,_RNCNvNtCs4640luT8Huz_11ettlex_core18candidate_resolver18resolve_candidates0B5_
FNDA:10,_RNCNvNtCs4640luT8Huz_11ettlex_core18candidate_resolver18resolve_candidatess_0B5_
FNDA:8,_RNCNvNtCs4640luT8Huz_11ettlex_core18candidate_resolver26compute_dry_run_resolution0B5_
FNDA:5,_RNvNtCsixIA6ROfhIR_11ettlex_core18candidate_resolver18resolve_candidates
FNDA:2,_RNCNvNtCsixIA6ROfhIR_11ettlex_core18candidate_resolver18resolve_candidates0B5_
FNDA:2,_RNCNvNtCsixIA6ROfhIR_11ettlex_core18candidate_resolver18resolve_candidatess_0B5_
FNDA:7,_RNCNvNtNtCsixIA6ROfhIR_11ettlex_core18candidate_resolver5tests5cands0B7_
FNDA:0,_RNCNvNtCsixIA6ROfhIR_11ettlex_core18candidate_resolver26compute_dry_run_resolution0B5_
FNDA:0,_RNvMNtCsixIA6ROfhIR_11ettlex_core18candidate_resolverNtB2_15AmbiguityPolicy5parse
FNDA:0,_RNvNtCsixIA6ROfhIR_11ettlex_core18candidate_resolver26compute_dry_run_resolution
FNDA:4,_RNvNtNtCsixIA6ROfhIR_11ettlex_core18candidate_resolver5tests5cands
FNDA:1,_RNvNtNtCsixIA6ROfhIR_11ettlex_core18candidate_resolver5testss_32test_resolve_empty_returns_empty
FNDA:1,_RNvNtNtCsixIA6ROfhIR_11ettlex_core18candidate_resolver5testss_36test_resolve_single_returns_selected
FNDA:1,_RNvNtNtCsixIA6ROfhIR_11ettlex_core18candidate_resolver5testss_38test_resolve_multiple_fail_fast_errors
FNDA:1,_RNvNtNtCsixIA6ROfhIR_11ettlex_core18candidate_resolver5testss_56test_resolve_route_for_approval_noop_returns_unavailable
FNDA:1,_RNvNtNtCsixIA6ROfhIR_11ettlex_core18candidate_resolver5testss_58test_resolve_multiple_choose_deterministic_picks_first_lex
FNF:13
FNH:13
DA:22,23
DA:23,23
DA:24,23
DA:25,22
DA:26,14
DA:28,23
DA:59,69
DA:60,69
DA:61,69
DA:62,69
DA:63,69
DA:64,69
DA:65,56
DA:66,3
DA:67,10
DA:68,2
DA:69,2
DA:70,2
DA:71,2
DA:72,2
DA:75,2
DA:76,4
DA:77,2
DA:78,2
DA:81,6
DA:82,12
DA:83,6
DA:84,4
DA:88,69
DA:116,14
DA:117,14
DA:118,14
DA:119,14
DA:120,14
DA:121,6
DA:122,6
DA:123,6
DA:124,6
DA:125,6
DA:126,4
DA:127,4
DA:128,4
DA:129,4
DA:130,4
DA:132,4
DA:133,8
DA:134,4
DA:135,4
DA:136,0
DA:137,0
DA:138,0
DA:139,0
DA:140,0
DA:142,4
DA:143,4
DA:144,4
DA:145,4
DA:146,4
DA:151,14
DA:158,4
DA:159,4
DA:160,4
DA:161,4
DA:162,7
DA:163,7
DA:164,7
DA:165,4
DA:166,4
DA:169,1
DA:170,1
DA:171,1
DA:172,1
DA:175,1
DA:176,1
DA:177,1
DA:178,1
DA:179,1
DA:181,1
DA:182,1
DA:183,1
DA:186,1
DA:187,1
DA:188,1
DA:189,1
DA:190,1
DA:192,1
DA:193,1
DA:194,1
DA:197,1
DA:198,1
DA:199,1
DA:200,1
DA:201,1
DA:203,1
DA:204,1
DA:205,1
DA:208,1
DA:209,1
DA:210,1
DA:211,1
DA:212,1
DA:214,1
DA:215,1
DA:216,1
DA:219,1
BRF:0
BRH:0
LF:108
LH:103
end_of_record
SF:/Users/nick/Development/EttleX/EttleX-Project/Rust/crates/ettlex-core/src/commands.rs
FN:193,_RNvNtNtCsixIA6ROfhIR_11ettlex_core8commands5testss_18test_command_clone
FN:179,_RNvNtNtCsixIA6ROfhIR_11ettlex_core8commands5testss_22test_command_ep_delete
FN:161,_RNvNtNtCsixIA6ROfhIR_11ettlex_core8commands5testss_25test_command_ettle_create
FNDA:1,_RNvNtNtCsixIA6ROfhIR_11ettlex_core8commands5testss_18test_command_clone
FNDA:1,_RNvNtNtCsixIA6ROfhIR_11ettlex_core8commands5testss_22test_command_ep_delete
FNDA:1,_RNvNtNtCsixIA6ROfhIR_11ettlex_core8commands5testss_25test_command_ettle_create
FNF:3
FNH:3
DA:161,1
DA:162,1
DA:163,1
DA:164,1
DA:165,1
DA:166,1
DA:167,1
DA:168,1
DA:170,1
DA:171,1
DA:172,1
DA:174,0
DA:176,1
DA:179,1
DA:180,1
DA:181,1
DA:182,1
DA:184,1
DA:185,1
DA:186,1
DA:188,0
DA:190,1
DA:193,1
DA:194,1
DA:195,1
DA:196,1
DA:197,1
DA:198,1
DA:200,1
DA:201,1
DA:202,1
BRF:0
BRH:0
LF:31
LH:29
end_of_record
SF:/Users/nick/Development/EttleX/EttleX-Project/Rust/crates/ettlex-core/src/constraint_engine/mod.rs
FN:149,_RNCNvNtCs4640luT8Huz_11ettlex_core17constraint_engine8evaluates1_0B5_
FN:150,_RNCNvNtCs4640luT8Huz_11ettlex_core17constraint_engine8evaluates2_0B5_
FN:172,_RNCNvNtCs4640luT8Huz_11ettlex_core17constraint_engine8evaluates3_0B5_
FN:176,_RNCNvNtCs4640luT8Huz_11ettlex_core17constraint_engine8evaluates4_0B5_
FN:184,_RNCNvNtCs4640luT8Huz_11ettlex_core17constraint_engine8evaluates5_0B5_
FN:134,_RNCNvNtCs4640luT8Huz_11ettlex_core17constraint_engine8evaluates_0B5_
FN:98,_RNvNtCs4640luT8Huz_11ettlex_core17constraint_engine8evaluate
FN:149,_RNCNvNtCsixIA6ROfhIR_11ettlex_core17constraint_engine8evaluates1_0B5_
FN:150,_RNCNvNtCsixIA6ROfhIR_11ettlex_core17constraint_engine8evaluates2_0B5_
FN:172,_RNCNvNtCsixIA6ROfhIR_11ettlex_core17constraint_engine8evaluates3_0B5_
FN:176,_RNCNvNtCsixIA6ROfhIR_11ettlex_core17constraint_engine8evaluates4_0B5_
FN:184,_RNCNvNtCsixIA6ROfhIR_11ettlex_core17constraint_engine8evaluates5_0B5_
FN:134,_RNCNvNtCsixIA6ROfhIR_11ettlex_core17constraint_engine8evaluates_0B5_
FN:98,_RNvNtCsixIA6ROfhIR_11ettlex_core17constraint_engine8evaluate
FNDA:1051,_RNCNvNtCs4640luT8Huz_11ettlex_core17constraint_engine8evaluates1_0B5_
FNDA:0,_RNCNvNtCs4640luT8Huz_11ettlex_core17constraint_engine8evaluates2_0B5_
FNDA:1051,_RNCNvNtCs4640luT8Huz_11ettlex_core17constraint_engine8evaluates3_0B5_
FNDA:49,_RNCNvNtCs4640luT8Huz_11ettlex_core17constraint_engine8evaluates4_0B5_
FNDA:0,_RNCNvNtCs4640luT8Huz_11ettlex_core17constraint_engine8evaluates5_0B5_
FNDA:1024,_RNCNvNtCs4640luT8Huz_11ettlex_core17constraint_engine8evaluates_0B5_
FNDA:114,_RNvNtCs4640luT8Huz_11ettlex_core17constraint_engine8evaluate
FNDA:0,_RNCNvNtCsixIA6ROfhIR_11ettlex_core17constraint_engine8evaluates1_0B5_
FNDA:0,_RNCNvNtCsixIA6ROfhIR_11ettlex_core17constraint_engine8evaluates2_0B5_
FNDA:0,_RNCNvNtCsixIA6ROfhIR_11ettlex_core17constraint_engine8evaluates3_0B5_
FNDA:0,_RNCNvNtCsixIA6ROfhIR_11ettlex_core17constraint_engine8evaluates4_0B5_
FNDA:0,_RNCNvNtCsixIA6ROfhIR_11ettlex_core17constraint_engine8evaluates5_0B5_
FNDA:0,_RNCNvNtCsixIA6ROfhIR_11ettlex_core17constraint_engine8evaluates_0B5_
FNDA:0,_RNvNtCsixIA6ROfhIR_11ettlex_core17constraint_engine8evaluate
FNF:7
FNH:5
DA:98,114
DA:103,114
DA:105,114
DA:107,129
DA:108,129
DA:110,129
DA:112,1052
DA:113,1052
DA:114,1
DA:115,1051
DA:118,1051
DA:119,1051
DA:120,1051
DA:121,1051
DA:122,1051
DA:123,1051
DA:124,1051
DA:125,1051
DA:126,1051
DA:127,1051
DA:128,1051
DA:129,1051
DA:134,1024
DA:136,114
DA:137,114
DA:140,114
DA:141,1051
DA:142,1051
DA:143,1051
DA:146,114
DA:147,114
DA:149,1051
DA:150,49
DA:151,0
DA:152,0
DA:153,0
DA:154,49
DA:155,49
DA:156,49
DA:158,49
DA:159,49
DA:160,49
DA:161,49
DA:162,49
DA:163,49
DA:164,49
DA:169,114
DA:170,114
DA:171,114
DA:172,1051
DA:173,114
DA:174,114
DA:175,114
DA:176,114
DA:177,114
DA:178,114
DA:179,114
DA:180,114
DA:184,114
DA:185,0
DA:189,0
DA:190,114
DA:191,114
DA:192,114
DA:194,114
DA:195,114
DA:196,114
DA:197,114
DA:198,114
DA:199,114
BRF:0
BRH:0
LF:78
LH:69
end_of_record
SF:/Users/nick/Development/EttleX/EttleX-Project/Rust/crates/ettlex-core/src/diff/engine.rs
FN:356,_RNCNCNvNtNtCs4640luT8Huz_11ettlex_core4diff6engine12compute_diffs4_00B9_
FN:357,_RNCNCNvNtNtCs4640luT8Huz_11ettlex_core4diff6engine12compute_diffs4_0s_0B9_
FN:321,_RNCNvNtNtCs4640luT8Huz_11ettlex_core4diff6engine12compute_diff0B7_
FN:326,_RNCNvNtNtCs4640luT8Huz_11ettlex_core4diff6engine12compute_diffs0_0B7_
FN:327,_RNCNvNtNtCs4640luT8Huz_11ettlex_core4diff6engine12compute_diffs1_0B7_
FN:343,_RNCNvNtNtCs4640luT8Huz_11ettlex_core4diff6engine12compute_diffs2_0B7_
FN:348,_RNCNvNtNtCs4640luT8Huz_11ettlex_core4diff6engine12compute_diffs3_0B7_
FN:353,_RNCNvNtNtCs4640luT8Huz_11ettlex_core4diff6engine12compute_diffs4_0B7_
FN:374,_RNCNvNtNtCs4640luT8Huz_11ettlex_core4diff6engine12compute_diffs5_0B7_
FN:375,_RNCNvNtNtCs4640luT8Huz_11ettlex_core4diff6engine12compute_diffs6_0B7_
FN:504,_RNCNvNtNtCs4640luT8Huz_11ettlex_core4diff6engine12compute_diffs7_0B7_
FN:505,_RNCNvNtNtCs4640luT8Huz_11ettlex_core4diff6engine12compute_diffs8_0B7_
FN:512,_RNCNvNtNtCs4640luT8Huz_11ettlex_core4diff6engine12compute_diffs9_0B7_
FN:322,_RNCNvNtNtCs4640luT8Huz_11ettlex_core4diff6engine12compute_diffs_0B7_
FN:513,_RNCNvNtNtCs4640luT8Huz_11ettlex_core4diff6engine12compute_diffsa_0B7_
FN:521,_RNCNvNtNtCs4640luT8Huz_11ettlex_core4diff6engine12compute_diffsb_0B7_
FN:525,_RNCNvNtNtCs4640luT8Huz_11ettlex_core4diff6engine12compute_diffsc_0B7_
FN:617,_RNCNvNtNtCs4640luT8Huz_11ettlex_core4diff6engine12compute_diffsd_0B7_
FN:622,_RNCNvNtNtCs4640luT8Huz_11ettlex_core4diff6engine12compute_diffse_0B7_
FN:50,_RNCNvNtNtCs4640luT8Huz_11ettlex_core4diff6engine20parse_manifest_bytes0B7_
FN:63,_RNCNvNtNtCs4640luT8Huz_11ettlex_core4diff6engine20parse_manifest_bytess0_0B7_
FN:98,_RNCNvNtNtCs4640luT8Huz_11ettlex_core4diff6engine20parse_manifest_bytess1_0B7_
FN:57,_RNCNvNtNtCs4640luT8Huz_11ettlex_core4diff6engine20parse_manifest_bytess_0B7_
FN:113,_RNCNvNtNtCs4640luT8Huz_11ettlex_core4diff6engine28recompute_constraints_digest0B7_
FN:117,_RNCNvNtNtCs4640luT8Huz_11ettlex_core4diff6engine28recompute_constraints_digests_0B7_
FN:151,_RNCNvNtNtCs4640luT8Huz_11ettlex_core4diff6engine9set_delta0B7_
FN:155,_RNCNvNtNtCs4640luT8Huz_11ettlex_core4diff6engine9set_deltas0_0B7_
FN:160,_RNCNvNtNtCs4640luT8Huz_11ettlex_core4diff6engine9set_deltas1_0B7_
FN:152,_RNCNvNtNtCs4640luT8Huz_11ettlex_core4diff6engine9set_deltas_0B7_
FN:198,_RNvNtNtCs4640luT8Huz_11ettlex_core4diff6engine12compute_diff
FN:167,_RNvNtNtCs4640luT8Huz_11ettlex_core4diff6engine12max_severity
FN:48,_RNvNtNtCs4640luT8Huz_11ettlex_core4diff6engine20parse_manifest_bytes
FN:176,_RNvNtNtCs4640luT8Huz_11ettlex_core4diff6engine21metadata_field_change
FN:131,_RNvNtNtCs4640luT8Huz_11ettlex_core4diff6engine25check_envelope_invariants
FN:111,_RNvNtNtCs4640luT8Huz_11ettlex_core4diff6engine28recompute_constraints_digest
FN:150,_RNvNtNtCs4640luT8Huz_11ettlex_core4diff6engine9set_delta
FN:198,_RNvNtNtCsixIA6ROfhIR_11ettlex_core4diff6engine12compute_diff
FN:167,_RNvNtNtCsixIA6ROfhIR_11ettlex_core4diff6engine12max_severity
FN:48,_RNvNtNtCsixIA6ROfhIR_11ettlex_core4diff6engine20parse_manifest_bytes
FN:176,_RNvNtNtCsixIA6ROfhIR_11ettlex_core4diff6engine21metadata_field_change
FN:131,_RNvNtNtCsixIA6ROfhIR_11ettlex_core4diff6engine25check_envelope_invariants
FN:111,_RNvNtNtCsixIA6ROfhIR_11ettlex_core4diff6engine28recompute_constraints_digest
FN:150,_RNvNtNtCsixIA6ROfhIR_11ettlex_core4diff6engine9set_delta
FN:356,_RNCNCNvNtNtCsixIA6ROfhIR_11ettlex_core4diff6engine12compute_diffs4_00B9_
FN:357,_RNCNCNvNtNtCsixIA6ROfhIR_11ettlex_core4diff6engine12compute_diffs4_0s_0B9_
FN:321,_RNCNvNtNtCsixIA6ROfhIR_11ettlex_core4diff6engine12compute_diff0B7_
FN:326,_RNCNvNtNtCsixIA6ROfhIR_11ettlex_core4diff6engine12compute_diffs0_0B7_
FN:327,_RNCNvNtNtCsixIA6ROfhIR_11ettlex_core4diff6engine12compute_diffs1_0B7_
FN:343,_RNCNvNtNtCsixIA6ROfhIR_11ettlex_core4diff6engine12compute_diffs2_0B7_
FN:348,_RNCNvNtNtCsixIA6ROfhIR_11ettlex_core4diff6engine12compute_diffs3_0B7_
FN:353,_RNCNvNtNtCsixIA6ROfhIR_11ettlex_core4diff6engine12compute_diffs4_0B7_
FN:374,_RNCNvNtNtCsixIA6ROfhIR_11ettlex_core4diff6engine12compute_diffs5_0B7_
FN:375,_RNCNvNtNtCsixIA6ROfhIR_11ettlex_core4diff6engine12compute_diffs6_0B7_
FN:504,_RNCNvNtNtCsixIA6ROfhIR_11ettlex_core4diff6engine12compute_diffs7_0B7_
FN:505,_RNCNvNtNtCsixIA6ROfhIR_11ettlex_core4diff6engine12compute_diffs8_0B7_
FN:512,_RNCNvNtNtCsixIA6ROfhIR_11ettlex_core4diff6engine12compute_diffs9_0B7_
FN:322,_RNCNvNtNtCsixIA6ROfhIR_11ettlex_core4diff6engine12compute_diffs_0B7_
FN:513,_RNCNvNtNtCsixIA6ROfhIR_11ettlex_core4diff6engine12compute_diffsa_0B7_
FN:521,_RNCNvNtNtCsixIA6ROfhIR_11ettlex_core4diff6engine12compute_diffsb_0B7_
FN:525,_RNCNvNtNtCsixIA6ROfhIR_11ettlex_core4diff6engine12compute_diffsc_0B7_
FN:617,_RNCNvNtNtCsixIA6ROfhIR_11ettlex_core4diff6engine12compute_diffsd_0B7_
FN:622,_RNCNvNtNtCsixIA6ROfhIR_11ettlex_core4diff6engine12compute_diffse_0B7_
FN:50,_RNCNvNtNtCsixIA6ROfhIR_11ettlex_core4diff6engine20parse_manifest_bytes0B7_
FN:63,_RNCNvNtNtCsixIA6ROfhIR_11ettlex_core4diff6engine20parse_manifest_bytess0_0B7_
FN:98,_RNCNvNtNtCsixIA6ROfhIR_11ettlex_core4diff6engine20parse_manifest_bytess1_0B7_
FN:57,_RNCNvNtNtCsixIA6ROfhIR_11ettlex_core4diff6engine20parse_manifest_bytess_0B7_
FN:113,_RNCNvNtNtCsixIA6ROfhIR_11ettlex_core4diff6engine28recompute_constraints_digest0B7_
FN:117,_RNCNvNtNtCsixIA6ROfhIR_11ettlex_core4diff6engine28recompute_constraints_digests_0B7_
FN:151,_RNCNvNtNtCsixIA6ROfhIR_11ettlex_core4diff6engine9set_delta0B7_
FN:155,_RNCNvNtNtCsixIA6ROfhIR_11ettlex_core4diff6engine9set_deltas0_0B7_
FN:160,_RNCNvNtNtCsixIA6ROfhIR_11ettlex_core4diff6engine9set_deltas1_0B7_
FN:152,_RNCNvNtNtCsixIA6ROfhIR_11ettlex_core4diff6engine9set_deltas_0B7_
FNDA:222,_RNCNCNvNtNtCs4640luT8Huz_11ettlex_core4diff6engine12compute_diffs4_00B9_
FNDA:202,_RNCNCNvNtNtCs4640luT8Huz_11ettlex_core4diff6engine12compute_diffs4_0s_0B9_
FNDA:222,_RNCNvNtNtCs4640luT8Huz_11ettlex_core4diff6engine12compute_diff0B7_
FNDA:222,_RNCNvNtNtCs4640luT8Huz_11ettlex_core4diff6engine12compute_diffs0_0B7_
FNDA:223,_RNCNvNtNtCs4640luT8Huz_11ettlex_core4diff6engine12compute_diffs1_0B7_
FNDA:222,_RNCNvNtNtCs4640luT8Huz_11ettlex_core4diff6engine12compute_diffs2_0B7_
FNDA:223,_RNCNvNtNtCs4640luT8Huz_11ettlex_core4diff6engine12compute_diffs3_0B7_
FNDA:222,_RNCNvNtNtCs4640luT8Huz_11ettlex_core4diff6engine12compute_diffs4_0B7_
FNDA:1,_RNCNvNtNtCs4640luT8Huz_11ettlex_core4diff6engine12compute_diffs5_0B7_
FNDA:4,_RNCNvNtNtCs4640luT8Huz_11ettlex_core4diff6engine12compute_diffs6_0B7_
FNDA:309,_RNCNvNtNtCs4640luT8Huz_11ettlex_core4diff6engine12compute_diffs7_0B7_
FNDA:309,_RNCNvNtNtCs4640luT8Huz_11ettlex_core4diff6engine12compute_diffs8_0B7_
FNDA:310,_RNCNvNtNtCs4640luT8Huz_11ettlex_core4diff6engine12compute_diffs9_0B7_
FNDA:223,_RNCNvNtNtCs4640luT8Huz_11ettlex_core4diff6engine12compute_diffs_0B7_
FNDA:310,_RNCNvNtNtCs4640luT8Huz_11ettlex_core4diff6engine12compute_diffsa_0B7_
FNDA:1,_RNCNvNtNtCs4640luT8Huz_11ettlex_core4diff6engine12compute_diffsb_0B7_
FNDA:0,_RNCNvNtNtCs4640luT8Huz_11ettlex_core4diff6engine12compute_diffsc_0B7_
FNDA:0,_RNCNvNtNtCs4640luT8Huz_11ettlex_core4diff6engine12compute_diffsd_0B7_
FNDA:0,_RNCNvNtNtCs4640luT8Huz_11ettlex_core4diff6engine12compute_diffse_0B7_
FNDA:0,_RNCNvNtNtCs4640luT8Huz_11ettlex_core4diff6engine20parse_manifest_bytes0B7_
FNDA:0,_RNCNvNtNtCs4640luT8Huz_11ettlex_core4diff6engine20parse_manifest_bytess0_0B7_
FNDA:0,_RNCNvNtNtCs4640luT8Huz_11ettlex_core4diff6engine20parse_manifest_bytess1_0B7_
FNDA:1,_RNCNvNtNtCs4640luT8Huz_11ettlex_core4diff6engine20parse_manifest_bytess_0B7_
FNDA:5,_RNCNvNtNtCs4640luT8Huz_11ettlex_core4diff6engine28recompute_constraints_digest0B7_
FNDA:5,_RNCNvNtNtCs4640luT8Huz_11ettlex_core4diff6engine28recompute_constraints_digests_0B7_
FNDA:227,_RNCNvNtNtCs4640luT8Huz_11ettlex_core4diff6engine9set_delta0B7_
FNDA:233,_RNCNvNtNtCs4640luT8Huz_11ettlex_core4diff6engine9set_deltas0_0B7_
FNDA:227,_RNCNvNtNtCs4640luT8Huz_11ettlex_core4diff6engine9set_deltas1_0B7_
FNDA:233,_RNCNvNtNtCs4640luT8Huz_11ettlex_core4diff6engine9set_deltas_0B7_
FNDA:33,_RNvNtNtCs4640luT8Huz_11ettlex_core4diff6engine12compute_diff
FNDA:22,_RNvNtNtCs4640luT8Huz_11ettlex_core4diff6engine12max_severity
FNDA:62,_RNvNtNtCs4640luT8Huz_11ettlex_core4diff6engine20parse_manifest_bytes
FNDA:88,_RNvNtNtCs4640luT8Huz_11ettlex_core4diff6engine21metadata_field_change
FNDA:44,_RNvNtNtCs4640luT8Huz_11ettlex_core4diff6engine25check_envelope_invariants
FNDA:44,_RNvNtNtCs4640luT8Huz_11ettlex_core4diff6engine28recompute_constraints_digest
FNDA:110,_RNvNtNtCs4640luT8Huz_11ettlex_core4diff6engine9set_delta
FNDA:13,_RNvNtNtCsixIA6ROfhIR_11ettlex_core4diff6engine12compute_diff
FNDA:11,_RNvNtNtCsixIA6ROfhIR_11ettlex_core4diff6engine12max_severity
FNDA:26,_RNvNtNtCsixIA6ROfhIR_11ettlex_core4diff6engine20parse_manifest_bytes
FNDA:44,_RNvNtNtCsixIA6ROfhIR_11ettlex_core4diff6engine21metadata_field_change
FNDA:22,_RNvNtNtCsixIA6ROfhIR_11ettlex_core4diff6engine25check_envelope_invariants
FNDA:22,_RNvNtNtCsixIA6ROfhIR_11ettlex_core4diff6engine28recompute_constraints_digest
FNDA:55,_RNvNtNtCsixIA6ROfhIR_11ettlex_core4diff6engine9set_delta
FNDA:12,_RNCNCNvNtNtCsixIA6ROfhIR_11ettlex_core4diff6engine12compute_diffs4_00B9_
FNDA:1,_RNCNCNvNtNtCsixIA6ROfhIR_11ettlex_core4diff6engine12compute_diffs4_0s_0B9_
FNDA:12,_RNCNvNtNtCsixIA6ROfhIR_11ettlex_core4diff6engine12compute_diff0B7_
FNDA:12,_RNCNvNtNtCsixIA6ROfhIR_11ettlex_core4diff6engine12compute_diffs0_0B7_
FNDA:13,_RNCNvNtNtCsixIA6ROfhIR_11ettlex_core4diff6engine12compute_diffs1_0B7_
FNDA:12,_RNCNvNtNtCsixIA6ROfhIR_11ettlex_core4diff6engine12compute_diffs2_0B7_
FNDA:13,_RNCNvNtNtCsixIA6ROfhIR_11ettlex_core4diff6engine12compute_diffs3_0B7_
FNDA:12,_RNCNvNtNtCsixIA6ROfhIR_11ettlex_core4diff6engine12compute_diffs4_0B7_
FNDA:1,_RNCNvNtNtCsixIA6ROfhIR_11ettlex_core4diff6engine12compute_diffs5_0B7_
FNDA:1,_RNCNvNtNtCsixIA6ROfhIR_11ettlex_core4diff6engine12compute_diffs6_0B7_
FNDA:156,_RNCNvNtNtCsixIA6ROfhIR_11ettlex_core4diff6engine12compute_diffs7_0B7_
FNDA:156,_RNCNvNtNtCsixIA6ROfhIR_11ettlex_core4diff6engine12compute_diffs8_0B7_
FNDA:155,_RNCNvNtNtCsixIA6ROfhIR_11ettlex_core4diff6engine12compute_diffs9_0B7_
FNDA:13,_RNCNvNtNtCsixIA6ROfhIR_11ettlex_core4diff6engine12compute_diffs_0B7_
FNDA:155,_RNCNvNtNtCsixIA6ROfhIR_11ettlex_core4diff6engine12compute_diffsa_0B7_
FNDA:0,_RNCNvNtNtCsixIA6ROfhIR_11ettlex_core4diff6engine12compute_diffsb_0B7_
FNDA:1,_RNCNvNtNtCsixIA6ROfhIR_11ettlex_core4diff6engine12compute_diffsc_0B7_
FNDA:0,_RNCNvNtNtCsixIA6ROfhIR_11ettlex_core4diff6engine12compute_diffsd_0B7_
FNDA:0,_RNCNvNtNtCsixIA6ROfhIR_11ettlex_core4diff6engine12compute_diffse_0B7_
FNDA:0,_RNCNvNtNtCsixIA6ROfhIR_11ettlex_core4diff6engine20parse_manifest_bytes0B7_
FNDA:0,_RNCNvNtNtCsixIA6ROfhIR_11ettlex_core4diff6engine20parse_manifest_bytess0_0B7_
FNDA:0,_RNCNvNtNtCsixIA6ROfhIR_11ettlex_core4diff6engine20parse_manifest_bytess1_0B7_
FNDA:0,_RNCNvNtNtCsixIA6ROfhIR_11ettlex_core4diff6engine20parse_manifest_bytess_0B7_
FNDA:2,_RNCNvNtNtCsixIA6ROfhIR_11ettlex_core4diff6engine28recompute_constraints_digest0B7_
FNDA:2,_RNCNvNtNtCsixIA6ROfhIR_11ettlex_core4diff6engine28recompute_constraints_digests_0B7_
FNDA:14,_RNCNvNtNtCsixIA6ROfhIR_11ettlex_core4diff6engine9set_delta0B7_
FNDA:15,_RNCNvNtNtCsixIA6ROfhIR_11ettlex_core4diff6engine9set_deltas0_0B7_
FNDA:14,_RNCNvNtNtCsixIA6ROfhIR_11ettlex_core4diff6engine9set_deltas1_0B7_
FNDA:15,_RNCNvNtNtCsixIA6ROfhIR_11ettlex_core4diff6engine9set_deltas_0B7_
FNF:36
FNH:31
DA:48,88
DA:50,88
DA:51,0
DA:52,0
DA:53,0
DA:54,0
DA:57,88
DA:58,1
DA:59,1
DA:60,1
DA:61,1
DA:63,87
DA:64,0
DA:65,0
DA:66,0
DA:67,0
DA:70,87
DA:71,87
DA:72,87
DA:73,1
DA:74,1
DA:75,1
DA:76,1
DA:77,1
DA:78,1
DA:79,86
DA:80,0
DA:84,86
DA:85,1
DA:86,1
DA:87,1
DA:88,85
DA:91,85
DA:92,1
DA:93,1
DA:94,1
DA:95,84
DA:98,84
DA:99,0
DA:100,0
DA:101,0
DA:102,0
DA:104,84
DA:105,88
DA:111,66
DA:112,66
DA:113,66
DA:114,66
DA:115,66
DA:116,66
DA:117,66
DA:118,66
DA:120,66
DA:121,66
DA:122,66
DA:124,66
DA:125,66
DA:126,66
DA:127,66
DA:128,66
DA:131,66
DA:132,66
DA:133,66
DA:134,66
DA:135,66
DA:136,66
DA:137,66
DA:138,66
DA:139,23
DA:140,23
DA:141,23
DA:142,23
DA:143,23
DA:144,43
DA:145,66
DA:150,165
DA:151,241
DA:152,248
DA:153,165
DA:154,165
DA:155,248
DA:156,165
DA:157,165
DA:158,165
DA:159,165
DA:160,241
DA:161,165
DA:162,165
DA:163,165
DA:164,165
DA:167,33
DA:168,33
DA:169,33
DA:170,33
DA:171,33
DA:172,33
DA:173,33
DA:176,132
DA:177,132
DA:178,5
DA:179,5
DA:180,5
DA:181,5
DA:183,127
DA:185,132
DA:198,46
DA:200,46
DA:201,42
DA:204,42
DA:205,42
DA:206,42
DA:207,42
DA:208,42
DA:209,42
DA:210,42
DA:211,42
DA:214,42
DA:215,5
DA:216,5
DA:217,5
DA:218,5
DA:219,5
DA:220,5
DA:221,5
DA:222,5
DA:223,5
DA:224,5
DA:225,5
DA:226,5
DA:227,5
DA:228,5
DA:229,5
DA:230,5
DA:231,5
DA:232,5
DA:233,5
DA:234,5
DA:235,5
DA:236,5
DA:237,5
DA:238,5
DA:239,5
DA:240,5
DA:241,5
DA:242,5
DA:243,5
DA:244,5
DA:245,5
DA:246,5
DA:247,5
DA:248,5
DA:249,5
DA:250,5
DA:251,5
DA:252,5
DA:253,5
DA:254,5
DA:255,5
DA:256,5
DA:257,5
DA:258,5
DA:259,5
DA:260,5
DA:261,5
DA:262,37
DA:265,37
DA:266,4
DA:267,4
DA:268,4
DA:269,4
DA:270,4
DA:271,4
DA:272,4
DA:273,4
DA:274,4
DA:275,4
DA:276,4
DA:277,4
DA:278,4
DA:279,4
DA:280,4
DA:281,4
DA:282,4
DA:283,4
DA:284,4
DA:285,4
DA:286,4
DA:287,4
DA:288,4
DA:289,4
DA:290,4
DA:291,4
DA:292,4
DA:293,4
DA:294,4
DA:295,4
DA:296,4
DA:297,4
DA:298,4
DA:299,4
DA:300,4
DA:301,4
DA:302,4
DA:303,4
DA:304,4
DA:305,4
DA:306,4
DA:307,4
DA:308,4
DA:309,4
DA:310,4
DA:311,4
DA:312,4
DA:313,33
DA:316,33
DA:317,33
DA:318,33
DA:321,234
DA:322,236
DA:323,33
DA:326,234
DA:327,236
DA:328,33
DA:329,33
DA:330,33
DA:332,33
DA:333,33
DA:334,33
DA:335,33
DA:336,33
DA:340,33
DA:341,33
DA:342,33
DA:343,234
DA:344,33
DA:345,33
DA:346,33
DA:347,33
DA:348,236
DA:349,33
DA:351,33
DA:352,33
DA:353,234
DA:354,234
DA:355,234
DA:356,234
DA:357,234
DA:358,234
DA:359,33
DA:360,33
DA:361,33
DA:364,33
DA:365,33
DA:367,33
DA:368,33
DA:369,33
DA:370,33
DA:371,33
DA:374,33
DA:375,33
DA:376,33
DA:378,33
DA:379,33
DA:380,6
DA:381,6
DA:382,6
DA:383,4
DA:384,4
DA:385,4
DA:386,4
DA:387,4
DA:388,4
DA:389,4
DA:390,4
DA:391,4
DA:392,4
DA:393,4
DA:394,4
DA:395,1
DA:396,1
DA:397,1
DA:398,1
DA:399,1
DA:400,1
DA:401,1
DA:402,1
DA:403,1
DA:404,1
DA:405,1
DA:406,1
DA:407,1
DA:408,1
DA:409,1
DA:410,1
DA:411,1
DA:412,1
DA:413,1
DA:414,1
DA:415,1
DA:416,1
DA:417,1
DA:418,1
DA:419,1
DA:421,0
DA:425,33
DA:426,33
DA:427,33
DA:428,33
DA:429,33
DA:430,33
DA:431,33
DA:432,33
DA:434,33
DA:435,8
DA:436,8
DA:437,8
DA:438,8
DA:440,25
DA:443,33
DA:444,33
DA:445,33
DA:446,33
DA:447,33
DA:448,33
DA:451,33
DA:452,33
DA:453,33
DA:454,33
DA:455,33
DA:456,33
DA:459,33
DA:460,33
DA:461,33
DA:462,33
DA:463,33
DA:466,33
DA:468,33
DA:469,33
DA:470,33
DA:471,33
DA:472,33
DA:473,33
DA:474,33
DA:475,33
DA:476,33
DA:477,33
DA:478,33
DA:479,33
DA:480,33
DA:481,33
DA:482,33
DA:483,33
DA:484,33
DA:485,33
DA:486,33
DA:487,33
DA:488,33
DA:489,33
DA:491,132
DA:492,132
DA:493,5
DA:494,127
DA:497,33
DA:500,33
DA:502,33
DA:503,33
DA:504,465
DA:505,465
DA:506,33
DA:508,0
DA:510,33
DA:511,33
DA:512,465
DA:513,465
DA:514,33
DA:516,0
DA:519,33
DA:520,33
DA:521,33
DA:522,33
DA:523,33
DA:524,33
DA:525,33
DA:526,33
DA:529,33
DA:530,33
DA:531,33
DA:532,33
DA:533,2
DA:534,1
DA:535,1
DA:537,0
DA:538,33
DA:540,33
DA:541,33
DA:542,33
DA:543,33
DA:544,33
DA:547,33
DA:549,33
DA:550,31
DA:551,31
DA:552,2
DA:553,2
DA:554,33
DA:555,2
DA:556,31
DA:557,33
DA:558,4
DA:559,29
DA:560,33
DA:561,29
DA:562,28
DA:563,27
DA:564,27
DA:565,27
DA:566,27
DA:567,26
DA:568,26
DA:569,26
DA:570,26
DA:571,26
DA:572,26
DA:573,26
DA:574,26
DA:575,26
DA:576,26
DA:577,26
DA:578,26
DA:579,26
DA:580,33
DA:581,9
DA:582,24
DA:583,33
DA:584,2
DA:585,31
DA:586,33
DA:587,2
DA:588,31
DA:589,33
DA:590,4
DA:591,29
DA:592,33
DA:593,32
DA:594,31
DA:595,3
DA:596,3
DA:597,30
DA:599,33
DA:601,33
DA:602,33
DA:603,33
DA:604,33
DA:605,33
DA:606,33
DA:607,33
DA:608,33
DA:609,33
DA:610,33
DA:611,33
DA:612,33
DA:613,33
DA:614,33
DA:617,33
DA:618,0
DA:619,0
DA:620,0
DA:621,0
DA:622,33
DA:623,0
DA:624,0
DA:625,0
DA:626,0
DA:627,33
DA:628,0
DA:629,0
DA:630,0
DA:631,33
DA:633,33
DA:634,46
BRF:0
BRH:0
LF:515
LH:464
end_of_record
SF:/Users/nick/Development/EttleX/EttleX-Project/Rust/crates/ettlex-core/src/diff/human_summary.rs
FN:9,_RNvNtNtCs4640luT8Huz_11ettlex_core4diff13human_summary20render_human_summary
FN:210,_RNvNtNtCs4640luT8Huz_11ettlex_core4diff13human_summary5short
FN:221,_RNvNtNtNtCsixIA6ROfhIR_11ettlex_core4diff13human_summary5tests4base
FN:250,_RNvNtNtNtCsixIA6ROfhIR_11ettlex_core4diff13human_summary5tests5bytes
FN:255,_RNvNtNtNtCsixIA6ROfhIR_11ettlex_core4diff13human_summary5testss_22test_summary_identical
FN:281,_RNvNtNtNtCsixIA6ROfhIR_11ettlex_core4diff13human_summary5testss_24test_summary_ept_changes
FN:482,_RNvNtNtNtCsixIA6ROfhIR_11ettlex_core4diff13human_summary5testss_27test_summary_family_removed
FN:354,_RNvNtNtNtCsixIA6ROfhIR_11ettlex_core4diff13human_summary5testss_29test_summary_coverage_changes
FN:392,_RNvNtNtNtCsixIA6ROfhIR_11ettlex_core4diff13human_summary5testss_29test_summary_metadata_changes
FN:452,_RNvNtNtNtCsixIA6ROfhIR_11ettlex_core4diff13human_summary5testss_29test_summary_ordering_changed
FN:373,_RNvNtNtNtCsixIA6ROfhIR_11ettlex_core4diff13human_summary5testss_30test_summary_exception_changes
FN:326,_RNvNtNtNtCsixIA6ROfhIR_11ettlex_core4diff13human_summary5testss_31test_summary_constraint_changes
FN:305,_RNvNtNtNtCsixIA6ROfhIR_11ettlex_core4diff13human_summary5testss_31test_summary_ep_content_changes
FN:264,_RNvNtNtNtCsixIA6ROfhIR_11ettlex_core4diff13human_summary5testss_31test_summary_no_semantic_change
FN:432,_RNvNtNtNtCsixIA6ROfhIR_11ettlex_core4diff13human_summary5testss_32test_summary_invariant_violation
FN:412,_RNvNtNtNtCsixIA6ROfhIR_11ettlex_core4diff13human_summary5testss_34test_summary_unknown_field_changes
FN:511,_RNvNtNtNtCsixIA6ROfhIR_11ettlex_core4diff13human_summary5testss_35test_summary_unknown_fields_removed
FN:9,_RNvNtNtCsixIA6ROfhIR_11ettlex_core4diff13human_summary20render_human_summary
FN:210,_RNvNtNtCsixIA6ROfhIR_11ettlex_core4diff13human_summary5short
FNDA:4,_RNvNtNtCs4640luT8Huz_11ettlex_core4diff13human_summary20render_human_summary
FNDA:24,_RNvNtNtCs4640luT8Huz_11ettlex_core4diff13human_summary5short
FNDA:25,_RNvNtNtNtCsixIA6ROfhIR_11ettlex_core4diff13human_summary5tests4base
FNDA:26,_RNvNtNtNtCsixIA6ROfhIR_11ettlex_core4diff13human_summary5tests5bytes
FNDA:1,_RNvNtNtNtCsixIA6ROfhIR_11ettlex_core4diff13human_summary5testss_22test_summary_identical
FNDA:1,_RNvNtNtNtCsixIA6ROfhIR_11ettlex_core4diff13human_summary5testss_24test_summary_ept_changes
FNDA:1,_RNvNtNtNtCsixIA6ROfhIR_11ettlex_core4diff13human_summary5testss_27test_summary_family_removed
FNDA:1,_RNvNtNtNtCsixIA6ROfhIR_11ettlex_core4diff13human_summary5testss_29test_summary_coverage_changes
FNDA:1,_RNvNtNtNtCsixIA6ROfhIR_11ettlex_core4diff13human_summary5testss_29test_summary_metadata_changes
FNDA:1,_RNvNtNtNtCsixIA6ROfhIR_11ettlex_core4diff13human_summary5testss_29test_summary_ordering_changed
FNDA:1,_RNvNtNtNtCsixIA6ROfhIR_11ettlex_core4diff13human_summary5testss_30test_summary_exception_changes
FNDA:1,_RNvNtNtNtCsixIA6ROfhIR_11ettlex_core4diff13human_summary5testss_31test_summary_constraint_changes
FNDA:1,_RNvNtNtNtCsixIA6ROfhIR_11ettlex_core4diff13human_summary5testss_31test_summary_ep_content_changes
FNDA:1,_RNvNtNtNtCsixIA6ROfhIR_11ettlex_core4diff13human_summary5testss_31test_summary_no_semantic_change
FNDA:1,_RNvNtNtNtCsixIA6ROfhIR_11ettlex_core4diff13human_summary5testss_32test_summary_invariant_violation
FNDA:1,_RNvNtNtNtCsixIA6ROfhIR_11ettlex_core4diff13human_summary5testss_34test_summary_unknown_field_changes
FNDA:1,_RNvNtNtNtCsixIA6ROfhIR_11ettlex_core4diff13human_summary5testss_35test_summary_unknown_fields_removed
FNDA:13,_RNvNtNtCsixIA6ROfhIR_11ettlex_core4diff13human_summary20render_human_summary
FNDA:122,_RNvNtNtCsixIA6ROfhIR_11ettlex_core4diff13human_summary5short
FNF:17
FNH:17
DA:9,17
DA:10,17
DA:13,17
DA:16,17
DA:17,3
DA:18,2
DA:19,12
DA:21,17
DA:22,5
DA:23,5
DA:24,6
DA:25,1
DA:27,17
DA:28,17
DA:29,17
DA:32,17
DA:33,17
DA:34,17
DA:35,17
DA:36,17
DA:37,17
DA:38,17
DA:39,17
DA:40,17
DA:41,17
DA:42,17
DA:43,17
DA:44,17
DA:46,12
DA:47,17
DA:50,5
DA:51,5
DA:52,12
DA:55,12
DA:56,2
DA:57,2
DA:58,1
DA:59,1
DA:60,1
DA:61,1
DA:62,1
DA:63,1
DA:64,2
DA:65,0
DA:66,0
DA:67,0
DA:68,0
DA:69,0
DA:70,2
DA:71,2
DA:72,1
DA:73,1
DA:74,2
DA:75,10
DA:78,12
DA:79,2
DA:80,2
DA:81,2
DA:82,2
DA:83,2
DA:84,10
DA:87,12
DA:88,12
DA:89,11
DA:90,10
DA:91,10
DA:92,12
DA:93,3
DA:94,3
DA:95,1
DA:96,1
DA:97,1
DA:98,1
DA:99,2
DA:100,3
DA:101,1
DA:102,1
DA:103,1
DA:104,1
DA:105,2
DA:106,3
DA:107,2
DA:108,1
DA:109,1
DA:110,1
DA:111,1
DA:112,0
DA:113,0
DA:114,0
DA:115,0
DA:116,0
DA:118,3
DA:119,9
DA:122,12
DA:123,1
DA:124,1
DA:125,11
DA:128,12
DA:129,1
DA:130,1
DA:131,1
DA:132,1
DA:133,1
DA:134,1
DA:135,1
DA:136,1
DA:137,1
DA:138,1
DA:139,1
DA:140,1
DA:141,1
DA:142,1
DA:143,11
DA:146,12
DA:147,1
DA:148,1
DA:149,1
DA:150,1
DA:151,1
DA:152,1
DA:153,1
DA:154,1
DA:155,11
DA:158,12
DA:159,12
DA:160,11
DA:162,2
DA:163,2
DA:164,0
DA:165,0
DA:166,0
DA:167,0
DA:168,2
DA:169,2
DA:170,1
DA:171,1
DA:172,1
DA:173,1
DA:174,1
DA:175,2
DA:176,1
DA:177,1
DA:178,1
DA:179,1
DA:180,1
DA:181,2
DA:182,10
DA:185,12
DA:186,11
DA:187,22
DA:188,22
DA:190,22
DA:191,22
DA:192,22
DA:193,22
DA:194,22
DA:195,22
DA:196,22
DA:197,22
DA:198,22
DA:199,22
DA:200,22
DA:203,11
DA:204,1
DA:206,12
DA:207,17
DA:210,146
DA:211,146
DA:212,146
DA:213,146
DA:221,25
DA:222,25
DA:223,25
DA:224,25
DA:225,25
DA:226,25
DA:227,25
DA:228,25
DA:229,25
DA:231,25
DA:232,25
DA:233,25
DA:234,25
DA:235,25
DA:236,25
DA:237,25
DA:239,25
DA:240,25
DA:241,25
DA:242,25
DA:243,25
DA:244,25
DA:245,25
DA:246,25
DA:248,25
DA:250,26
DA:251,26
DA:252,26
DA:255,1
DA:256,1
DA:257,1
DA:258,1
DA:259,1
DA:260,1
DA:261,1
DA:264,1
DA:265,1
DA:266,1
DA:267,1
DA:268,1
DA:269,1
DA:270,1
DA:271,1
DA:272,1
DA:273,1
DA:274,1
DA:275,1
DA:276,1
DA:277,1
DA:278,1
DA:281,1
DA:282,1
DA:283,1
DA:284,1
DA:285,1
DA:286,1
DA:287,1
DA:288,1
DA:289,1
DA:290,1
DA:291,1
DA:292,1
DA:293,1
DA:294,1
DA:295,1
DA:296,1
DA:298,1
DA:299,1
DA:300,1
DA:301,1
DA:302,1
DA:305,1
DA:306,1
DA:307,1
DA:308,1
DA:309,1
DA:310,1
DA:311,1
DA:312,1
DA:313,1
DA:314,1
DA:315,1
DA:316,1
DA:317,1
DA:318,1
DA:320,1
DA:321,1
DA:322,1
DA:323,1
DA:326,1
DA:327,1
DA:328,1
DA:329,1
DA:330,1
DA:331,1
DA:332,1
DA:333,1
DA:334,1
DA:335,1
DA:336,1
DA:337,1
DA:338,1
DA:339,1
DA:340,1
DA:341,1
DA:343,1
DA:344,1
DA:345,1
DA:346,1
DA:348,1
DA:349,1
DA:350,1
DA:351,1
DA:354,1
DA:355,1
DA:356,1
DA:357,1
DA:358,1
DA:359,1
DA:360,1
DA:361,1
DA:362,1
DA:363,1
DA:364,1
DA:365,1
DA:366,1
DA:367,1
DA:368,1
DA:369,1
DA:370,1
DA:373,1
DA:374,1
DA:375,1
DA:376,1
DA:377,1
DA:378,1
DA:379,1
DA:380,1
DA:381,1
DA:382,1
DA:383,1
DA:384,1
DA:385,1
DA:386,1
DA:387,1
DA:388,1
DA:389,1
DA:392,1
DA:393,1
DA:394,1
DA:395,1
DA:396,1
DA:397,1
DA:398,1
DA:399,1
DA:400,1
DA:401,1
DA:402,1
DA:403,1
DA:404,1
DA:405,1
DA:406,1
DA:407,1
DA:408,1
DA:409,1
DA:412,1
DA:413,1
DA:414,1
DA:415,1
DA:416,1
DA:417,1
DA:418,1
DA:419,1
DA:420,1
DA:421,1
DA:422,1
DA:423,1
DA:424,1
DA:425,1
DA:426,1
DA:427,1
DA:428,1
DA:429,1
DA:432,1
DA:433,1
DA:434,1
DA:435,1
DA:436,1
DA:437,1
DA:438,1
DA:439,1
DA:440,1
DA:441,1
DA:442,1
DA:443,1
DA:444,1
DA:445,1
DA:446,1
DA:447,1
DA:448,1
DA:449,1
DA:452,1
DA:453,1
DA:454,1
DA:455,1
DA:456,1
DA:457,1
DA:458,1
DA:459,1
DA:460,1
DA:461,1
DA:462,1
DA:463,1
DA:464,1
DA:465,1
DA:466,1
DA:467,1
DA:469,1
DA:470,1
DA:471,1
DA:472,1
DA:473,1
DA:475,1
DA:476,1
DA:477,1
DA:478,1
DA:479,1
DA:482,1
DA:483,1
DA:484,1
DA:485,1
DA:486,1
DA:487,1
DA:488,1
DA:489,1
DA:490,1
DA:491,1
DA:492,1
DA:493,1
DA:494,1
DA:495,1
DA:496,1
DA:497,1
DA:499,1
DA:500,1
DA:501,1
DA:502,1
DA:504,1
DA:505,1
DA:506,1
DA:507,1
DA:508,1
DA:511,1
DA:512,1
DA:513,1
DA:514,1
DA:515,1
DA:516,1
DA:517,1
DA:518,1
DA:519,1
DA:520,1
DA:521,1
DA:522,1
DA:523,1
DA:524,1
DA:525,1
DA:526,1
DA:527,1
BRF:0
BRH:0
LF:439
LH:424
end_of_record
SF:/Users/nick/Development/EttleX/EttleX-Project/Rust/crates/ettlex-core/src/errors.rs
FN:238,_RINvMs_NtCs4640luT8Huz_11ettlex_core6errorsNtB5_7ExError10with_ep_idRNtNtCs5bkkNO3hTYU_5alloc6string6StringECs5ZhMRgWBkZV_13ettlex_engine
FN:232,_RINvMs_NtCs4640luT8Huz_11ettlex_core6errorsNtB5_7ExError14with_entity_idRNtNtCs5bkkNO3hTYU_5alloc6string6StringECs5ZhMRgWBkZV_13ettlex_engine
FN:226,_RINvMs_NtCs4640luT8Huz_11ettlex_core6errorsNtB5_7ExError7with_opNtNtCs5bkkNO3hTYU_5alloc6string6StringECs3PiHhja6dWM_12ettlex_store
FN:238,_RINvMs_NtCs4640luT8Huz_11ettlex_core6errorsNtB5_7ExError10with_ep_idNtNtCs5bkkNO3hTYU_5alloc6string6StringEB7_
FN:238,_RINvMs_NtCs4640luT8Huz_11ettlex_core6errorsNtB5_7ExError10with_ep_idReEB7_
FN:262,_RINvMs_NtCs4640luT8Huz_11ettlex_core6errorsNtB5_7ExError12with_messageNtNtCs5bkkNO3hTYU_5alloc6string6StringEB7_
FN:262,_RINvMs_NtCs4640luT8Huz_11ettlex_core6errorsNtB5_7ExError12with_messageReEB7_
FN:232,_RINvMs_NtCs4640luT8Huz_11ettlex_core6errorsNtB5_7ExError14with_entity_idNtNtCs5bkkNO3hTYU_5alloc6string6StringEB7_
FN:232,_RINvMs_NtCs4640luT8Huz_11ettlex_core6errorsNtB5_7ExError14with_entity_idReEB7_
FN:226,_RINvMs_NtCs4640luT8Huz_11ettlex_core6errorsNtB5_7ExError7with_opReEB7_
FN:123,_RNvMNtCs4640luT8Huz_11ettlex_core6errorsNtB2_11ExErrorKind4code
FN:330,_RNvMs_NtCs4640luT8Huz_11ettlex_core6errorsNtB4_7ExError10candidates
FN:310,_RNvMs_NtCs4640luT8Huz_11ettlex_core6errorsNtB4_7ExError10request_id
FN:268,_RNvMs_NtCs4640luT8Huz_11ettlex_core6errorsNtB4_7ExError11with_source
FN:325,_RNvMs_NtCs4640luT8Huz_11ettlex_core6errorsNtB4_7ExError12source_error
FN:244,_RNvMs_NtCs4640luT8Huz_11ettlex_core6errorsNtB4_7ExError12with_ordinal
FN:256,_RNvMs_NtCs4640luT8Huz_11ettlex_core6errorsNtB4_7ExError13with_trace_id
FN:274,_RNvMs_NtCs4640luT8Huz_11ettlex_core6errorsNtB4_7ExError15with_candidates
FN:250,_RNvMs_NtCs4640luT8Huz_11ettlex_core6errorsNtB4_7ExError15with_request_id
FN:290,_RNvMs_NtCs4640luT8Huz_11ettlex_core6errorsNtB4_7ExError2op
FN:210,_RNvMs_NtCs4640luT8Huz_11ettlex_core6errorsNtB4_7ExError3new
FN:285,_RNvMs_NtCs4640luT8Huz_11ettlex_core6errorsNtB4_7ExError4code
FN:280,_RNvMs_NtCs4640luT8Huz_11ettlex_core6errorsNtB4_7ExError4kind
FN:300,_RNvMs_NtCs4640luT8Huz_11ettlex_core6errorsNtB4_7ExError5ep_id
FN:320,_RNvMs_NtCs4640luT8Huz_11ettlex_core6errorsNtB4_7ExError7message
FN:305,_RNvMs_NtCs4640luT8Huz_11ettlex_core6errorsNtB4_7ExError7ordinal
FN:315,_RNvMs_NtCs4640luT8Huz_11ettlex_core6errorsNtB4_7ExError8trace_id
FN:295,_RNvMs_NtCs4640luT8Huz_11ettlex_core6errorsNtB4_7ExError9entity_id
FN:336,_RNvXs0_NtCs4640luT8Huz_11ettlex_core6errorsNtB5_7ExErrorNtNtCsezyhsC6CBT9_4core3fmt7Display3fmt
FN:358,_RNvXs1_NtCs4640luT8Huz_11ettlex_core6errorsNtB5_7ExErrorNtNtCsezyhsC6CBT9_4core5error5Error6source
FN:665,_RNvXs2_NtCs4640luT8Huz_11ettlex_core6errorsNtB5_7ExErrorINtNtCsezyhsC6CBT9_4core7convert4FromNtB5_11EttleXErrorE4from
FN:1053,_RNvXs3_NtCs4640luT8Huz_11ettlex_core6errorsNtB5_11EttleXErrorINtNtCsezyhsC6CBT9_4core7convert4FromNtNtCsfvPug1IPAsx_10serde_json5error5ErrorE4from
FN:1636,_RNvNtNtCsixIA6ROfhIR_11ettlex_core6errors5testss_23test_ex_error_accessors
FN:1200,_RNvNtNtCsixIA6ROfhIR_11ettlex_core6errors5testss_28test_bridge_deleted_variants
FN:1109,_RNvNtNtCsixIA6ROfhIR_11ettlex_core6errors5testss_28test_policy_error_kind_codes
FN:1549,_RNvNtNtCsixIA6ROfhIR_11ettlex_core6errors5testss_29test_bridge_decision_variants
FN:1521,_RNvNtNtCsixIA6ROfhIR_11ettlex_core6errors5testss_29test_bridge_internal_variants
FN:1452,_RNvNtNtCsixIA6ROfhIR_11ettlex_core6errors5testss_29test_bridge_mutation_variants
FN:1132,_RNvNtNtCsixIA6ROfhIR_11ettlex_core6errors5testss_30test_bridge_not_found_variants
FN:1410,_RNvNtNtCsixIA6ROfhIR_11ettlex_core6errors5testss_30test_bridge_traversal_variants
FN:1094,_RNvNtNtCsixIA6ROfhIR_11ettlex_core6errors5testss_30test_ex_error_candidates_field
FN:1243,_RNvNtNtCsixIA6ROfhIR_11ettlex_core6errors5testss_31test_bridge_constraint_variants
FN:1278,_RNvNtNtCsixIA6ROfhIR_11ettlex_core6errors5testss_31test_bridge_validation_variants
FN:1598,_RNvNtNtCsixIA6ROfhIR_11ettlex_core6errors5testss_32test_bridge_empty_update_variant
FN:1659,_RNvNtNtCsixIA6ROfhIR_11ettlex_core6errors5testss_32test_error_kind_codes_structural
FN:1608,_RNvNtNtCsixIA6ROfhIR_11ettlex_core6errors5testss_33test_bridge_from_serde_json_error
FN:1085,_RNvNtNtCsixIA6ROfhIR_11ettlex_core6errors5testss_34test_root_ettle_invalid_error_code
FN:1065,_RNvNtNtCsixIA6ROfhIR_11ettlex_core6errors5testss_35test_commit_policy_error_kind_codes
FN:1619,_RNvNtNtCsixIA6ROfhIR_11ettlex_core6errors5testss_37test_ex_error_display_with_all_fields
FN:1102,_RNvNtNtCsixIA6ROfhIR_11ettlex_core6errors5testss_40test_ex_error_candidates_none_by_default
FN:1330,_RNvNtNtCsixIA6ROfhIR_11ettlex_core6errors5testss_41test_bridge_constraint_violation_variants
FN:123,_RNvMNtCsixIA6ROfhIR_11ettlex_core6errorsNtB2_11ExErrorKind4code
FN:330,_RNvMs_NtCsixIA6ROfhIR_11ettlex_core6errorsNtB4_7ExError10candidates
FN:310,_RNvMs_NtCsixIA6ROfhIR_11ettlex_core6errorsNtB4_7ExError10request_id
FN:268,_RNvMs_NtCsixIA6ROfhIR_11ettlex_core6errorsNtB4_7ExError11with_source
FN:325,_RNvMs_NtCsixIA6ROfhIR_11ettlex_core6errorsNtB4_7ExError12source_error
FN:244,_RNvMs_NtCsixIA6ROfhIR_11ettlex_core6errorsNtB4_7ExError12with_ordinal
FN:256,_RNvMs_NtCsixIA6ROfhIR_11ettlex_core6errorsNtB4_7ExError13with_trace_id
FN:274,_RNvMs_NtCsixIA6ROfhIR_11ettlex_core6errorsNtB4_7ExError15with_candidates
FN:250,_RNvMs_NtCsixIA6ROfhIR_11ettlex_core6errorsNtB4_7ExError15with_request_id
FN:290,_RNvMs_NtCsixIA6ROfhIR_11ettlex_core6errorsNtB4_7ExError2op
FN:210,_RNvMs_NtCsixIA6ROfhIR_11ettlex_core6errorsNtB4_7ExError3new
FN:285,_RNvMs_NtCsixIA6ROfhIR_11ettlex_core6errorsNtB4_7ExError4code
FN:280,_RNvMs_NtCsixIA6ROfhIR_11ettlex_core6errorsNtB4_7ExError4kind
FN:300,_RNvMs_NtCsixIA6ROfhIR_11ettlex_core6errorsNtB4_7ExError5ep_id
FN:320,_RNvMs_NtCsixIA6ROfhIR_11ettlex_core6errorsNtB4_7ExError7message
FN:305,_RNvMs_NtCsixIA6ROfhIR_11ettlex_core6errorsNtB4_7ExError7ordinal
FN:315,_RNvMs_NtCsixIA6ROfhIR_11ettlex_core6errorsNtB4_7ExError8trace_id
FN:295,_RNvMs_NtCsixIA6ROfhIR_11ettlex_core6errorsNtB4_7ExError9entity_id
FN:336,_RNvXs0_NtCsixIA6ROfhIR_11ettlex_core6errorsNtB5_7ExErrorNtNtCsezyhsC6CBT9_4core3fmt7Display3fmt
FN:358,_RNvXs1_NtCsixIA6ROfhIR_11ettlex_core6errorsNtB5_7ExErrorNtNtCsezyhsC6CBT9_4core5error5Error6source
FN:665,_RNvXs2_NtCsixIA6ROfhIR_11ettlex_core6errorsNtB5_7ExErrorINtNtCsezyhsC6CBT9_4core7convert4FromNtB5_11EttleXErrorE4from
FN:1053,_RNvXs3_NtCsixIA6ROfhIR_11ettlex_core6errorsNtB5_11EttleXErrorINtNtCsezyhsC6CBT9_4core7convert4FromNtNtCsfvPug1IPAsx_10serde_json5error5ErrorE4from
FN:238,_RINvMs_NtCsixIA6ROfhIR_11ettlex_core6errorsNtB5_7ExError10with_ep_idNtNtCs5bkkNO3hTYU_5alloc6string6StringEB7_
FN:238,_RINvMs_NtCsixIA6ROfhIR_11ettlex_core6errorsNtB5_7ExError10with_ep_idReEB7_
FN:262,_RINvMs_NtCsixIA6ROfhIR_11ettlex_core6errorsNtB5_7ExError12with_messageNtNtCs5bkkNO3hTYU_5alloc6string6StringEB7_
FN:262,_RINvMs_NtCsixIA6ROfhIR_11ettlex_core6errorsNtB5_7ExError12with_messageReEB7_
FN:232,_RINvMs_NtCsixIA6ROfhIR_11ettlex_core6errorsNtB5_7ExError14with_entity_idNtNtCs5bkkNO3hTYU_5alloc6string6StringEB7_
FN:232,_RINvMs_NtCsixIA6ROfhIR_11ettlex_core6errorsNtB5_7ExError14with_entity_idReEB7_
FN:226,_RINvMs_NtCsixIA6ROfhIR_11ettlex_core6errorsNtB5_7ExError7with_opReEB7_
FN:226,_RINvMs_NtCs4640luT8Huz_11ettlex_core6errorsNtB5_7ExError7with_opNtNtCs5bkkNO3hTYU_5alloc6string6StringECsiIWUB9x025h_12ettlex_store
FNDA:4,_RINvMs_NtCs4640luT8Huz_11ettlex_core6errorsNtB5_7ExError10with_ep_idRNtNtCs5bkkNO3hTYU_5alloc6string6StringECs5ZhMRgWBkZV_13ettlex_engine
FNDA:7,_RINvMs_NtCs4640luT8Huz_11ettlex_core6errorsNtB5_7ExError14with_entity_idRNtNtCs5bkkNO3hTYU_5alloc6string6StringECs5ZhMRgWBkZV_13ettlex_engine
FNDA:1,_RINvMs_NtCs4640luT8Huz_11ettlex_core6errorsNtB5_7ExError7with_opNtNtCs5bkkNO3hTYU_5alloc6string6StringECs3PiHhja6dWM_12ettlex_store
FNDA:5,_RINvMs_NtCs4640luT8Huz_11ettlex_core6errorsNtB5_7ExError10with_ep_idNtNtCs5bkkNO3hTYU_5alloc6string6StringEB7_
FNDA:7,_RINvMs_NtCs4640luT8Huz_11ettlex_core6errorsNtB5_7ExError10with_ep_idReEB7_
FNDA:54,_RINvMs_NtCs4640luT8Huz_11ettlex_core6errorsNtB5_7ExError12with_messageNtNtCs5bkkNO3hTYU_5alloc6string6StringEB7_
FNDA:78,_RINvMs_NtCs4640luT8Huz_11ettlex_core6errorsNtB5_7ExError12with_messageReEB7_
FNDA:32,_RINvMs_NtCs4640luT8Huz_11ettlex_core6errorsNtB5_7ExError14with_entity_idNtNtCs5bkkNO3hTYU_5alloc6string6StringEB7_
FNDA:37,_RINvMs_NtCs4640luT8Huz_11ettlex_core6errorsNtB5_7ExError14with_entity_idReEB7_
FNDA:65,_RINvMs_NtCs4640luT8Huz_11ettlex_core6errorsNtB5_7ExError7with_opReEB7_
FNDA:121,_RNvMNtCs4640luT8Huz_11ettlex_core6errorsNtB2_11ExErrorKind4code
FNDA:1,_RNvMs_NtCs4640luT8Huz_11ettlex_core6errorsNtB4_7ExError10candidates
FNDA:1,_RNvMs_NtCs4640luT8Huz_11ettlex_core6errorsNtB4_7ExError10request_id
FNDA:0,_RNvMs_NtCs4640luT8Huz_11ettlex_core6errorsNtB4_7ExError11with_source
FNDA:0,_RNvMs_NtCs4640luT8Huz_11ettlex_core6errorsNtB4_7ExError12source_error
FNDA:2,_RNvMs_NtCs4640luT8Huz_11ettlex_core6errorsNtB4_7ExError12with_ordinal
FNDA:0,_RNvMs_NtCs4640luT8Huz_11ettlex_core6errorsNtB4_7ExError13with_trace_id
FNDA:2,_RNvMs_NtCs4640luT8Huz_11ettlex_core6errorsNtB4_7ExError15with_candidates
FNDA:1,_RNvMs_NtCs4640luT8Huz_11ettlex_core6errorsNtB4_7ExError15with_request_id
FNDA:1,_RNvMs_NtCs4640luT8Huz_11ettlex_core6errorsNtB4_7ExError2op
FNDA:132,_RNvMs_NtCs4640luT8Huz_11ettlex_core6errorsNtB4_7ExError3new
FNDA:48,_RNvMs_NtCs4640luT8Huz_11ettlex_core6errorsNtB4_7ExError4code
FNDA:114,_RNvMs_NtCs4640luT8Huz_11ettlex_core6errorsNtB4_7ExError4kind
FNDA:2,_RNvMs_NtCs4640luT8Huz_11ettlex_core6errorsNtB4_7ExError5ep_id
FNDA:4,_RNvMs_NtCs4640luT8Huz_11ettlex_core6errorsNtB4_7ExError7message
FNDA:1,_RNvMs_NtCs4640luT8Huz_11ettlex_core6errorsNtB4_7ExError7ordinal
FNDA:0,_RNvMs_NtCs4640luT8Huz_11ettlex_core6errorsNtB4_7ExError8trace_id
FNDA:6,_RNvMs_NtCs4640luT8Huz_11ettlex_core6errorsNtB4_7ExError9entity_id
FNDA:25,_RNvXs0_NtCs4640luT8Huz_11ettlex_core6errorsNtB5_7ExErrorNtNtCsezyhsC6CBT9_4core3fmt7Display3fmt
FNDA:0,_RNvXs1_NtCs4640luT8Huz_11ettlex_core6errorsNtB5_7ExErrorNtNtCsezyhsC6CBT9_4core5error5Error6source
FNDA:34,_RNvXs2_NtCs4640luT8Huz_11ettlex_core6errorsNtB5_7ExErrorINtNtCsezyhsC6CBT9_4core7convert4FromNtB5_11EttleXErrorE4from
FNDA:0,_RNvXs3_NtCs4640luT8Huz_11ettlex_core6errorsNtB5_11EttleXErrorINtNtCsezyhsC6CBT9_4core7convert4FromNtNtCsfvPug1IPAsx_10serde_json5error5ErrorE4from
FNDA:1,_RNvNtNtCsixIA6ROfhIR_11ettlex_core6errors5testss_23test_ex_error_accessors
FNDA:1,_RNvNtNtCsixIA6ROfhIR_11ettlex_core6errors5testss_28test_bridge_deleted_variants
FNDA:1,_RNvNtNtCsixIA6ROfhIR_11ettlex_core6errors5testss_28test_policy_error_kind_codes
FNDA:1,_RNvNtNtCsixIA6ROfhIR_11ettlex_core6errors5testss_29test_bridge_decision_variants
FNDA:1,_RNvNtNtCsixIA6ROfhIR_11ettlex_core6errors5testss_29test_bridge_internal_variants
FNDA:1,_RNvNtNtCsixIA6ROfhIR_11ettlex_core6errors5testss_29test_bridge_mutation_variants
FNDA:1,_RNvNtNtCsixIA6ROfhIR_11ettlex_core6errors5testss_30test_bridge_not_found_variants
FNDA:1,_RNvNtNtCsixIA6ROfhIR_11ettlex_core6errors5testss_30test_bridge_traversal_variants
FNDA:1,_RNvNtNtCsixIA6ROfhIR_11ettlex_core6errors5testss_30test_ex_error_candidates_field
FNDA:1,_RNvNtNtCsixIA6ROfhIR_11ettlex_core6errors5testss_31test_bridge_constraint_variants
FNDA:1,_RNvNtNtCsixIA6ROfhIR_11ettlex_core6errors5testss_31test_bridge_validation_variants
FNDA:1,_RNvNtNtCsixIA6ROfhIR_11ettlex_core6errors5testss_32test_bridge_empty_update_variant
FNDA:1,_RNvNtNtCsixIA6ROfhIR_11ettlex_core6errors5testss_32test_error_kind_codes_structural
FNDA:1,_RNvNtNtCsixIA6ROfhIR_11ettlex_core6errors5testss_33test_bridge_from_serde_json_error
FNDA:1,_RNvNtNtCsixIA6ROfhIR_11ettlex_core6errors5testss_34test_root_ettle_invalid_error_code
FNDA:1,_RNvNtNtCsixIA6ROfhIR_11ettlex_core6errors5testss_35test_commit_policy_error_kind_codes
FNDA:1,_RNvNtNtCsixIA6ROfhIR_11ettlex_core6errors5testss_37test_ex_error_display_with_all_fields
FNDA:1,_RNvNtNtCsixIA6ROfhIR_11ettlex_core6errors5testss_40test_ex_error_candidates_none_by_default
FNDA:1,_RNvNtNtCsixIA6ROfhIR_11ettlex_core6errors5testss_41test_bridge_constraint_violation_variants
FNDA:64,_RNvMNtCsixIA6ROfhIR_11ettlex_core6errorsNtB2_11ExErrorKind4code
FNDA:2,_RNvMs_NtCsixIA6ROfhIR_11ettlex_core6errorsNtB4_7ExError10candidates
FNDA:1,_RNvMs_NtCsixIA6ROfhIR_11ettlex_core6errorsNtB4_7ExError10request_id
FNDA:1,_RNvMs_NtCsixIA6ROfhIR_11ettlex_core6errorsNtB4_7ExError11with_source
FNDA:1,_RNvMs_NtCsixIA6ROfhIR_11ettlex_core6errorsNtB4_7ExError12source_error
FNDA:5,_RNvMs_NtCsixIA6ROfhIR_11ettlex_core6errorsNtB4_7ExError12with_ordinal
FNDA:1,_RNvMs_NtCsixIA6ROfhIR_11ettlex_core6errorsNtB4_7ExError13with_trace_id
FNDA:1,_RNvMs_NtCsixIA6ROfhIR_11ettlex_core6errorsNtB4_7ExError15with_candidates
FNDA:1,_RNvMs_NtCsixIA6ROfhIR_11ettlex_core6errorsNtB4_7ExError15with_request_id
FNDA:1,_RNvMs_NtCsixIA6ROfhIR_11ettlex_core6errorsNtB4_7ExError2op
FNDA:73,_RNvMs_NtCsixIA6ROfhIR_11ettlex_core6errorsNtB4_7ExError3new
FNDA:2,_RNvMs_NtCsixIA6ROfhIR_11ettlex_core6errorsNtB4_7ExError4code
FNDA:68,_RNvMs_NtCsixIA6ROfhIR_11ettlex_core6errorsNtB4_7ExError4kind
FNDA:2,_RNvMs_NtCsixIA6ROfhIR_11ettlex_core6errorsNtB4_7ExError5ep_id
FNDA:1,_RNvMs_NtCsixIA6ROfhIR_11ettlex_core6errorsNtB4_7ExError7message
FNDA:1,_RNvMs_NtCsixIA6ROfhIR_11ettlex_core6errorsNtB4_7ExError7ordinal
FNDA:1,_RNvMs_NtCsixIA6ROfhIR_11ettlex_core6errorsNtB4_7ExError8trace_id
FNDA:1,_RNvMs_NtCsixIA6ROfhIR_11ettlex_core6errorsNtB4_7ExError9entity_id
FNDA:1,_RNvXs0_NtCsixIA6ROfhIR_11ettlex_core6errorsNtB5_7ExErrorNtNtCsezyhsC6CBT9_4core3fmt7Display3fmt
FNDA:1,_RNvXs1_NtCsixIA6ROfhIR_11ettlex_core6errorsNtB5_7ExErrorNtNtCsezyhsC6CBT9_4core5error5Error6source
FNDA:61,_RNvXs2_NtCsixIA6ROfhIR_11ettlex_core6errorsNtB5_7ExErrorINtNtCsezyhsC6CBT9_4core7convert4FromNtB5_11EttleXErrorE4from
FNDA:1,_RNvXs3_NtCsixIA6ROfhIR_11ettlex_core6errorsNtB5_11EttleXErrorINtNtCsezyhsC6CBT9_4core7convert4FromNtNtCsfvPug1IPAsx_10serde_json5error5ErrorE4from
FNDA:19,_RINvMs_NtCsixIA6ROfhIR_11ettlex_core6errorsNtB5_7ExError10with_ep_idNtNtCs5bkkNO3hTYU_5alloc6string6StringEB7_
FNDA:2,_RINvMs_NtCsixIA6ROfhIR_11ettlex_core6errorsNtB5_7ExError10with_ep_idReEB7_
FNDA:30,_RINvMs_NtCsixIA6ROfhIR_11ettlex_core6errorsNtB5_7ExError12with_messageNtNtCs5bkkNO3hTYU_5alloc6string6StringEB7_
FNDA:40,_RINvMs_NtCsixIA6ROfhIR_11ettlex_core6errorsNtB5_7ExError12with_messageReEB7_
FNDA:36,_RINvMs_NtCsixIA6ROfhIR_11ettlex_core6errorsNtB5_7ExError14with_entity_idNtNtCs5bkkNO3hTYU_5alloc6string6StringEB7_
FNDA:3,_RINvMs_NtCsixIA6ROfhIR_11ettlex_core6errorsNtB5_7ExError14with_entity_idReEB7_
FNDA:3,_RINvMs_NtCsixIA6ROfhIR_11ettlex_core6errorsNtB5_7ExError7with_opReEB7_
FNDA:1,_RINvMs_NtCs4640luT8Huz_11ettlex_core6errorsNtB5_7ExError7with_opNtNtCs5bkkNO3hTYU_5alloc6string6StringECsiIWUB9x025h_12ettlex_store
FNF:45
FNH:45
DA:123,185
DA:124,185
DA:125,12
DA:126,4
DA:127,4
DA:128,15
DA:129,4
DA:130,3
DA:131,3
DA:132,5
DA:133,3
DA:134,2
DA:135,2
DA:136,2
DA:137,3
DA:138,2
DA:139,3
DA:140,3
DA:141,5
DA:142,4
DA:143,1
DA:144,1
DA:145,1
DA:146,1
DA:147,1
DA:148,1
DA:149,7
DA:150,1
DA:151,4
DA:152,4
DA:153,1
DA:154,1
DA:155,1
DA:156,1
DA:157,6
DA:158,3
DA:159,3
DA:160,6
DA:161,4
DA:162,4
DA:163,7
DA:164,1
DA:165,1
DA:166,1
DA:167,16
DA:168,1
DA:169,1
DA:170,1
DA:171,1
DA:172,1
DA:173,1
DA:174,4
DA:175,1
DA:176,4
DA:177,3
DA:178,1
DA:179,1
DA:180,1
DA:181,1
DA:182,1
DA:183,1
DA:184,1
DA:185,3
DA:187,185
DA:210,205
DA:211,205
DA:212,205
DA:213,205
DA:214,205
DA:215,205
DA:216,205
DA:217,205
DA:218,205
DA:219,205
DA:220,205
DA:221,205
DA:222,205
DA:223,205
DA:226,70
DA:227,70
DA:228,70
DA:229,70
DA:232,115
DA:233,115
DA:234,115
DA:235,115
DA:238,37
DA:239,37
DA:240,37
DA:241,37
DA:244,7
DA:245,7
DA:246,7
DA:247,7
DA:250,2
DA:251,2
DA:252,2
DA:253,2
DA:256,1
DA:257,1
DA:258,1
DA:259,1
DA:262,202
DA:263,202
DA:264,202
DA:265,202
DA:268,1
DA:269,1
DA:270,1
DA:271,1
DA:274,3
DA:275,3
DA:276,3
DA:277,3
DA:280,182
DA:281,182
DA:282,182
DA:285,50
DA:286,50
DA:287,50
DA:290,2
DA:291,2
DA:292,2
DA:295,7
DA:296,7
DA:297,7
DA:300,4
DA:301,4
DA:302,4
DA:305,2
DA:306,2
DA:307,2
DA:310,2
DA:311,2
DA:312,2
DA:315,1
DA:316,1
DA:317,1
DA:320,5
DA:321,5
DA:322,5
DA:325,1
DA:326,1
DA:327,1
DA:330,3
DA:331,3
DA:332,3
DA:336,26
DA:337,26
DA:338,26
DA:339,15
DA:340,11
DA:341,26
DA:342,26
DA:343,0
DA:344,26
DA:345,15
DA:346,11
DA:347,26
DA:348,4
DA:349,22
DA:350,26
DA:351,1
DA:352,25
DA:353,26
DA:354,26
DA:358,1
DA:359,1
DA:360,1
DA:665,95
DA:666,95
DA:668,1
DA:669,1
DA:670,1
DA:671,1
DA:673,3
DA:674,3
DA:675,3
DA:677,3
DA:678,3
DA:679,3
DA:682,1
DA:683,1
DA:684,1
DA:685,1
DA:686,1
DA:689,2
DA:690,2
DA:691,2
DA:693,1
DA:694,1
DA:695,1
DA:697,2
DA:698,2
DA:699,2
DA:700,2
DA:703,1
DA:704,1
DA:705,1
DA:707,3
DA:708,3
DA:709,3
DA:710,3
DA:713,3
DA:714,3
DA:715,3
DA:716,3
DA:719,3
DA:720,3
DA:721,3
DA:722,3
DA:726,3
DA:727,3
DA:728,3
DA:729,3
DA:730,3
DA:731,3
DA:734,1
DA:735,1
DA:736,1
DA:737,1
DA:738,1
DA:739,1
DA:741,1
DA:742,1
DA:743,1
DA:745,1
DA:746,1
DA:747,1
DA:748,1
DA:752,2
DA:753,2
DA:756,1
DA:757,1
DA:758,1
DA:760,1
DA:761,1
DA:762,1
DA:765,2
DA:766,2
DA:767,2
DA:768,2
DA:769,2
DA:773,1
DA:774,1
DA:775,1
DA:776,1
DA:777,1
DA:778,1
DA:779,1
DA:784,1
DA:785,1
DA:788,2
DA:789,2
DA:790,2
DA:793,3
DA:794,3
DA:795,3
DA:799,1
DA:800,1
DA:801,1
DA:802,1
DA:803,1
DA:805,2
DA:806,2
DA:807,2
DA:808,2
DA:809,2
DA:812,1
DA:813,1
DA:814,1
DA:815,1
DA:818,1
DA:819,1
DA:820,1
DA:821,1
DA:825,1
DA:826,1
DA:827,1
DA:828,1
DA:829,1
DA:830,1
DA:835,1
DA:836,1
DA:837,1
DA:838,1
DA:844,1
DA:845,1
DA:846,1
DA:847,1
DA:850,1
DA:851,1
DA:852,1
DA:853,1
DA:859,1
DA:860,1
DA:861,1
DA:862,1
DA:866,2
DA:867,2
DA:868,2
DA:869,2
DA:873,2
DA:874,2
DA:875,2
DA:876,2
DA:880,1
DA:881,1
DA:882,1
DA:883,1
DA:884,1
DA:887,1
DA:888,1
DA:889,1
DA:890,1
DA:891,1
DA:893,3
DA:894,3
DA:895,3
DA:896,3
DA:899,1
DA:900,1
DA:901,1
DA:902,1
DA:903,1
DA:908,4
DA:909,4
DA:910,4
DA:911,4
DA:912,4
DA:914,1
DA:915,1
DA:916,1
DA:917,1
DA:920,1
DA:921,1
DA:922,1
DA:923,1
DA:925,1
DA:926,1
DA:927,1
DA:928,1
DA:931,1
DA:932,1
DA:933,1
DA:934,1
DA:935,1
DA:939,2
DA:940,2
DA:941,2
DA:942,2
DA:949,2
DA:950,2
DA:953,1
DA:954,1
DA:955,1
DA:956,1
DA:957,1
DA:958,1
DA:959,1
DA:963,1
DA:964,1
DA:965,1
DA:966,1
DA:967,1
DA:970,1
DA:971,1
DA:974,2
DA:975,2
DA:978,1
DA:979,1
DA:980,1
DA:983,5
DA:984,5
DA:985,5
DA:987,1
DA:988,1
DA:989,1
DA:991,1
DA:992,1
DA:994,1
DA:995,1
DA:997,1
DA:998,1
DA:999,1
DA:1002,1
DA:1003,1
DA:1004,1
DA:1005,1
DA:1009,1
DA:1010,1
DA:1011,1
DA:1012,1
DA:1013,1
DA:1014,1
DA:1015,1
DA:1021,1
DA:1022,1
DA:1023,1
DA:1024,1
DA:1025,1
DA:1026,1
DA:1027,1
DA:1032,1
DA:1033,1
DA:1034,1
DA:1037,1
DA:1038,1
DA:1039,1
DA:1040,1
DA:1044,1
DA:1045,1
DA:1046,1
DA:1048,95
DA:1053,1
DA:1054,1
DA:1055,1
DA:1056,1
DA:1057,1
DA:1065,1
DA:1066,1
DA:1067,1
DA:1068,1
DA:1069,1
DA:1070,1
DA:1071,1
DA:1072,1
DA:1073,1
DA:1074,1
DA:1075,1
DA:1076,1
DA:1077,1
DA:1078,7
DA:1079,7
DA:1081,1
DA:1085,1
DA:1086,1
DA:1087,1
DA:1090,1
DA:1094,1
DA:1095,1
DA:1096,1
DA:1097,1
DA:1098,1
DA:1099,1
DA:1102,1
DA:1103,1
DA:1104,1
DA:1105,1
DA:1109,1
DA:1110,1
DA:1111,1
DA:1112,1
DA:1115,1
DA:1116,1
DA:1119,1
DA:1120,1
DA:1123,1
DA:1124,1
DA:1127,1
DA:1132,1
DA:1133,1
DA:1134,1
DA:1135,1
DA:1136,1
DA:1137,1
DA:1138,1
DA:1139,1
DA:1140,1
DA:1141,1
DA:1142,1
DA:1143,1
DA:1144,1
DA:1145,1
DA:1146,1
DA:1147,1
DA:1148,1
DA:1149,1
DA:1150,1
DA:1151,1
DA:1152,1
DA:1153,1
DA:1154,1
DA:1155,1
DA:1156,1
DA:1157,1
DA:1158,1
DA:1159,1
DA:1160,1
DA:1161,1
DA:1162,1
DA:1163,1
DA:1164,1
DA:1165,1
DA:1166,1
DA:1167,1
DA:1168,1
DA:1169,1
DA:1170,1
DA:1171,1
DA:1172,1
DA:1173,1
DA:1174,1
DA:1175,1
DA:1176,1
DA:1177,1
DA:1178,1
DA:1179,1
DA:1180,1
DA:1181,1
DA:1182,1
DA:1183,1
DA:1184,1
DA:1185,1
DA:1186,1
DA:1187,1
DA:1188,1
DA:1189,1
DA:1190,1
DA:1191,1
DA:1193,9
DA:1194,9
DA:1195,9
DA:1197,1
DA:1200,1
DA:1201,1
DA:1202,1
DA:1203,1
DA:1204,1
DA:1205,1
DA:1206,1
DA:1207,1
DA:1208,1
DA:1209,1
DA:1210,1
DA:1211,1
DA:1212,1
DA:1213,1
DA:1214,1
DA:1215,1
DA:1216,1
DA:1217,1
DA:1218,1
DA:1219,1
DA:1220,1
DA:1221,1
DA:1222,1
DA:1223,1
DA:1224,1
DA:1225,1
DA:1226,1
DA:1227,1
DA:1228,1
DA:1229,1
DA:1230,1
DA:1231,1
DA:1232,1
DA:1233,1
DA:1234,1
DA:1236,6
DA:1237,6
DA:1238,6
DA:1240,1
DA:1243,1
DA:1244,1
DA:1245,1
DA:1246,1
DA:1247,1
DA:1248,1
DA:1249,1
DA:1250,1
DA:1251,1
DA:1252,1
DA:1253,1
DA:1254,1
DA:1255,1
DA:1256,1
DA:1257,1
DA:1258,1
DA:1259,1
DA:1260,1
DA:1261,1
DA:1262,1
DA:1263,1
DA:1264,1
DA:1265,1
DA:1266,1
DA:1267,1
DA:1268,1
DA:1269,1
DA:1271,4
DA:1272,4
DA:1273,4
DA:1275,1
DA:1278,1
DA:1279,1
DA:1280,1
DA:1281,1
DA:1282,1
DA:1283,1
DA:1284,1
DA:1285,1
DA:1286,1
DA:1287,1
DA:1288,1
DA:1289,1
DA:1290,1
DA:1291,1
DA:1292,1
DA:1293,1
DA:1294,1
DA:1295,1
DA:1296,1
DA:1297,1
DA:1298,1
DA:1299,1
DA:1300,1
DA:1301,1
DA:1302,1
DA:1303,1
DA:1304,1
DA:1305,1
DA:1306,1
DA:1307,1
DA:1308,1
DA:1309,1
DA:1310,1
DA:1311,1
DA:1312,1
DA:1313,1
DA:1314,1
DA:1315,1
DA:1316,1
DA:1317,1
DA:1318,1
DA:1319,1
DA:1320,1
DA:1321,1
DA:1323,8
DA:1324,8
DA:1325,8
DA:1327,1
DA:1330,1
DA:1331,1
DA:1332,1
DA:1333,1
DA:1334,1
DA:1335,1
DA:1336,1
DA:1337,1
DA:1338,1
DA:1339,1
DA:1340,1
DA:1341,1
DA:1342,1
DA:1343,1
DA:1344,1
DA:1345,1
DA:1346,1
DA:1347,1
DA:1348,1
DA:1349,1
DA:1350,1
DA:1351,1
DA:1352,1
DA:1353,1
DA:1354,1
DA:1355,1
DA:1356,1
DA:1357,1
DA:1358,1
DA:1359,1
DA:1360,1
DA:1361,1
DA:1362,1
DA:1363,1
DA:1364,1
DA:1365,1
DA:1366,1
DA:1367,1
DA:1368,1
DA:1369,1
DA:1370,1
DA:1371,1
DA:1372,1
DA:1373,1
DA:1374,1
DA:1375,1
DA:1376,1
DA:1377,1
DA:1378,1
DA:1379,1
DA:1380,1
DA:1381,1
DA:1382,1
DA:1383,1
DA:1384,1
DA:1385,1
DA:1386,1
DA:1387,1
DA:1388,1
DA:1389,1
DA:1390,1
DA:1391,1
DA:1392,1
DA:1393,1
DA:1394,1
DA:1395,1
DA:1396,1
DA:1397,1
DA:1398,1
DA:1399,1
DA:1400,1
DA:1401,1
DA:1403,10
DA:1404,10
DA:1405,10
DA:1407,1
DA:1410,1
DA:1411,1
DA:1412,1
DA:1413,1
DA:1414,1
DA:1415,1
DA:1416,1
DA:1417,1
DA:1418,1
DA:1419,1
DA:1420,1
DA:1421,1
DA:1422,1
DA:1423,1
DA:1424,1
DA:1425,1
DA:1426,1
DA:1427,1
DA:1428,1
DA:1429,1
DA:1430,1
DA:1431,1
DA:1432,1
DA:1433,1
DA:1434,1
DA:1435,1
DA:1436,1
DA:1437,1
DA:1438,1
DA:1439,1
DA:1440,1
DA:1441,1
DA:1442,1
DA:1443,1
DA:1445,5
DA:1446,5
DA:1447,5
DA:1449,1
DA:1452,1
DA:1453,1
DA:1454,1
DA:1455,1
DA:1456,1
DA:1457,1
DA:1458,1
DA:1459,1
DA:1460,1
DA:1461,1
DA:1462,1
DA:1463,1
DA:1464,1
DA:1465,1
DA:1466,1
DA:1467,1
DA:1468,1
DA:1469,1
DA:1470,1
DA:1471,1
DA:1472,1
DA:1473,1
DA:1474,1
DA:1475,1
DA:1476,1
DA:1477,1
DA:1478,1
DA:1479,1
DA:1480,1
DA:1481,1
DA:1482,1
DA:1483,1
DA:1484,1
DA:1485,1
DA:1486,1
DA:1487,1
DA:1488,1
DA:1489,1
DA:1490,1
DA:1491,1
DA:1492,1
DA:1493,1
DA:1494,1
DA:1495,1
DA:1496,1
DA:1497,1
DA:1498,1
DA:1499,1
DA:1500,1
DA:1501,1
DA:1502,1
DA:1503,1
DA:1504,1
DA:1505,1
DA:1506,1
DA:1507,1
DA:1508,1
DA:1509,1
DA:1510,1
DA:1511,1
DA:1512,1
DA:1514,9
DA:1515,9
DA:1516,9
DA:1518,1
DA:1521,1
DA:1522,1
DA:1523,1
DA:1524,1
DA:1525,1
DA:1526,1
DA:1527,1
DA:1528,1
DA:1529,1
DA:1530,1
DA:1531,1
DA:1532,1
DA:1533,1
DA:1534,1
DA:1535,1
DA:1536,1
DA:1537,1
DA:1538,1
DA:1539,1
DA:1540,1
DA:1542,3
DA:1543,3
DA:1544,3
DA:1546,1
DA:1549,1
DA:1550,1
DA:1551,1
DA:1552,1
DA:1553,1
DA:1554,1
DA:1555,1
DA:1556,1
DA:1557,1
DA:1558,1
DA:1559,1
DA:1560,1
DA:1561,1
DA:1562,1
DA:1563,1
DA:1564,1
DA:1565,1
DA:1566,1
DA:1567,1
DA:1568,1
DA:1569,1
DA:1570,1
DA:1571,1
DA:1572,1
DA:1573,1
DA:1574,1
DA:1575,1
DA:1576,1
DA:1577,1
DA:1578,1
DA:1579,1
DA:1580,1
DA:1581,1
DA:1582,1
DA:1583,1
DA:1584,1
DA:1585,1
DA:1586,1
DA:1587,1
DA:1588,1
DA:1589,1
DA:1591,6
DA:1592,6
DA:1593,6
DA:1595,1
DA:1598,1
DA:1599,1
DA:1600,1
DA:1601,1
DA:1602,1
DA:1603,1
DA:1604,1
DA:1605,1
DA:1608,1
DA:1609,1
DA:1610,1
DA:1611,1
DA:1612,1
DA:1613,1
DA:1616,1
DA:1619,1
DA:1620,1
DA:1621,1
DA:1622,1
DA:1623,1
DA:1624,1
DA:1625,1
DA:1626,1
DA:1627,1
DA:1628,1
DA:1629,1
DA:1630,1
DA:1631,1
DA:1632,1
DA:1633,1
DA:1636,1
DA:1638,1
DA:1639,1
DA:1640,1
DA:1641,1
DA:1642,1
DA:1643,1
DA:1644,1
DA:1645,1
DA:1646,1
DA:1647,1
DA:1648,1
DA:1649,1
DA:1650,1
DA:1651,1
DA:1652,1
DA:1653,1
DA:1655,1
DA:1656,1
DA:1659,1
DA:1661,1
DA:1662,1
DA:1663,1
DA:1664,1
DA:1665,1
DA:1666,1
DA:1667,1
DA:1668,1
DA:1669,1
DA:1670,1
DA:1671,1
DA:1672,1
DA:1673,1
DA:1674,1
DA:1675,1
DA:1676,1
DA:1677,1
DA:1678,1
DA:1679,1
DA:1680,1
DA:1681,1
DA:1682,1
DA:1683,1
DA:1684,1
DA:1685,1
DA:1686,1
DA:1687,1
DA:1688,1
DA:1689,1
DA:1690,1
DA:1691,1
DA:1692,1
DA:1693,1
DA:1694,1
DA:1695,1
DA:1696,1
DA:1697,1
DA:1698,1
DA:1699,1
DA:1700,1
DA:1701,1
DA:1702,1
DA:1703,1
DA:1704,1
DA:1705,1
DA:1706,1
DA:1707,1
DA:1708,1
DA:1709,1
DA:1710,1
DA:1711,1
DA:1712,1
DA:1713,1
DA:1714,1
DA:1715,1
DA:1716,1
DA:1717,1
DA:1718,1
DA:1719,1
DA:1720,1
DA:1721,1
DA:1722,1
DA:1723,1
DA:1724,1
DA:1725,1
DA:1726,1
DA:1727,1
DA:1728,1
DA:1729,1
DA:1730,1
DA:1731,1
DA:1732,48
DA:1733,48
DA:1735,1
BRF:0
BRH:0
LF:1014
LH:1012
end_of_record
SF:/Users/nick/Development/EttleX/EttleX-Project/Rust/crates/ettlex-core/src/logging_facility/init.rs
FN:46,_RNCNCNvNtNtCs4640luT8Huz_11ettlex_core16logging_facility4init4init00B9_
FN:55,_RNCNCNvNtNtCs4640luT8Huz_11ettlex_core16logging_facility4init4init0s_0B9_
FN:40,_RNCNvNtNtCs4640luT8Huz_11ettlex_core16logging_facility4init4init0B7_
FN:46,_RNCNCNvNtNtCsixIA6ROfhIR_11ettlex_core16logging_facility4init4init00B9_
FN:55,_RNCNCNvNtNtCsixIA6ROfhIR_11ettlex_core16logging_facility4init4init0s_0B9_
FN:40,_RNCNvNtNtCsixIA6ROfhIR_11ettlex_core16logging_facility4init4init0B7_
FN:39,_RNvNtNtCsixIA6ROfhIR_11ettlex_core16logging_facility4init4init
FN:73,_RNvNtNtNtCsixIA6ROfhIR_11ettlex_core16logging_facility4init5testss_20test_init_idempotent
FN:81,_RNvNtNtNtCsixIA6ROfhIR_11ettlex_core16logging_facility4init5testss_21test_profile_equality
FNDA:0,_RNCNCNvNtNtCs4640luT8Huz_11ettlex_core16logging_facility4init4init00B9_
FNDA:0,_RNCNCNvNtNtCs4640luT8Huz_11ettlex_core16logging_facility4init4init0s_0B9_
FNDA:0,_RNCNvNtNtCs4640luT8Huz_11ettlex_core16logging_facility4init4init0B7_
FNDA:0,_RNCNCNvNtNtCsixIA6ROfhIR_11ettlex_core16logging_facility4init4init00B9_
FNDA:0,_RNCNCNvNtNtCsixIA6ROfhIR_11ettlex_core16logging_facility4init4init0s_0B9_
FNDA:1,_RNCNvNtNtCsixIA6ROfhIR_11ettlex_core16logging_facility4init4init0B7_
FNDA:3,_RNvNtNtCsixIA6ROfhIR_11ettlex_core16logging_facility4init4init
FNDA:1,_RNvNtNtNtCsixIA6ROfhIR_11ettlex_core16logging_facility4init5testss_20test_init_idempotent
FNDA:1,_RNvNtNtNtCsixIA6ROfhIR_11ettlex_core16logging_facility4init5testss_21test_profile_equality
FNF:6
FNH:4
DA:39,3
DA:40,3
DA:41,1
DA:43,0
DA:44,0
DA:45,0
DA:46,0
DA:48,0
DA:51,0
DA:52,0
DA:53,0
DA:54,0
DA:55,0
DA:57,0
DA:59,1
DA:60,1
DA:61,1
DA:62,1
DA:63,1
DA:65,1
DA:66,3
DA:73,1
DA:75,1
DA:76,1
DA:77,1
DA:78,1
DA:81,1
DA:82,1
DA:83,1
DA:84,1
BRF:0
BRH:0
LF:33
LH:20
end_of_record
SF:/Users/nick/Development/EttleX/EttleX-Project/Rust/crates/ettlex-core/src/logging_facility/test_capture.rs
FN:135,_RINvMs2_NtNtCs4640luT8Huz_11ettlex_core16logging_facility12test_captureNtB6_11TestCapture12count_eventspEBa_
FN:139,_RNCINvMs2_NtNtCs4640luT8Huz_11ettlex_core16logging_facility12test_captureNtB8_11TestCapture12count_eventspE0Bc_
FN:30,_RNvMNtNtCs4640luT8Huz_11ettlex_core16logging_facility12test_captureNtB2_12FieldVisitor3new
FN:65,_RNvMs0_NtNtCs4640luT8Huz_11ettlex_core16logging_facility12test_captureNtB5_16TestCaptureLayer3new
FN:115,_RNvMs2_NtNtCs4640luT8Huz_11ettlex_core16logging_facility12test_captureNtB5_11TestCapture19assert_event_exists
FN:130,_RNvMs2_NtNtCs4640luT8Huz_11ettlex_core16logging_facility12test_captureNtB5_11TestCapture5clear
FN:106,_RNvMs2_NtNtCs4640luT8Huz_11ettlex_core16logging_facility12test_captureNtB5_11TestCapture6events
FN:162,_RNvNtNtCs4640luT8Huz_11ettlex_core16logging_facility12test_capture17init_test_capture
FN:173,_RNvXs3_NtNtCs4640luT8Huz_11ettlex_core16logging_facility12test_captureNtB5_11TestCaptureNtNtCsezyhsC6CBT9_4core5clone5Clone5clone
FN:48,_RNvXs_NtNtCs4640luT8Huz_11ettlex_core16logging_facility12test_captureNtB4_12FieldVisitorNtNtCsejlsyLOhQze_12tracing_core5field5Visit10record_i64
FN:43,_RNvXs_NtNtCs4640luT8Huz_11ettlex_core16logging_facility12test_captureNtB4_12FieldVisitorNtNtCsejlsyLOhQze_12tracing_core5field5Visit10record_str
FN:53,_RNvXs_NtNtCs4640luT8Huz_11ettlex_core16logging_facility12test_captureNtB4_12FieldVisitorNtNtCsejlsyLOhQze_12tracing_core5field5Visit10record_u64
FN:38,_RNvXs_NtNtCs4640luT8Huz_11ettlex_core16logging_facility12test_captureNtB4_12FieldVisitorNtNtCsejlsyLOhQze_12tracing_core5field5Visit12record_debug
FN:119,_RNCNvMs2_NtNtCs4640luT8Huz_11ettlex_core16logging_facility12test_captureNtB7_11TestCapture19assert_event_exists0Bb_
FN:131,_RNCNvMs2_NtNtCs4640luT8Huz_11ettlex_core16logging_facility12test_captureNtB7_11TestCapture5clear0Bb_
FN:107,_RNCNvMs2_NtNtCs4640luT8Huz_11ettlex_core16logging_facility12test_captureNtB7_11TestCapture6events0Bb_
FN:164,_RNCNvNtNtCs4640luT8Huz_11ettlex_core16logging_facility12test_capture17init_test_capture0B7_
FN:94,_RNCNvXs1_NtNtCs4640luT8Huz_11ettlex_core16logging_facility12test_captureNtB7_16TestCaptureLayerINtNtCsew4wRxadzbq_18tracing_subscriber5layer5LayerNtNtNtB1A_8registry7sharded8RegistryE8on_event0Bb_
FN:79,_RNvXs1_NtNtCs4640luT8Huz_11ettlex_core16logging_facility12test_captureNtB5_16TestCaptureLayerINtNtCsew4wRxadzbq_18tracing_subscriber5layer5LayerNtNtNtB1y_8registry7sharded8RegistryE8on_eventB9_
FN:135,_RINvMs2_NtNtCsixIA6ROfhIR_11ettlex_core16logging_facility12test_captureNtB6_11TestCapture12count_eventspEBa_
FN:139,_RNCINvMs2_NtNtCsixIA6ROfhIR_11ettlex_core16logging_facility12test_captureNtB8_11TestCapture12count_eventspE0Bc_
FN:119,_RNCNvMs2_NtNtCsixIA6ROfhIR_11ettlex_core16logging_facility12test_captureNtB7_11TestCapture19assert_event_exists0Bb_
FN:131,_RNCNvMs2_NtNtCsixIA6ROfhIR_11ettlex_core16logging_facility12test_captureNtB7_11TestCapture5clear0Bb_
FN:107,_RNCNvMs2_NtNtCsixIA6ROfhIR_11ettlex_core16logging_facility12test_captureNtB7_11TestCapture6events0Bb_
FN:164,_RNCNvNtNtCsixIA6ROfhIR_11ettlex_core16logging_facility12test_capture17init_test_capture0B7_
FN:94,_RNCNvXININtNtCsixIA6ROfhIR_11ettlex_core16logging_facility12test_captures1_0pENtB7_16TestCaptureLayerINtNtCsew4wRxadzbq_18tracing_subscriber5layer5LayerpE8on_event0Bb_
FN:30,_RNvMNtNtCsixIA6ROfhIR_11ettlex_core16logging_facility12test_captureNtB2_12FieldVisitor3new
FN:65,_RNvMs0_NtNtCsixIA6ROfhIR_11ettlex_core16logging_facility12test_captureNtB5_16TestCaptureLayer3new
FN:115,_RNvMs2_NtNtCsixIA6ROfhIR_11ettlex_core16logging_facility12test_captureNtB5_11TestCapture19assert_event_exists
FN:130,_RNvMs2_NtNtCsixIA6ROfhIR_11ettlex_core16logging_facility12test_captureNtB5_11TestCapture5clear
FN:106,_RNvMs2_NtNtCsixIA6ROfhIR_11ettlex_core16logging_facility12test_captureNtB5_11TestCapture6events
FN:162,_RNvNtNtCsixIA6ROfhIR_11ettlex_core16logging_facility12test_capture17init_test_capture
FN:79,_RNvXININtNtCsixIA6ROfhIR_11ettlex_core16logging_facility12test_captures1_0pENtB5_16TestCaptureLayerINtNtCsew4wRxadzbq_18tracing_subscriber5layer5LayerpE8on_eventB9_
FN:173,_RNvXs3_NtNtCsixIA6ROfhIR_11ettlex_core16logging_facility12test_captureNtB5_11TestCaptureNtNtCsezyhsC6CBT9_4core5clone5Clone5clone
FN:48,_RNvXs_NtNtCsixIA6ROfhIR_11ettlex_core16logging_facility12test_captureNtB4_12FieldVisitorNtNtCsejlsyLOhQze_12tracing_core5field5Visit10record_i64
FN:43,_RNvXs_NtNtCsixIA6ROfhIR_11ettlex_core16logging_facility12test_captureNtB4_12FieldVisitorNtNtCsejlsyLOhQze_12tracing_core5field5Visit10record_str
FN:53,_RNvXs_NtNtCsixIA6ROfhIR_11ettlex_core16logging_facility12test_captureNtB4_12FieldVisitorNtNtCsejlsyLOhQze_12tracing_core5field5Visit10record_u64
FN:38,_RNvXs_NtNtCsixIA6ROfhIR_11ettlex_core16logging_facility12test_captureNtB4_12FieldVisitorNtNtCsejlsyLOhQze_12tracing_core5field5Visit12record_debug
FN:185,_RNvNtNtNtCsixIA6ROfhIR_11ettlex_core16logging_facility12test_capture5testss_25test_captured_event_clone
FN:135,_RINvMs2_NtNtCs4640luT8Huz_11ettlex_core16logging_facility12test_captureNtB6_11TestCapture12count_eventsNCNvCs3Par6mxqJje_22logging_facility_testss_30test_test_capture_count_events0EB1H_
FN:135,_RINvMs2_NtNtCs4640luT8Huz_11ettlex_core16logging_facility12test_captureNtB6_11TestCapture12count_eventsNCNvCs3Par6mxqJje_22logging_facility_testss_30test_test_capture_count_eventss_0EB1H_
FN:139,_RNCINvMs2_NtNtCs4640luT8Huz_11ettlex_core16logging_facility12test_captureNtB8_11TestCapture12count_eventsNCNvCs3Par6mxqJje_22logging_facility_testss_30test_test_capture_count_events0E0B1J_
FN:139,_RNCINvMs2_NtNtCs4640luT8Huz_11ettlex_core16logging_facility12test_captureNtB8_11TestCapture12count_eventsNCNvCs3Par6mxqJje_22logging_facility_testss_30test_test_capture_count_eventss_0E0B1J_
FNDA:0,_RINvMs2_NtNtCs4640luT8Huz_11ettlex_core16logging_facility12test_captureNtB6_11TestCapture12count_eventspEBa_
FNDA:0,_RNCINvMs2_NtNtCs4640luT8Huz_11ettlex_core16logging_facility12test_captureNtB8_11TestCapture12count_eventspE0Bc_
FNDA:22,_RNvMNtNtCs4640luT8Huz_11ettlex_core16logging_facility12test_captureNtB2_12FieldVisitor3new
FNDA:13,_RNvMs0_NtNtCs4640luT8Huz_11ettlex_core16logging_facility12test_captureNtB5_16TestCaptureLayer3new
FNDA:7,_RNvMs2_NtNtCs4640luT8Huz_11ettlex_core16logging_facility12test_captureNtB5_11TestCapture19assert_event_exists
FNDA:2,_RNvMs2_NtNtCs4640luT8Huz_11ettlex_core16logging_facility12test_captureNtB5_11TestCapture5clear
FNDA:19,_RNvMs2_NtNtCs4640luT8Huz_11ettlex_core16logging_facility12test_captureNtB5_11TestCapture6events
FNDA:13,_RNvNtNtCs4640luT8Huz_11ettlex_core16logging_facility12test_capture17init_test_capture
FNDA:13,_RNvXs3_NtNtCs4640luT8Huz_11ettlex_core16logging_facility12test_captureNtB5_11TestCaptureNtNtCsezyhsC6CBT9_4core5clone5Clone5clone
FNDA:8,_RNvXs_NtNtCs4640luT8Huz_11ettlex_core16logging_facility12test_captureNtB4_12FieldVisitorNtNtCsejlsyLOhQze_12tracing_core5field5Visit10record_i64
FNDA:70,_RNvXs_NtNtCs4640luT8Huz_11ettlex_core16logging_facility12test_captureNtB4_12FieldVisitorNtNtCsejlsyLOhQze_12tracing_core5field5Visit10record_str
FNDA:4,_RNvXs_NtNtCs4640luT8Huz_11ettlex_core16logging_facility12test_captureNtB4_12FieldVisitorNtNtCsejlsyLOhQze_12tracing_core5field5Visit10record_u64
FNDA:9,_RNvXs_NtNtCs4640luT8Huz_11ettlex_core16logging_facility12test_captureNtB4_12FieldVisitorNtNtCsejlsyLOhQze_12tracing_core5field5Visit12record_debug
FNDA:10,_RNCNvMs2_NtNtCs4640luT8Huz_11ettlex_core16logging_facility12test_captureNtB7_11TestCapture19assert_event_exists0Bb_
FNDA:2,_RNCNvMs2_NtNtCs4640luT8Huz_11ettlex_core16logging_facility12test_captureNtB7_11TestCapture5clear0Bb_
FNDA:19,_RNCNvMs2_NtNtCs4640luT8Huz_11ettlex_core16logging_facility12test_captureNtB7_11TestCapture6events0Bb_
FNDA:13,_RNCNvNtNtCs4640luT8Huz_11ettlex_core16logging_facility12test_capture17init_test_capture0B7_
FNDA:22,_RNCNvXs1_NtNtCs4640luT8Huz_11ettlex_core16logging_facility12test_captureNtB7_16TestCaptureLayerINtNtCsew4wRxadzbq_18tracing_subscriber5layer5LayerNtNtNtB1A_8registry7sharded8RegistryE8on_event0Bb_
FNDA:22,_RNvXs1_NtNtCs4640luT8Huz_11ettlex_core16logging_facility12test_captureNtB5_16TestCaptureLayerINtNtCsew4wRxadzbq_18tracing_subscriber5layer5LayerNtNtNtB1y_8registry7sharded8RegistryE8on_eventB9_
FNDA:0,_RINvMs2_NtNtCsixIA6ROfhIR_11ettlex_core16logging_facility12test_captureNtB6_11TestCapture12count_eventspEBa_
FNDA:0,_RNCINvMs2_NtNtCsixIA6ROfhIR_11ettlex_core16logging_facility12test_captureNtB8_11TestCapture12count_eventspE0Bc_
FNDA:0,_RNCNvMs2_NtNtCsixIA6ROfhIR_11ettlex_core16logging_facility12test_captureNtB7_11TestCapture19assert_event_exists0Bb_
FNDA:0,_RNCNvMs2_NtNtCsixIA6ROfhIR_11ettlex_core16logging_facility12test_captureNtB7_11TestCapture5clear0Bb_
FNDA:0,_RNCNvMs2_NtNtCsixIA6ROfhIR_11ettlex_core16logging_facility12test_captureNtB7_11TestCapture6events0Bb_
FNDA:0,_RNCNvNtNtCsixIA6ROfhIR_11ettlex_core16logging_facility12test_capture17init_test_capture0B7_
FNDA:0,_RNCNvXININtNtCsixIA6ROfhIR_11ettlex_core16logging_facility12test_captures1_0pENtB7_16TestCaptureLayerINtNtCsew4wRxadzbq_18tracing_subscriber5layer5LayerpE8on_event0Bb_
FNDA:0,_RNvMNtNtCsixIA6ROfhIR_11ettlex_core16logging_facility12test_captureNtB2_12FieldVisitor3new
FNDA:0,_RNvMs0_NtNtCsixIA6ROfhIR_11ettlex_core16logging_facility12test_captureNtB5_16TestCaptureLayer3new
FNDA:0,_RNvMs2_NtNtCsixIA6ROfhIR_11ettlex_core16logging_facility12test_captureNtB5_11TestCapture19assert_event_exists
FNDA:0,_RNvMs2_NtNtCsixIA6ROfhIR_11ettlex_core16logging_facility12test_captureNtB5_11TestCapture5clear
FNDA:0,_RNvMs2_NtNtCsixIA6ROfhIR_11ettlex_core16logging_facility12test_captureNtB5_11TestCapture6events
FNDA:0,_RNvNtNtCsixIA6ROfhIR_11ettlex_core16logging_facility12test_capture17init_test_capture
FNDA:0,_RNvXININtNtCsixIA6ROfhIR_11ettlex_core16logging_facility12test_captures1_0pENtB5_16TestCaptureLayerINtNtCsew4wRxadzbq_18tracing_subscriber5layer5LayerpE8on_eventB9_
FNDA:0,_RNvXs3_NtNtCsixIA6ROfhIR_11ettlex_core16logging_facility12test_captureNtB5_11TestCaptureNtNtCsezyhsC6CBT9_4core5clone5Clone5clone
FNDA:0,_RNvXs_NtNtCsixIA6ROfhIR_11ettlex_core16logging_facility12test_captureNtB4_12FieldVisitorNtNtCsejlsyLOhQze_12tracing_core5field5Visit10record_i64
FNDA:0,_RNvXs_NtNtCsixIA6ROfhIR_11ettlex_core16logging_facility12test_captureNtB4_12FieldVisitorNtNtCsejlsyLOhQze_12tracing_core5field5Visit10record_str
FNDA:0,_RNvXs_NtNtCsixIA6ROfhIR_11ettlex_core16logging_facility12test_captureNtB4_12FieldVisitorNtNtCsejlsyLOhQze_12tracing_core5field5Visit10record_u64
FNDA:0,_RNvXs_NtNtCsixIA6ROfhIR_11ettlex_core16logging_facility12test_captureNtB4_12FieldVisitorNtNtCsejlsyLOhQze_12tracing_core5field5Visit12record_debug
FNDA:1,_RNvNtNtNtCsixIA6ROfhIR_11ettlex_core16logging_facility12test_capture5testss_25test_captured_event_clone
FNDA:1,_RINvMs2_NtNtCs4640luT8Huz_11ettlex_core16logging_facility12test_captureNtB6_11TestCapture12count_eventsNCNvCs3Par6mxqJje_22logging_facility_testss_30test_test_capture_count_events0EB1H_
FNDA:1,_RINvMs2_NtNtCs4640luT8Huz_11ettlex_core16logging_facility12test_captureNtB6_11TestCapture12count_eventsNCNvCs3Par6mxqJje_22logging_facility_testss_30test_test_capture_count_eventss_0EB1H_
FNDA:3,_RNCINvMs2_NtNtCs4640luT8Huz_11ettlex_core16logging_facility12test_captureNtB8_11TestCapture12count_eventsNCNvCs3Par6mxqJje_22logging_facility_testss_30test_test_capture_count_events0E0B1J_
FNDA:3,_RNCINvMs2_NtNtCs4640luT8Huz_11ettlex_core16logging_facility12test_captureNtB8_11TestCapture12count_eventsNCNvCs3Par6mxqJje_22logging_facility_testss_30test_test_capture_count_eventss_0E0B1J_
FNF:20
FNH:20
DA:30,22
DA:31,22
DA:32,22
DA:33,22
DA:34,22
DA:38,9
DA:39,9
DA:40,9
DA:41,9
DA:43,70
DA:44,70
DA:45,70
DA:46,70
DA:48,8
DA:49,8
DA:50,8
DA:51,8
DA:53,4
DA:54,4
DA:55,4
DA:56,4
DA:65,13
DA:66,13
DA:67,13
DA:68,13
DA:69,13
DA:70,13
DA:71,13
DA:72,13
DA:79,22
DA:80,22
DA:81,22
DA:82,22
DA:84,22
DA:85,22
DA:86,22
DA:87,22
DA:88,22
DA:89,22
DA:90,22
DA:92,22
DA:93,22
DA:94,22
DA:95,22
DA:96,22
DA:106,19
DA:107,19
DA:108,19
DA:115,7
DA:116,7
DA:117,7
DA:118,7
DA:119,10
DA:120,7
DA:121,7
DA:125,1
DA:127,6
DA:130,2
DA:131,2
DA:132,2
DA:135,2
DA:136,2
DA:137,2
DA:139,6
DA:140,2
DA:162,13
DA:163,13
DA:164,13
DA:165,13
DA:166,13
DA:167,13
DA:168,13
DA:169,13
DA:170,13
DA:173,13
DA:174,13
DA:175,13
DA:176,13
DA:177,13
DA:185,1
DA:186,1
DA:187,1
DA:188,1
DA:189,1
DA:190,1
DA:191,1
DA:192,1
DA:194,1
DA:195,1
DA:196,1
DA:197,1
BRF:0
BRH:0
LF:97
LH:97
end_of_record
SF:/Users/nick/Development/EttleX/EttleX-Project/Rust/crates/ettlex-core/src/model/constraint.rs
FN:88,_RNvMNtNtCs4640luT8Huz_11ettlex_core5model10constraintNtB2_10Constraint10is_deleted
FN:99,_RNvMNtNtCs4640luT8Huz_11ettlex_core5model10constraintNtB2_10Constraint14update_payload
FN:79,_RNvMNtNtCs4640luT8Huz_11ettlex_core5model10constraintNtB2_10Constraint22compute_payload_digest
FN:53,_RNvMNtNtCs4640luT8Huz_11ettlex_core5model10constraintNtB2_10Constraint3new
FN:93,_RNvMNtNtCs4640luT8Huz_11ettlex_core5model10constraintNtB2_10Constraint9tombstone
FN:137,_RNvMs0_NtNtCs4640luT8Huz_11ettlex_core5model10constraintNtB5_15EpConstraintRef3new
FN:148,_RNvXs1_NtNtCs4640luT8Huz_11ettlex_core5model10constraintNtB5_15EpConstraintRefNtNtCsezyhsC6CBT9_4core3fmt7Display3fmt
FN:107,_RNvXs_NtNtCs4640luT8Huz_11ettlex_core5model10constraintNtB4_10ConstraintNtNtCsezyhsC6CBT9_4core3fmt7Display3fmt
FN:88,_RNvMNtNtCsixIA6ROfhIR_11ettlex_core5model10constraintNtB2_10Constraint10is_deleted
FN:99,_RNvMNtNtCsixIA6ROfhIR_11ettlex_core5model10constraintNtB2_10Constraint14update_payload
FN:79,_RNvMNtNtCsixIA6ROfhIR_11ettlex_core5model10constraintNtB2_10Constraint22compute_payload_digest
FN:53,_RNvMNtNtCsixIA6ROfhIR_11ettlex_core5model10constraintNtB2_10Constraint3new
FN:93,_RNvMNtNtCsixIA6ROfhIR_11ettlex_core5model10constraintNtB2_10Constraint9tombstone
FN:137,_RNvMs0_NtNtCsixIA6ROfhIR_11ettlex_core5model10constraintNtB5_15EpConstraintRef3new
FN:148,_RNvXs1_NtNtCsixIA6ROfhIR_11ettlex_core5model10constraintNtB5_15EpConstraintRefNtNtCsezyhsC6CBT9_4core3fmt7Display3fmt
FN:107,_RNvXs_NtNtCsixIA6ROfhIR_11ettlex_core5model10constraintNtB4_10ConstraintNtNtCsezyhsC6CBT9_4core3fmt7Display3fmt
FN:163,_RNvNtNtNtCsixIA6ROfhIR_11ettlex_core5model10constraint5testss_19test_constraint_new
FN:204,_RNvNtNtNtCsixIA6ROfhIR_11ettlex_core5model10constraint5testss_25test_constraint_tombstone
FN:243,_RNvNtNtNtCsixIA6ROfhIR_11ettlex_core5model10constraint5testss_26test_ep_constraint_ref_new
FN:220,_RNvNtNtNtCsixIA6ROfhIR_11ettlex_core5model10constraint5testss_30test_constraint_update_payload
FN:183,_RNvNtNtNtCsixIA6ROfhIR_11ettlex_core5model10constraint5testss_36test_constraint_digest_deterministic
FNDA:1797,_RNvMNtNtCs4640luT8Huz_11ettlex_core5model10constraintNtB2_10Constraint10is_deleted
FNDA:3,_RNvMNtNtCs4640luT8Huz_11ettlex_core5model10constraintNtB2_10Constraint14update_payload
FNDA:740,_RNvMNtNtCs4640luT8Huz_11ettlex_core5model10constraintNtB2_10Constraint22compute_payload_digest
FNDA:737,_RNvMNtNtCs4640luT8Huz_11ettlex_core5model10constraintNtB2_10Constraint3new
FNDA:6,_RNvMNtNtCs4640luT8Huz_11ettlex_core5model10constraintNtB2_10Constraint9tombstone
FNDA:689,_RNvMs0_NtNtCs4640luT8Huz_11ettlex_core5model10constraintNtB5_15EpConstraintRef3new
FNDA:0,_RNvXs1_NtNtCs4640luT8Huz_11ettlex_core5model10constraintNtB5_15EpConstraintRefNtNtCsezyhsC6CBT9_4core3fmt7Display3fmt
FNDA:0,_RNvXs_NtNtCs4640luT8Huz_11ettlex_core5model10constraintNtB4_10ConstraintNtNtCsezyhsC6CBT9_4core3fmt7Display3fmt
FNDA:36,_RNvMNtNtCsixIA6ROfhIR_11ettlex_core5model10constraintNtB2_10Constraint10is_deleted
FNDA:3,_RNvMNtNtCsixIA6ROfhIR_11ettlex_core5model10constraintNtB2_10Constraint14update_payload
FNDA:29,_RNvMNtNtCsixIA6ROfhIR_11ettlex_core5model10constraintNtB2_10Constraint22compute_payload_digest
FNDA:26,_RNvMNtNtCsixIA6ROfhIR_11ettlex_core5model10constraintNtB2_10Constraint3new
FNDA:7,_RNvMNtNtCsixIA6ROfhIR_11ettlex_core5model10constraintNtB2_10Constraint9tombstone
FNDA:10,_RNvMs0_NtNtCsixIA6ROfhIR_11ettlex_core5model10constraintNtB5_15EpConstraintRef3new
FNDA:0,_RNvXs1_NtNtCsixIA6ROfhIR_11ettlex_core5model10constraintNtB5_15EpConstraintRefNtNtCsezyhsC6CBT9_4core3fmt7Display3fmt
FNDA:0,_RNvXs_NtNtCsixIA6ROfhIR_11ettlex_core5model10constraintNtB4_10ConstraintNtNtCsezyhsC6CBT9_4core3fmt7Display3fmt
FNDA:1,_RNvNtNtNtCsixIA6ROfhIR_11ettlex_core5model10constraint5testss_19test_constraint_new
FNDA:1,_RNvNtNtNtCsixIA6ROfhIR_11ettlex_core5model10constraint5testss_25test_constraint_tombstone
FNDA:1,_RNvNtNtNtCsixIA6ROfhIR_11ettlex_core5model10constraint5testss_26test_ep_constraint_ref_new
FNDA:1,_RNvNtNtNtCsixIA6ROfhIR_11ettlex_core5model10constraint5testss_30test_constraint_update_payload
FNDA:1,_RNvNtNtNtCsixIA6ROfhIR_11ettlex_core5model10constraint5testss_36test_constraint_digest_deterministic
FNF:13
FNH:11
DA:53,763
DA:54,763
DA:55,763
DA:56,763
DA:57,763
DA:58,763
DA:59,763
DA:60,763
DA:61,763
DA:63,763
DA:64,763
DA:65,763
DA:66,763
DA:67,763
DA:68,763
DA:69,763
DA:70,763
DA:71,763
DA:72,763
DA:73,763
DA:74,763
DA:79,769
DA:80,769
DA:81,769
DA:82,769
DA:83,769
DA:84,769
DA:85,769
DA:88,1833
DA:89,1833
DA:90,1833
DA:93,13
DA:94,13
DA:95,13
DA:96,13
DA:99,6
DA:100,6
DA:101,6
DA:102,6
DA:103,6
DA:107,0
DA:108,0
DA:109,0
DA:113,0
DA:137,699
DA:138,699
DA:139,699
DA:140,699
DA:141,699
DA:142,699
DA:143,699
DA:144,699
DA:148,0
DA:149,0
DA:150,0
DA:154,0
DA:163,1
DA:164,1
DA:165,1
DA:166,1
DA:167,1
DA:168,1
DA:169,1
DA:170,1
DA:173,1
DA:174,1
DA:175,1
DA:176,1
DA:177,1
DA:178,1
DA:179,1
DA:180,1
DA:183,1
DA:184,1
DA:185,1
DA:186,1
DA:187,1
DA:188,1
DA:189,1
DA:190,1
DA:192,1
DA:193,1
DA:194,1
DA:195,1
DA:196,1
DA:197,1
DA:200,1
DA:201,1
DA:204,1
DA:205,1
DA:206,1
DA:207,1
DA:208,1
DA:209,1
DA:210,1
DA:211,1
DA:214,1
DA:215,1
DA:216,1
DA:217,1
DA:220,1
DA:221,1
DA:222,1
DA:223,1
DA:224,1
DA:225,1
DA:226,1
DA:227,1
DA:228,1
DA:231,1
DA:232,1
DA:234,1
DA:235,1
DA:237,1
DA:238,1
DA:239,1
DA:240,1
DA:243,1
DA:244,1
DA:246,1
DA:247,1
DA:248,1
DA:249,1
BRF:0
BRH:0
LF:123
LH:115
end_of_record
SF:/Users/nick/Development/EttleX/EttleX-Project/Rust/crates/ettlex-core/src/model/decision.rs
FN:131,_RNvMNtNtCs4640luT8Huz_11ettlex_core5model8decisionNtB2_8Decision13is_tombstoned
FN:111,_RNvMNtNtCs4640luT8Huz_11ettlex_core5model8decisionNtB2_8Decision21compute_evidence_hash
FN:72,_RNvMNtNtCs4640luT8Huz_11ettlex_core5model8decisionNtB2_8Decision3new
FN:143,_RNvMNtNtCs4640luT8Huz_11ettlex_core5model8decisionNtB2_8Decision6update
FN:136,_RNvMNtNtCs4640luT8Huz_11ettlex_core5model8decisionNtB2_8Decision9tombstone
FN:240,_RNvMs0_NtNtCs4640luT8Huz_11ettlex_core5model8decisionNtB5_20DecisionEvidenceItem20compute_content_hash
FN:227,_RNvMs0_NtNtCs4640luT8Huz_11ettlex_core5model8decisionNtB5_20DecisionEvidenceItem3new
FN:306,_RNvMs2_NtNtCs4640luT8Huz_11ettlex_core5model8decisionNtB5_12DecisionLink13is_tombstoned
FN:287,_RNvMs2_NtNtCs4640luT8Huz_11ettlex_core5model8decisionNtB5_12DecisionLink3new
FN:311,_RNvMs2_NtNtCs4640luT8Huz_11ettlex_core5model8decisionNtB5_12DecisionLink9tombstone
FN:248,_RNvXs1_NtNtCs4640luT8Huz_11ettlex_core5model8decisionNtB5_20DecisionEvidenceItemNtNtCsezyhsC6CBT9_4core3fmt7Display3fmt
FN:317,_RNvXs3_NtNtCs4640luT8Huz_11ettlex_core5model8decisionNtB5_12DecisionLinkNtNtCsezyhsC6CBT9_4core3fmt7Display3fmt
FN:194,_RNvXs_NtNtCs4640luT8Huz_11ettlex_core5model8decisionNtB4_8DecisionNtNtCsezyhsC6CBT9_4core3fmt7Display3fmt
FN:131,_RNvMNtNtCsixIA6ROfhIR_11ettlex_core5model8decisionNtB2_8Decision13is_tombstoned
FN:111,_RNvMNtNtCsixIA6ROfhIR_11ettlex_core5model8decisionNtB2_8Decision21compute_evidence_hash
FN:72,_RNvMNtNtCsixIA6ROfhIR_11ettlex_core5model8decisionNtB2_8Decision3new
FN:143,_RNvMNtNtCsixIA6ROfhIR_11ettlex_core5model8decisionNtB2_8Decision6update
FN:136,_RNvMNtNtCsixIA6ROfhIR_11ettlex_core5model8decisionNtB2_8Decision9tombstone
FN:240,_RNvMs0_NtNtCsixIA6ROfhIR_11ettlex_core5model8decisionNtB5_20DecisionEvidenceItem20compute_content_hash
FN:227,_RNvMs0_NtNtCsixIA6ROfhIR_11ettlex_core5model8decisionNtB5_20DecisionEvidenceItem3new
FN:306,_RNvMs2_NtNtCsixIA6ROfhIR_11ettlex_core5model8decisionNtB5_12DecisionLink13is_tombstoned
FN:287,_RNvMs2_NtNtCsixIA6ROfhIR_11ettlex_core5model8decisionNtB5_12DecisionLink3new
FN:331,_RNvNtNtNtCsixIA6ROfhIR_11ettlex_core5model8decision5testss_17test_decision_new
FN:375,_RNvNtNtNtCsixIA6ROfhIR_11ettlex_core5model8decision5testss_20test_decision_update
FN:424,_RNvNtNtNtCsixIA6ROfhIR_11ettlex_core5model8decision5testss_22test_decision_link_new
FN:411,_RNvNtNtNtCsixIA6ROfhIR_11ettlex_core5model8decision5testss_22test_evidence_item_new
FN:354,_RNvNtNtNtCsixIA6ROfhIR_11ettlex_core5model8decision5testss_23test_decision_tombstone
FN:311,_RNvMs2_NtNtCsixIA6ROfhIR_11ettlex_core5model8decisionNtB5_12DecisionLink9tombstone
FN:248,_RNvXs1_NtNtCsixIA6ROfhIR_11ettlex_core5model8decisionNtB5_20DecisionEvidenceItemNtNtCsezyhsC6CBT9_4core3fmt7Display3fmt
FN:317,_RNvXs3_NtNtCsixIA6ROfhIR_11ettlex_core5model8decisionNtB5_12DecisionLinkNtNtCsezyhsC6CBT9_4core3fmt7Display3fmt
FN:194,_RNvXs_NtNtCsixIA6ROfhIR_11ettlex_core5model8decisionNtB4_8DecisionNtNtCsezyhsC6CBT9_4core3fmt7Display3fmt
FNDA:2056,_RNvMNtNtCs4640luT8Huz_11ettlex_core5model8decisionNtB2_8Decision13is_tombstoned
FNDA:611,_RNvMNtNtCs4640luT8Huz_11ettlex_core5model8decisionNtB2_8Decision21compute_evidence_hash
FNDA:608,_RNvMNtNtCs4640luT8Huz_11ettlex_core5model8decisionNtB2_8Decision3new
FNDA:3,_RNvMNtNtCs4640luT8Huz_11ettlex_core5model8decisionNtB2_8Decision6update
FNDA:8,_RNvMNtNtCs4640luT8Huz_11ettlex_core5model8decisionNtB2_8Decision9tombstone
FNDA:3,_RNvMs0_NtNtCs4640luT8Huz_11ettlex_core5model8decisionNtB5_20DecisionEvidenceItem20compute_content_hash
FNDA:3,_RNvMs0_NtNtCs4640luT8Huz_11ettlex_core5model8decisionNtB5_20DecisionEvidenceItem3new
FNDA:26,_RNvMs2_NtNtCs4640luT8Huz_11ettlex_core5model8decisionNtB5_12DecisionLink13is_tombstoned
FNDA:36,_RNvMs2_NtNtCs4640luT8Huz_11ettlex_core5model8decisionNtB5_12DecisionLink3new
FNDA:0,_RNvMs2_NtNtCs4640luT8Huz_11ettlex_core5model8decisionNtB5_12DecisionLink9tombstone
FNDA:0,_RNvXs1_NtNtCs4640luT8Huz_11ettlex_core5model8decisionNtB5_20DecisionEvidenceItemNtNtCsezyhsC6CBT9_4core3fmt7Display3fmt
FNDA:0,_RNvXs3_NtNtCs4640luT8Huz_11ettlex_core5model8decisionNtB5_12DecisionLinkNtNtCsezyhsC6CBT9_4core3fmt7Display3fmt
FNDA:0,_RNvXs_NtNtCs4640luT8Huz_11ettlex_core5model8decisionNtB4_8DecisionNtNtCsezyhsC6CBT9_4core3fmt7Display3fmt
FNDA:10,_RNvMNtNtCsixIA6ROfhIR_11ettlex_core5model8decisionNtB2_8Decision13is_tombstoned
FNDA:8,_RNvMNtNtCsixIA6ROfhIR_11ettlex_core5model8decisionNtB2_8Decision21compute_evidence_hash
FNDA:7,_RNvMNtNtCsixIA6ROfhIR_11ettlex_core5model8decisionNtB2_8Decision3new
FNDA:1,_RNvMNtNtCsixIA6ROfhIR_11ettlex_core5model8decisionNtB2_8Decision6update
FNDA:1,_RNvMNtNtCsixIA6ROfhIR_11ettlex_core5model8decisionNtB2_8Decision9tombstone
FNDA:1,_RNvMs0_NtNtCsixIA6ROfhIR_11ettlex_core5model8decisionNtB5_20DecisionEvidenceItem20compute_content_hash
FNDA:1,_RNvMs0_NtNtCsixIA6ROfhIR_11ettlex_core5model8decisionNtB5_20DecisionEvidenceItem3new
FNDA:1,_RNvMs2_NtNtCsixIA6ROfhIR_11ettlex_core5model8decisionNtB5_12DecisionLink13is_tombstoned
FNDA:3,_RNvMs2_NtNtCsixIA6ROfhIR_11ettlex_core5model8decisionNtB5_12DecisionLink3new
FNDA:1,_RNvNtNtNtCsixIA6ROfhIR_11ettlex_core5model8decision5testss_17test_decision_new
FNDA:1,_RNvNtNtNtCsixIA6ROfhIR_11ettlex_core5model8decision5testss_20test_decision_update
FNDA:1,_RNvNtNtNtCsixIA6ROfhIR_11ettlex_core5model8decision5testss_22test_decision_link_new
FNDA:1,_RNvNtNtNtCsixIA6ROfhIR_11ettlex_core5model8decision5testss_22test_evidence_item_new
FNDA:1,_RNvNtNtNtCsixIA6ROfhIR_11ettlex_core5model8decision5testss_23test_decision_tombstone
FNDA:0,_RNvMs2_NtNtCsixIA6ROfhIR_11ettlex_core5model8decisionNtB5_12DecisionLink9tombstone
FNDA:0,_RNvXs1_NtNtCsixIA6ROfhIR_11ettlex_core5model8decisionNtB5_20DecisionEvidenceItemNtNtCsezyhsC6CBT9_4core3fmt7Display3fmt
FNDA:0,_RNvXs3_NtNtCsixIA6ROfhIR_11ettlex_core5model8decisionNtB5_12DecisionLinkNtNtCsezyhsC6CBT9_4core3fmt7Display3fmt
FNDA:0,_RNvXs_NtNtCsixIA6ROfhIR_11ettlex_core5model8decisionNtB4_8DecisionNtNtCsezyhsC6CBT9_4core3fmt7Display3fmt
FNF:18
FNH:14
DA:72,615
DA:73,615
DA:74,615
DA:75,615
DA:76,615
DA:77,615
DA:78,615
DA:79,615
DA:80,615
DA:81,615
DA:82,615
DA:83,615
DA:84,615
DA:85,615
DA:86,615
DA:87,615
DA:89,615
DA:90,615
DA:91,615
DA:92,615
DA:93,615
DA:94,615
DA:95,615
DA:96,615
DA:97,615
DA:98,615
DA:99,615
DA:100,615
DA:101,615
DA:102,615
DA:103,615
DA:104,615
DA:105,615
DA:106,615
DA:111,619
DA:112,619
DA:113,619
DA:114,619
DA:115,619
DA:116,619
DA:117,619
DA:119,619
DA:120,4
DA:121,615
DA:123,619
DA:124,2
DA:125,617
DA:127,619
DA:128,619
DA:131,2066
DA:132,2066
DA:133,2066
DA:136,9
DA:137,9
DA:138,9
DA:139,9
DA:143,4
DA:144,4
DA:145,4
DA:146,4
DA:147,4
DA:148,4
DA:149,4
DA:150,4
DA:151,4
DA:152,4
DA:153,4
DA:154,4
DA:155,4
DA:156,2
DA:157,2
DA:158,4
DA:159,2
DA:160,2
DA:161,4
DA:162,0
DA:163,4
DA:164,4
DA:165,0
DA:166,4
DA:167,4
DA:168,0
DA:169,4
DA:170,4
DA:171,0
DA:172,4
DA:173,4
DA:174,0
DA:175,4
DA:176,4
DA:177,0
DA:178,4
DA:179,4
DA:180,0
DA:181,4
DA:184,4
DA:185,4
DA:186,4
DA:187,4
DA:189,4
DA:190,4
DA:194,0
DA:195,0
DA:196,0
DA:200,0
DA:227,4
DA:228,4
DA:230,4
DA:231,4
DA:232,4
DA:233,4
DA:234,4
DA:235,4
DA:236,4
DA:237,4
DA:240,4
DA:241,4
DA:242,4
DA:243,4
DA:244,4
DA:248,0
DA:249,0
DA:250,0
DA:254,0
DA:287,39
DA:288,39
DA:289,39
DA:290,39
DA:291,39
DA:292,39
DA:293,39
DA:294,39
DA:295,39
DA:296,39
DA:297,39
DA:298,39
DA:299,39
DA:300,39
DA:301,39
DA:302,39
DA:303,39
DA:306,27
DA:307,27
DA:308,27
DA:311,0
DA:312,0
DA:313,0
DA:317,0
DA:318,0
DA:319,0
DA:323,0
DA:331,1
DA:332,1
DA:333,1
DA:334,1
DA:335,1
DA:336,1
DA:337,1
DA:338,1
DA:339,1
DA:340,1
DA:341,1
DA:342,1
DA:343,1
DA:346,1
DA:347,1
DA:348,1
DA:349,1
DA:350,1
DA:351,1
DA:354,1
DA:355,1
DA:356,1
DA:357,1
DA:358,1
DA:359,1
DA:360,1
DA:361,1
DA:362,1
DA:363,1
DA:364,1
DA:365,1
DA:366,1
DA:369,1
DA:370,1
DA:371,1
DA:372,1
DA:375,1
DA:376,1
DA:377,1
DA:378,1
DA:379,1
DA:380,1
DA:381,1
DA:382,1
DA:383,1
DA:384,1
DA:385,1
DA:386,1
DA:387,1
DA:390,1
DA:391,1
DA:393,1
DA:394,1
DA:395,1
DA:396,1
DA:397,1
DA:398,1
DA:399,1
DA:400,1
DA:401,1
DA:402,1
DA:405,1
DA:406,1
DA:407,1
DA:408,1
DA:411,1
DA:412,1
DA:413,1
DA:414,1
DA:415,1
DA:418,1
DA:419,1
DA:420,1
DA:421,1
DA:424,1
DA:425,1
DA:426,1
DA:427,1
DA:428,1
DA:429,1
DA:433,1
DA:434,1
DA:435,1
DA:436,1
DA:437,1
DA:438,1
BRF:0
BRH:0
LF:237
LH:215
end_of_record
SF:/Users/nick/Development/EttleX/EttleX-Project/Rust/crates/ettlex-core/src/model/ep.rs
FN:123,_RNvMNtNtCs4640luT8Huz_11ettlex_core5model2epNtB2_2Ep10is_deleted
FN:101,_RNvMNtNtCs4640luT8Huz_11ettlex_core5model2epNtB2_2Ep22compute_content_digest
FN:97,_RNvMNtNtCs4640luT8Huz_11ettlex_core5model2epNtB2_2Ep24recompute_content_digest
FN:66,_RNvMNtNtCs4640luT8Huz_11ettlex_core5model2epNtB2_2Ep3new
FN:113,_RNvMNtNtCs4640luT8Huz_11ettlex_core5model2epNtB2_2Ep7is_leaf
FN:118,_RNvMNtNtCs4640luT8Huz_11ettlex_core5model2epNtB2_2Ep9has_child
FN:199,_RNvNtNtNtCsixIA6ROfhIR_11ettlex_core5model2ep5testss_11test_new_ep
FN:133,_RNvNtNtNtCsixIA6ROfhIR_11ettlex_core5model2ep5testss_34test_ep_content_digest_is_64_chars
FN:147,_RNvNtNtNtCsixIA6ROfhIR_11ettlex_core5model2ep5testss_39test_ep_content_digest_is_deterministic
FN:173,_RNvNtNtNtCsixIA6ROfhIR_11ettlex_core5model2ep5testss_43test_ep_content_digest_changes_with_content
FN:123,_RNvMNtNtCsixIA6ROfhIR_11ettlex_core5model2epNtB2_2Ep10is_deleted
FN:101,_RNvMNtNtCsixIA6ROfhIR_11ettlex_core5model2epNtB2_2Ep22compute_content_digest
FN:97,_RNvMNtNtCsixIA6ROfhIR_11ettlex_core5model2epNtB2_2Ep24recompute_content_digest
FN:66,_RNvMNtNtCsixIA6ROfhIR_11ettlex_core5model2epNtB2_2Ep3new
FN:113,_RNvMNtNtCsixIA6ROfhIR_11ettlex_core5model2epNtB2_2Ep7is_leaf
FN:118,_RNvMNtNtCsixIA6ROfhIR_11ettlex_core5model2epNtB2_2Ep9has_child
FNDA:0,_RNvMNtNtCs4640luT8Huz_11ettlex_core5model2epNtB2_2Ep10is_deleted
FNDA:666,_RNvMNtNtCs4640luT8Huz_11ettlex_core5model2epNtB2_2Ep22compute_content_digest
FNDA:18,_RNvMNtNtCs4640luT8Huz_11ettlex_core5model2epNtB2_2Ep24recompute_content_digest
FNDA:648,_RNvMNtNtCs4640luT8Huz_11ettlex_core5model2epNtB2_2Ep3new
FNDA:3,_RNvMNtNtCs4640luT8Huz_11ettlex_core5model2epNtB2_2Ep7is_leaf
FNDA:0,_RNvMNtNtCs4640luT8Huz_11ettlex_core5model2epNtB2_2Ep9has_child
FNDA:1,_RNvNtNtNtCsixIA6ROfhIR_11ettlex_core5model2ep5testss_11test_new_ep
FNDA:1,_RNvNtNtNtCsixIA6ROfhIR_11ettlex_core5model2ep5testss_34test_ep_content_digest_is_64_chars
FNDA:1,_RNvNtNtNtCsixIA6ROfhIR_11ettlex_core5model2ep5testss_39test_ep_content_digest_is_deterministic
FNDA:1,_RNvNtNtNtCsixIA6ROfhIR_11ettlex_core5model2ep5testss_43test_ep_content_digest_changes_with_content
FNDA:1,_RNvMNtNtCsixIA6ROfhIR_11ettlex_core5model2epNtB2_2Ep10is_deleted
FNDA:56,_RNvMNtNtCsixIA6ROfhIR_11ettlex_core5model2epNtB2_2Ep22compute_content_digest
FNDA:0,_RNvMNtNtCsixIA6ROfhIR_11ettlex_core5model2epNtB2_2Ep24recompute_content_digest
FNDA:56,_RNvMNtNtCsixIA6ROfhIR_11ettlex_core5model2epNtB2_2Ep3new
FNDA:1,_RNvMNtNtCsixIA6ROfhIR_11ettlex_core5model2epNtB2_2Ep7is_leaf
FNDA:1,_RNvMNtNtCsixIA6ROfhIR_11ettlex_core5model2epNtB2_2Ep9has_child
FNF:10
FNH:10
DA:66,704
DA:67,704
DA:68,704
DA:69,704
DA:70,704
DA:71,704
DA:72,704
DA:73,704
DA:74,704
DA:75,704
DA:76,704
DA:77,704
DA:78,704
DA:79,704
DA:80,704
DA:81,704
DA:82,704
DA:83,704
DA:84,704
DA:85,704
DA:86,704
DA:87,704
DA:88,704
DA:89,704
DA:90,704
DA:91,704
DA:92,704
DA:97,18
DA:98,18
DA:99,18
DA:101,722
DA:102,722
DA:103,722
DA:104,722
DA:105,722
DA:106,722
DA:107,722
DA:108,722
DA:109,722
DA:110,722
DA:113,4
DA:114,4
DA:115,4
DA:118,1
DA:119,1
DA:120,1
DA:123,1
DA:124,1
DA:125,1
DA:133,1
DA:134,1
DA:135,1
DA:136,1
DA:139,1
DA:140,1
DA:141,1
DA:143,1
DA:144,1
DA:147,1
DA:148,1
DA:149,1
DA:150,1
DA:153,1
DA:154,1
DA:155,1
DA:157,1
DA:158,1
DA:159,1
DA:162,1
DA:163,1
DA:164,1
DA:166,1
DA:170,1
DA:173,1
DA:174,1
DA:175,1
DA:176,1
DA:179,1
DA:180,1
DA:181,1
DA:183,1
DA:184,1
DA:185,1
DA:188,1
DA:189,1
DA:190,1
DA:192,1
DA:196,1
DA:199,1
DA:200,1
DA:201,1
DA:202,1
DA:205,1
DA:206,1
DA:207,1
DA:210,1
DA:211,1
DA:212,1
DA:213,1
DA:214,1
DA:215,1
DA:216,1
DA:217,1
DA:218,1
DA:219,1
DA:220,1
BRF:0
BRH:0
LF:106
LH:106
end_of_record
SF:/Users/nick/Development/EttleX/EttleX-Project/Rust/crates/ettlex-core/src/model/ettle.rs
FN:99,_RNCNvMNtNtCs4640luT8Huz_11ettlex_core5model5ettleNtB4_5Ettle12remove_ep_id0B8_
FN:98,_RNvMNtNtCs4640luT8Huz_11ettlex_core5model5ettleNtB2_5Ettle12remove_ep_id
FN:71,_RNvMNtNtCs4640luT8Huz_11ettlex_core5model5ettleNtB2_5Ettle10has_parent
FN:85,_RNvMNtNtCs4640luT8Huz_11ettlex_core5model5ettleNtB2_5Ettle10is_deleted
FN:50,_RNvMNtNtCs4640luT8Huz_11ettlex_core5model5ettleNtB2_5Ettle3new
FN:80,_RNvMNtNtCs4640luT8Huz_11ettlex_core5model5ettleNtB2_5Ettle7has_eps
FN:66,_RNvMNtNtCs4640luT8Huz_11ettlex_core5model5ettleNtB2_5Ettle7is_root
FN:90,_RNvMNtNtCs4640luT8Huz_11ettlex_core5model5ettleNtB2_5Ettle9add_ep_id
FN:108,_RNvNtNtNtCsixIA6ROfhIR_11ettlex_core5model5ettle5testss_14test_new_ettle
FN:121,_RNvNtNtNtCsixIA6ROfhIR_11ettlex_core5model5ettle5testss_21test_add_remove_ep_id
FN:99,_RNCNvMNtNtCsixIA6ROfhIR_11ettlex_core5model5ettleNtB4_5Ettle12remove_ep_id0B8_
FN:71,_RNvMNtNtCsixIA6ROfhIR_11ettlex_core5model5ettleNtB2_5Ettle10has_parent
FN:85,_RNvMNtNtCsixIA6ROfhIR_11ettlex_core5model5ettleNtB2_5Ettle10is_deleted
FN:98,_RNvMNtNtCsixIA6ROfhIR_11ettlex_core5model5ettleNtB2_5Ettle12remove_ep_id
FN:50,_RNvMNtNtCsixIA6ROfhIR_11ettlex_core5model5ettleNtB2_5Ettle3new
FN:80,_RNvMNtNtCsixIA6ROfhIR_11ettlex_core5model5ettleNtB2_5Ettle7has_eps
FN:66,_RNvMNtNtCsixIA6ROfhIR_11ettlex_core5model5ettleNtB2_5Ettle7is_root
FN:90,_RNvMNtNtCsixIA6ROfhIR_11ettlex_core5model5ettleNtB2_5Ettle9add_ep_id
FNDA:0,_RNCNvMNtNtCs4640luT8Huz_11ettlex_core5model5ettleNtB4_5Ettle12remove_ep_id0B8_
FNDA:0,_RNvMNtNtCs4640luT8Huz_11ettlex_core5model5ettleNtB2_5Ettle12remove_ep_id
FNDA:1,_RNvMNtNtCs4640luT8Huz_11ettlex_core5model5ettleNtB2_5Ettle10has_parent
FNDA:1,_RNvMNtNtCs4640luT8Huz_11ettlex_core5model5ettleNtB2_5Ettle10is_deleted
FNDA:993,_RNvMNtNtCs4640luT8Huz_11ettlex_core5model5ettleNtB2_5Ettle3new
FNDA:0,_RNvMNtNtCs4640luT8Huz_11ettlex_core5model5ettleNtB2_5Ettle7has_eps
FNDA:3,_RNvMNtNtCs4640luT8Huz_11ettlex_core5model5ettleNtB2_5Ettle7is_root
FNDA:574,_RNvMNtNtCs4640luT8Huz_11ettlex_core5model5ettleNtB2_5Ettle9add_ep_id
FNDA:1,_RNvNtNtNtCsixIA6ROfhIR_11ettlex_core5model5ettle5testss_14test_new_ettle
FNDA:1,_RNvNtNtNtCsixIA6ROfhIR_11ettlex_core5model5ettle5testss_21test_add_remove_ep_id
FNDA:2,_RNCNvMNtNtCsixIA6ROfhIR_11ettlex_core5model5ettleNtB4_5Ettle12remove_ep_id0B8_
FNDA:1,_RNvMNtNtCsixIA6ROfhIR_11ettlex_core5model5ettleNtB2_5Ettle10has_parent
FNDA:1,_RNvMNtNtCsixIA6ROfhIR_11ettlex_core5model5ettleNtB2_5Ettle10is_deleted
FNDA:1,_RNvMNtNtCsixIA6ROfhIR_11ettlex_core5model5ettleNtB2_5Ettle12remove_ep_id
FNDA:59,_RNvMNtNtCsixIA6ROfhIR_11ettlex_core5model5ettleNtB2_5Ettle3new
FNDA:2,_RNvMNtNtCsixIA6ROfhIR_11ettlex_core5model5ettleNtB2_5Ettle7has_eps
FNDA:2,_RNvMNtNtCsixIA6ROfhIR_11ettlex_core5model5ettleNtB2_5Ettle7is_root
FNDA:52,_RNvMNtNtCsixIA6ROfhIR_11ettlex_core5model5ettleNtB2_5Ettle9add_ep_id
FNF:10
FNH:10
DA:50,1052
DA:51,1052
DA:52,1052
DA:53,1052
DA:54,1052
DA:55,1052
DA:56,1052
DA:57,1052
DA:58,1052
DA:59,1052
DA:60,1052
DA:61,1052
DA:62,1052
DA:63,1052
DA:66,5
DA:67,5
DA:68,5
DA:71,2
DA:72,2
DA:73,2
DA:80,2
DA:81,2
DA:82,2
DA:85,2
DA:86,2
DA:87,2
DA:90,626
DA:91,626
DA:92,625
DA:93,625
DA:94,626
DA:98,1
DA:99,2
DA:100,1
DA:108,1
DA:109,1
DA:111,1
DA:112,1
DA:113,1
DA:114,1
DA:115,1
DA:116,1
DA:117,1
DA:118,1
DA:121,1
DA:122,1
DA:124,1
DA:125,1
DA:126,1
DA:128,1
DA:129,1
DA:132,1
DA:133,1
DA:135,1
DA:136,1
DA:137,1
DA:138,1
BRF:0
BRH:0
LF:58
LH:58
end_of_record
SF:/Users/nick/Development/EttleX/EttleX-Project/Rust/crates/ettlex-core/src/model/metadata.rs
FN:37,_RNvMNtNtCs4640luT8Huz_11ettlex_core5model8metadataNtB2_8Metadata12contains_key
FN:22,_RNvMNtNtCs4640luT8Huz_11ettlex_core5model8metadataNtB2_8Metadata3get
FN:47,_RNvMNtNtCs4640luT8Huz_11ettlex_core5model8metadataNtB2_8Metadata3len
FN:15,_RNvMNtNtCs4640luT8Huz_11ettlex_core5model8metadataNtB2_8Metadata3new
FN:27,_RNvMNtNtCs4640luT8Huz_11ettlex_core5model8metadataNtB2_8Metadata3set
FN:42,_RNvMNtNtCs4640luT8Huz_11ettlex_core5model8metadataNtB2_8Metadata4keys
FN:32,_RNvMNtNtCs4640luT8Huz_11ettlex_core5model8metadataNtB2_8Metadata6remove
FN:52,_RNvMNtNtCs4640luT8Huz_11ettlex_core5model8metadataNtB2_8Metadata8is_empty
FN:58,_RNvXs_NtNtCs4640luT8Huz_11ettlex_core5model8metadataNtB4_8MetadataINtNtCsezyhsC6CBT9_4core7convert4FromINtNtNtNtCs3rJPW0F9RIs_3std11collections4hash3map7HashMapNtNtCs5bkkNO3hTYU_5alloc6string6StringNtNtCsfvPug1IPAsx_10serde_json5value5ValueEE4from
FN:15,_RNvMNtNtCsixIA6ROfhIR_11ettlex_core5model8metadataNtB2_8Metadata3new
FN:52,_RNvMNtNtCsixIA6ROfhIR_11ettlex_core5model8metadataNtB2_8Metadata8is_empty
FN:37,_RNvMNtNtCsixIA6ROfhIR_11ettlex_core5model8metadataNtB2_8Metadata12contains_key
FN:22,_RNvMNtNtCsixIA6ROfhIR_11ettlex_core5model8metadataNtB2_8Metadata3get
FN:47,_RNvMNtNtCsixIA6ROfhIR_11ettlex_core5model8metadataNtB2_8Metadata3len
FN:27,_RNvMNtNtCsixIA6ROfhIR_11ettlex_core5model8metadataNtB2_8Metadata3set
FN:42,_RNvMNtNtCsixIA6ROfhIR_11ettlex_core5model8metadataNtB2_8Metadata4keys
FN:32,_RNvMNtNtCsixIA6ROfhIR_11ettlex_core5model8metadataNtB2_8Metadata6remove
FN:64,_RNvXs0_NtNtCsixIA6ROfhIR_11ettlex_core5model8metadataINtNtNtNtCs3rJPW0F9RIs_3std11collections4hash3map7HashMapNtNtCs5bkkNO3hTYU_5alloc6string6StringNtNtCsfvPug1IPAsx_10serde_json5value5ValueEINtNtCsezyhsC6CBT9_4core7convert4FromNtB5_8MetadataE4from
FN:58,_RNvXs_NtNtCsixIA6ROfhIR_11ettlex_core5model8metadataNtB4_8MetadataINtNtCsezyhsC6CBT9_4core7convert4FromINtNtNtNtCs3rJPW0F9RIs_3std11collections4hash3map7HashMapNtNtCs5bkkNO3hTYU_5alloc6string6StringNtNtCsfvPug1IPAsx_10serde_json5value5ValueEE4from
FNDA:0,_RNvMNtNtCs4640luT8Huz_11ettlex_core5model8metadataNtB2_8Metadata12contains_key
FNDA:6,_RNvMNtNtCs4640luT8Huz_11ettlex_core5model8metadataNtB2_8Metadata3get
FNDA:2,_RNvMNtNtCs4640luT8Huz_11ettlex_core5model8metadataNtB2_8Metadata3len
FNDA:997,_RNvMNtNtCs4640luT8Huz_11ettlex_core5model8metadataNtB2_8Metadata3new
FNDA:13,_RNvMNtNtCs4640luT8Huz_11ettlex_core5model8metadataNtB2_8Metadata3set
FNDA:0,_RNvMNtNtCs4640luT8Huz_11ettlex_core5model8metadataNtB2_8Metadata4keys
FNDA:0,_RNvMNtNtCs4640luT8Huz_11ettlex_core5model8metadataNtB2_8Metadata6remove
FNDA:1,_RNvMNtNtCs4640luT8Huz_11ettlex_core5model8metadataNtB2_8Metadata8is_empty
FNDA:1,_RNvXs_NtNtCs4640luT8Huz_11ettlex_core5model8metadataNtB4_8MetadataINtNtCsezyhsC6CBT9_4core7convert4FromINtNtNtNtCs3rJPW0F9RIs_3std11collections4hash3map7HashMapNtNtCs5bkkNO3hTYU_5alloc6string6StringNtNtCsfvPug1IPAsx_10serde_json5value5ValueEE4from
FNDA:59,_RNvMNtNtCsixIA6ROfhIR_11ettlex_core5model8metadataNtB2_8Metadata3new
FNDA:1,_RNvMNtNtCsixIA6ROfhIR_11ettlex_core5model8metadataNtB2_8Metadata8is_empty
FNDA:0,_RNvMNtNtCsixIA6ROfhIR_11ettlex_core5model8metadataNtB2_8Metadata12contains_key
FNDA:0,_RNvMNtNtCsixIA6ROfhIR_11ettlex_core5model8metadataNtB2_8Metadata3get
FNDA:0,_RNvMNtNtCsixIA6ROfhIR_11ettlex_core5model8metadataNtB2_8Metadata3len
FNDA:0,_RNvMNtNtCsixIA6ROfhIR_11ettlex_core5model8metadataNtB2_8Metadata3set
FNDA:0,_RNvMNtNtCsixIA6ROfhIR_11ettlex_core5model8metadataNtB2_8Metadata4keys
FNDA:0,_RNvMNtNtCsixIA6ROfhIR_11ettlex_core5model8metadataNtB2_8Metadata6remove
FNDA:0,_RNvXs0_NtNtCsixIA6ROfhIR_11ettlex_core5model8metadataINtNtNtNtCs3rJPW0F9RIs_3std11collections4hash3map7HashMapNtNtCs5bkkNO3hTYU_5alloc6string6StringNtNtCsfvPug1IPAsx_10serde_json5value5ValueEINtNtCsezyhsC6CBT9_4core7convert4FromNtB5_8MetadataE4from
FNDA:0,_RNvXs_NtNtCsixIA6ROfhIR_11ettlex_core5model8metadataNtB4_8MetadataINtNtCsezyhsC6CBT9_4core7convert4FromINtNtNtNtCs3rJPW0F9RIs_3std11collections4hash3map7HashMapNtNtCs5bkkNO3hTYU_5alloc6string6StringNtNtCsfvPug1IPAsx_10serde_json5value5ValueEE4from
FNF:10
FNH:6
DA:15,1056
DA:16,1056
DA:17,1056
DA:18,1056
DA:19,1056
DA:22,6
DA:23,6
DA:24,6
DA:27,13
DA:28,13
DA:29,13
DA:32,0
DA:33,0
DA:34,0
DA:37,0
DA:38,0
DA:39,0
DA:42,0
DA:43,0
DA:44,0
DA:47,2
DA:48,2
DA:49,2
DA:52,2
DA:53,2
DA:54,2
DA:58,1
DA:59,1
DA:60,1
DA:64,0
DA:65,0
DA:66,0
BRF:0
BRH:0
LF:32
LH:20
end_of_record
SF:/Users/nick/Development/EttleX/EttleX-Project/Rust/crates/ettlex-core/src/ops/constraint_ops.rs
FN:163,_RNvNtNtCs4640luT8Huz_11ettlex_core3ops14constraint_ops14get_constraint
FN:30,_RNvNtNtCs4640luT8Huz_11ettlex_core3ops14constraint_ops17create_constraint
FN:64,_RNvNtNtCs4640luT8Huz_11ettlex_core3ops14constraint_ops17update_constraint
FN:83,_RNvNtNtCs4640luT8Huz_11ettlex_core3ops14constraint_ops20tombstone_constraint
FN:100,_RNvNtNtCs4640luT8Huz_11ettlex_core3ops14constraint_ops23attach_constraint_to_ep
FN:174,_RNvNtNtCs4640luT8Huz_11ettlex_core3ops14constraint_ops23list_constraints_for_ep
FN:139,_RNvNtNtCs4640luT8Huz_11ettlex_core3ops14constraint_ops25detach_constraint_from_ep
FN:30,_RNvNtNtCsixIA6ROfhIR_11ettlex_core3ops14constraint_ops17create_constraint
FN:64,_RNvNtNtCsixIA6ROfhIR_11ettlex_core3ops14constraint_ops17update_constraint
FN:83,_RNvNtNtCsixIA6ROfhIR_11ettlex_core3ops14constraint_ops20tombstone_constraint
FN:100,_RNvNtNtCsixIA6ROfhIR_11ettlex_core3ops14constraint_ops23attach_constraint_to_ep
FN:174,_RNvNtNtCsixIA6ROfhIR_11ettlex_core3ops14constraint_ops23list_constraints_for_ep
FN:139,_RNvNtNtCsixIA6ROfhIR_11ettlex_core3ops14constraint_ops25detach_constraint_from_ep
FN:200,_RNvNtNtNtCsixIA6ROfhIR_11ettlex_core3ops14constraint_ops5tests19setup_store_with_ep
FN:230,_RNvNtNtNtCsixIA6ROfhIR_11ettlex_core3ops14constraint_ops5testss_22test_create_constraint
FN:254,_RNvNtNtNtCsixIA6ROfhIR_11ettlex_core3ops14constraint_ops5testss_22test_update_constraint
FN:290,_RNvNtNtNtCsixIA6ROfhIR_11ettlex_core3ops14constraint_ops5testss_25test_tombstone_constraint
FN:314,_RNvNtNtNtCsixIA6ROfhIR_11ettlex_core3ops14constraint_ops5testss_28test_attach_constraint_to_ep
FN:423,_RNvNtNtNtCsixIA6ROfhIR_11ettlex_core3ops14constraint_ops5testss_28test_list_constraints_for_ep
FN:362,_RNvNtNtNtCsixIA6ROfhIR_11ettlex_core3ops14constraint_ops5testss_30test_attach_deleted_constraint
FN:387,_RNvNtNtNtCsixIA6ROfhIR_11ettlex_core3ops14constraint_ops5testss_30test_detach_constraint_from_ep
FN:277,_RNvNtNtNtCsixIA6ROfhIR_11ettlex_core3ops14constraint_ops5testss_34test_update_nonexistent_constraint
FN:411,_RNvNtNtNtCsixIA6ROfhIR_11ettlex_core3ops14constraint_ops5testss_35test_detach_constraint_not_attached
FN:336,_RNvNtNtNtCsixIA6ROfhIR_11ettlex_core3ops14constraint_ops5testss_39test_attach_constraint_already_attached
FN:453,_RNvNtNtNtCsixIA6ROfhIR_11ettlex_core3ops14constraint_ops5testss_40test_list_constraints_for_nonexistent_ep
FN:163,_RNvNtNtCsixIA6ROfhIR_11ettlex_core3ops14constraint_ops14get_constraint
FNDA:1,_RNvNtNtCs4640luT8Huz_11ettlex_core3ops14constraint_ops14get_constraint
FNDA:638,_RNvNtNtCs4640luT8Huz_11ettlex_core3ops14constraint_ops17create_constraint
FNDA:3,_RNvNtNtCs4640luT8Huz_11ettlex_core3ops14constraint_ops17update_constraint
FNDA:3,_RNvNtNtCs4640luT8Huz_11ettlex_core3ops14constraint_ops20tombstone_constraint
FNDA:619,_RNvNtNtCs4640luT8Huz_11ettlex_core3ops14constraint_ops23attach_constraint_to_ep
FNDA:3,_RNvNtNtCs4640luT8Huz_11ettlex_core3ops14constraint_ops23list_constraints_for_ep
FNDA:3,_RNvNtNtCs4640luT8Huz_11ettlex_core3ops14constraint_ops25detach_constraint_from_ep
FNDA:21,_RNvNtNtCsixIA6ROfhIR_11ettlex_core3ops14constraint_ops17create_constraint
FNDA:5,_RNvNtNtCsixIA6ROfhIR_11ettlex_core3ops14constraint_ops17update_constraint
FNDA:8,_RNvNtNtCsixIA6ROfhIR_11ettlex_core3ops14constraint_ops20tombstone_constraint
FNDA:15,_RNvNtNtCsixIA6ROfhIR_11ettlex_core3ops14constraint_ops23attach_constraint_to_ep
FNDA:2,_RNvNtNtCsixIA6ROfhIR_11ettlex_core3ops14constraint_ops23list_constraints_for_ep
FNDA:4,_RNvNtNtCsixIA6ROfhIR_11ettlex_core3ops14constraint_ops25detach_constraint_from_ep
FNDA:6,_RNvNtNtNtCsixIA6ROfhIR_11ettlex_core3ops14constraint_ops5tests19setup_store_with_ep
FNDA:1,_RNvNtNtNtCsixIA6ROfhIR_11ettlex_core3ops14constraint_ops5testss_22test_create_constraint
FNDA:1,_RNvNtNtNtCsixIA6ROfhIR_11ettlex_core3ops14constraint_ops5testss_22test_update_constraint
FNDA:1,_RNvNtNtNtCsixIA6ROfhIR_11ettlex_core3ops14constraint_ops5testss_25test_tombstone_constraint
FNDA:1,_RNvNtNtNtCsixIA6ROfhIR_11ettlex_core3ops14constraint_ops5testss_28test_attach_constraint_to_ep
FNDA:1,_RNvNtNtNtCsixIA6ROfhIR_11ettlex_core3ops14constraint_ops5testss_28test_list_constraints_for_ep
FNDA:1,_RNvNtNtNtCsixIA6ROfhIR_11ettlex_core3ops14constraint_ops5testss_30test_attach_deleted_constraint
FNDA:1,_RNvNtNtNtCsixIA6ROfhIR_11ettlex_core3ops14constraint_ops5testss_30test_detach_constraint_from_ep
FNDA:1,_RNvNtNtNtCsixIA6ROfhIR_11ettlex_core3ops14constraint_ops5testss_34test_update_nonexistent_constraint
FNDA:1,_RNvNtNtNtCsixIA6ROfhIR_11ettlex_core3ops14constraint_ops5testss_35test_detach_constraint_not_attached
FNDA:1,_RNvNtNtNtCsixIA6ROfhIR_11ettlex_core3ops14constraint_ops5testss_39test_attach_constraint_already_attached
FNDA:1,_RNvNtNtNtCsixIA6ROfhIR_11ettlex_core3ops14constraint_ops5testss_40test_list_constraints_for_nonexistent_ep
FNDA:0,_RNvNtNtCsixIA6ROfhIR_11ettlex_core3ops14constraint_ops14get_constraint
FNF:19
FNH:19
DA:30,659
DA:31,659
DA:32,659
DA:33,659
DA:34,659
DA:35,659
DA:36,659
DA:37,659
DA:38,659
DA:39,1
DA:40,1
DA:41,1
DA:42,658
DA:44,658
DA:45,1
DA:46,1
DA:47,1
DA:48,657
DA:50,657
DA:51,657
DA:52,657
DA:53,659
DA:64,8
DA:65,8
DA:66,8
DA:67,8
DA:68,8
DA:69,8
DA:70,4
DA:71,4
DA:72,8
DA:83,11
DA:84,11
DA:85,9
DA:86,9
DA:87,11
DA:100,634
DA:101,634
DA:102,634
DA:103,634
DA:104,634
DA:105,634
DA:107,634
DA:108,632
DA:109,3
DA:110,3
DA:111,3
DA:112,629
DA:115,629
DA:118,626
DA:119,3
DA:120,3
DA:121,3
DA:122,3
DA:123,623
DA:126,623
DA:127,623
DA:129,623
DA:130,634
DA:139,7
DA:140,7
DA:141,7
DA:142,7
DA:143,7
DA:144,7
DA:145,3
DA:146,3
DA:147,3
DA:148,3
DA:149,4
DA:151,4
DA:152,4
DA:153,7
DA:163,1
DA:164,1
DA:165,1
DA:174,5
DA:176,5
DA:179,4
DA:180,4
DA:183,4
DA:184,104
DA:185,104
DA:186,104
DA:187,104
DA:190,4
DA:191,5
DA:200,6
DA:201,6
DA:204,6
DA:205,6
DA:206,6
DA:207,6
DA:208,6
DA:209,6
DA:210,6
DA:212,6
DA:215,6
DA:216,6
DA:217,6
DA:220,6
DA:221,6
DA:222,6
DA:224,6
DA:226,6
DA:227,6
DA:230,1
DA:231,1
DA:232,1
DA:234,1
DA:235,1
DA:236,1
DA:237,1
DA:238,1
DA:239,1
DA:240,1
DA:243,1
DA:245,1
DA:246,1
DA:247,1
DA:248,1
DA:249,1
DA:250,1
DA:251,1
DA:254,1
DA:255,1
DA:256,1
DA:257,1
DA:259,1
DA:260,1
DA:261,1
DA:262,1
DA:263,1
DA:264,1
DA:265,1
DA:267,1
DA:269,1
DA:270,1
DA:272,1
DA:273,1
DA:274,1
DA:277,1
DA:278,1
DA:279,1
DA:281,1
DA:282,1
DA:283,1
DA:284,1
DA:287,1
DA:290,1
DA:291,1
DA:292,1
DA:294,1
DA:295,1
DA:296,1
DA:297,1
DA:298,1
DA:299,1
DA:300,1
DA:302,1
DA:304,1
DA:305,1
DA:308,1
DA:309,1
DA:310,1
DA:311,1
DA:314,1
DA:315,1
DA:316,1
DA:318,1
DA:319,1
DA:320,1
DA:321,1
DA:322,1
DA:323,1
DA:324,1
DA:326,1
DA:328,1
DA:329,1
DA:332,1
DA:333,1
DA:336,1
DA:337,1
DA:338,1
DA:340,1
DA:341,1
DA:342,1
DA:343,1
DA:344,1
DA:345,1
DA:346,1
DA:348,1
DA:350,1
DA:353,1
DA:354,1
DA:355,1
DA:356,1
DA:359,1
DA:362,1
DA:363,1
DA:364,1
DA:366,1
DA:367,1
DA:368,1
DA:369,1
DA:370,1
DA:371,1
DA:372,1
DA:374,1
DA:376,1
DA:378,1
DA:379,1
DA:380,1
DA:381,1
DA:384,1
DA:387,1
DA:388,1
DA:389,1
DA:391,1
DA:392,1
DA:393,1
DA:394,1
DA:395,1
DA:396,1
DA:397,1
DA:399,1
DA:401,1
DA:403,1
DA:404,1
DA:407,1
DA:408,1
DA:411,1
DA:412,1
DA:414,1
DA:415,1
DA:416,1
DA:417,1
DA:420,1
DA:423,1
DA:424,1
DA:427,3
DA:428,3
DA:429,3
DA:430,3
DA:431,3
DA:432,3
DA:433,3
DA:434,3
DA:435,3
DA:436,3
DA:437,3
DA:438,3
DA:439,3
DA:440,3
DA:441,3
DA:443,1
DA:444,1
DA:447,1
DA:448,1
DA:449,1
DA:450,1
DA:453,1
DA:454,1
DA:456,1
DA:457,1
DA:458,1
DA:459,1
BRF:0
BRH:0
LF:267
LH:267
end_of_record
SF:/Users/nick/Development/EttleX/EttleX-Project/Rust/crates/ettlex-core/src/ops/decision_ops.rs
FN:38,_RNvNtNtCs4640luT8Huz_11ettlex_core3ops12decision_ops15create_decision
FN:187,_RNvNtNtCs4640luT8Huz_11ettlex_core3ops12decision_ops15update_decision
FN:122,_RNvNtNtCs4640luT8Huz_11ettlex_core3ops12decision_ops17validate_evidence
FN:386,_RNvNtNtCs4640luT8Huz_11ettlex_core3ops12decision_ops18supersede_decision
FN:259,_RNvNtNtCs4640luT8Huz_11ettlex_core3ops12decision_ops18tombstone_decision
FN:277,_RNvNtNtCs4640luT8Huz_11ettlex_core3ops12decision_ops25attach_decision_to_target
FN:358,_RNvNtNtCs4640luT8Huz_11ettlex_core3ops12decision_ops27detach_decision_from_target
FN:78,_RNCNvNtNtCs4640luT8Huz_11ettlex_core3ops12decision_ops15create_decision0B7_
FN:102,_RNCNvNtNtCs4640luT8Huz_11ettlex_core3ops12decision_ops15create_decisions_0B7_
FN:291,_RNCNvNtNtCs4640luT8Huz_11ettlex_core3ops12decision_ops25attach_decision_to_target0B7_
FN:38,_RNvNtNtCsixIA6ROfhIR_11ettlex_core3ops12decision_ops15create_decision
FN:187,_RNvNtNtCsixIA6ROfhIR_11ettlex_core3ops12decision_ops15update_decision
FN:122,_RNvNtNtCsixIA6ROfhIR_11ettlex_core3ops12decision_ops17validate_evidence
FN:386,_RNvNtNtCsixIA6ROfhIR_11ettlex_core3ops12decision_ops18supersede_decision
FN:259,_RNvNtNtCsixIA6ROfhIR_11ettlex_core3ops12decision_ops18tombstone_decision
FN:277,_RNvNtNtCsixIA6ROfhIR_11ettlex_core3ops12decision_ops25attach_decision_to_target
FN:358,_RNvNtNtCsixIA6ROfhIR_11ettlex_core3ops12decision_ops27detach_decision_from_target
FN:411,_RNvNtNtNtCsixIA6ROfhIR_11ettlex_core3ops12decision_ops5tests19setup_store_with_ep
FN:439,_RNvNtNtNtCsixIA6ROfhIR_11ettlex_core3ops12decision_ops5testss_20test_create_decision
FN:518,_RNvNtNtNtCsixIA6ROfhIR_11ettlex_core3ops12decision_ops5testss_23test_supersede_decision
FN:486,_RNvNtNtNtCsixIA6ROfhIR_11ettlex_core3ops12decision_ops5testss_26test_attach_decision_to_ep
FN:463,_RNvNtNtNtCsixIA6ROfhIR_11ettlex_core3ops12decision_ops5testss_36test_create_decision_validates_title
FN:78,_RNCNvNtNtCsixIA6ROfhIR_11ettlex_core3ops12decision_ops15create_decision0B7_
FN:102,_RNCNvNtNtCsixIA6ROfhIR_11ettlex_core3ops12decision_ops15create_decisions_0B7_
FN:291,_RNCNvNtNtCsixIA6ROfhIR_11ettlex_core3ops12decision_ops25attach_decision_to_target0B7_
FNDA:587,_RNvNtNtCs4640luT8Huz_11ettlex_core3ops12decision_ops15create_decision
FNDA:4,_RNvNtNtCs4640luT8Huz_11ettlex_core3ops12decision_ops15update_decision
FNDA:584,_RNvNtNtCs4640luT8Huz_11ettlex_core3ops12decision_ops17validate_evidence
FNDA:5,_RNvNtNtCs4640luT8Huz_11ettlex_core3ops12decision_ops18supersede_decision
FNDA:9,_RNvNtNtCs4640luT8Huz_11ettlex_core3ops12decision_ops18tombstone_decision
FNDA:38,_RNvNtNtCs4640luT8Huz_11ettlex_core3ops12decision_ops25attach_decision_to_target
FNDA:4,_RNvNtNtCs4640luT8Huz_11ettlex_core3ops12decision_ops27detach_decision_from_target
FNDA:6,_RNCNvNtNtCs4640luT8Huz_11ettlex_core3ops12decision_ops15create_decision0B7_
FNDA:33,_RNCNvNtNtCs4640luT8Huz_11ettlex_core3ops12decision_ops15create_decisions_0B7_
FNDA:2,_RNCNvNtNtCs4640luT8Huz_11ettlex_core3ops12decision_ops25attach_decision_to_target0B7_
FNDA:5,_RNvNtNtCsixIA6ROfhIR_11ettlex_core3ops12decision_ops15create_decision
FNDA:0,_RNvNtNtCsixIA6ROfhIR_11ettlex_core3ops12decision_ops15update_decision
FNDA:4,_RNvNtNtCsixIA6ROfhIR_11ettlex_core3ops12decision_ops17validate_evidence
FNDA:1,_RNvNtNtCsixIA6ROfhIR_11ettlex_core3ops12decision_ops18supersede_decision
FNDA:0,_RNvNtNtCsixIA6ROfhIR_11ettlex_core3ops12decision_ops18tombstone_decision
FNDA:2,_RNvNtNtCsixIA6ROfhIR_11ettlex_core3ops12decision_ops25attach_decision_to_target
FNDA:0,_RNvNtNtCsixIA6ROfhIR_11ettlex_core3ops12decision_ops27detach_decision_from_target
FNDA:1,_RNvNtNtNtCsixIA6ROfhIR_11ettlex_core3ops12decision_ops5tests19setup_store_with_ep
FNDA:1,_RNvNtNtNtCsixIA6ROfhIR_11ettlex_core3ops12decision_ops5testss_20test_create_decision
FNDA:1,_RNvNtNtNtCsixIA6ROfhIR_11ettlex_core3ops12decision_ops5testss_23test_supersede_decision
FNDA:1,_RNvNtNtNtCsixIA6ROfhIR_11ettlex_core3ops12decision_ops5testss_26test_attach_decision_to_ep
FNDA:1,_RNvNtNtNtCsixIA6ROfhIR_11ettlex_core3ops12decision_ops5testss_36test_create_decision_validates_title
FNDA:2,_RNCNvNtNtCsixIA6ROfhIR_11ettlex_core3ops12decision_ops15create_decision0B7_
FNDA:4,_RNCNvNtNtCsixIA6ROfhIR_11ettlex_core3ops12decision_ops15create_decisions_0B7_
FNDA:0,_RNCNvNtNtCsixIA6ROfhIR_11ettlex_core3ops12decision_ops25attach_decision_to_target0B7_
FNF:15
FNH:15
DA:38,592
DA:39,592
DA:40,592
DA:41,592
DA:42,592
DA:43,592
DA:44,592
DA:45,592
DA:46,592
DA:47,592
DA:48,592
DA:49,592
DA:50,592
DA:51,592
DA:53,592
DA:54,2
DA:55,2
DA:56,2
DA:57,590
DA:58,590
DA:59,1
DA:60,1
DA:61,1
DA:62,589
DA:63,589
DA:64,1
DA:65,1
DA:66,1
DA:67,588
DA:70,588
DA:71,588
DA:72,588
DA:73,588
DA:74,588
DA:75,4
DA:78,584
DA:80,8
DA:81,8
DA:84,584
DA:85,1
DA:86,1
DA:87,1
DA:88,583
DA:91,583
DA:92,3
DA:93,3
DA:94,3
DA:95,3
DA:96,3
DA:98,580
DA:102,583
DA:103,583
DA:104,583
DA:105,583
DA:106,583
DA:107,583
DA:108,583
DA:109,583
DA:110,583
DA:111,583
DA:112,583
DA:113,583
DA:114,583
DA:117,583
DA:118,583
DA:119,592
DA:122,588
DA:123,588
DA:124,588
DA:125,588
DA:126,588
DA:127,588
DA:128,588
DA:129,588
DA:131,577
DA:132,577
DA:133,577
DA:135,0
DA:136,0
DA:137,0
DA:138,577
DA:140,11
DA:142,2
DA:143,0
DA:144,0
DA:145,0
DA:146,2
DA:148,9
DA:150,4
DA:151,1
DA:152,1
DA:153,1
DA:154,3
DA:156,5
DA:158,5
DA:159,4
DA:160,2
DA:161,2
DA:162,2
DA:163,2
DA:165,1
DA:166,1
DA:167,1
DA:170,0
DA:171,0
DA:172,0
DA:174,584
DA:175,588
DA:187,4
DA:188,4
DA:189,4
DA:190,4
DA:191,4
DA:192,4
DA:193,4
DA:194,4
DA:195,4
DA:196,4
DA:197,4
DA:198,4
DA:199,4
DA:200,4
DA:203,4
DA:207,3
DA:208,0
DA:209,0
DA:210,0
DA:211,0
DA:212,0
DA:213,0
DA:214,3
DA:217,3
DA:218,0
DA:219,0
DA:220,0
DA:221,0
DA:222,0
DA:224,3
DA:228,3
DA:230,3
DA:231,0
DA:232,3
DA:235,3
DA:236,3
DA:237,3
DA:238,3
DA:239,3
DA:240,3
DA:241,3
DA:242,3
DA:243,3
DA:244,3
DA:247,3
DA:248,4
DA:259,9
DA:260,9
DA:261,8
DA:262,8
DA:263,9
DA:277,40
DA:278,40
DA:279,40
DA:280,40
DA:281,40
DA:282,40
DA:283,40
DA:284,40
DA:286,38
DA:287,40
DA:288,40
DA:289,40
DA:290,40
DA:291,2
DA:292,2
DA:295,38
DA:296,1
DA:297,1
DA:298,1
DA:299,37
DA:302,37
DA:303,37
DA:305,1
DA:306,1
DA:307,1
DA:312,36
DA:313,36
DA:314,30
DA:316,6
DA:317,1
DA:319,5
DA:320,0
DA:322,5
DA:323,5
DA:325,0
DA:329,35
DA:330,1
DA:331,1
DA:332,1
DA:333,1
DA:334,1
DA:335,1
DA:336,34
DA:339,34
DA:340,34
DA:341,34
DA:342,34
DA:343,34
DA:344,34
DA:346,34
DA:348,34
DA:349,40
DA:358,4
DA:359,4
DA:360,4
DA:361,4
DA:362,4
DA:363,4
DA:364,4
DA:365,4
DA:366,0
DA:367,0
DA:368,0
DA:369,0
DA:370,0
DA:371,0
DA:372,4
DA:374,4
DA:375,4
DA:376,4
DA:386,6
DA:387,6
DA:388,6
DA:389,6
DA:390,6
DA:392,6
DA:393,5
DA:396,5
DA:397,5
DA:398,5
DA:399,5
DA:400,5
DA:401,5
DA:404,6
DA:411,1
DA:412,1
DA:414,1
DA:415,1
DA:416,1
DA:417,1
DA:418,1
DA:419,1
DA:420,1
DA:422,1
DA:424,1
DA:425,1
DA:426,1
DA:429,1
DA:430,1
DA:431,1
DA:433,1
DA:435,1
DA:436,1
DA:439,1
DA:440,1
DA:442,1
DA:443,1
DA:444,1
DA:445,1
DA:446,1
DA:447,1
DA:448,1
DA:449,1
DA:450,1
DA:451,1
DA:452,1
DA:453,1
DA:454,1
DA:457,1
DA:458,1
DA:459,1
DA:460,1
DA:463,1
DA:464,1
DA:466,1
DA:467,1
DA:468,1
DA:469,1
DA:470,1
DA:471,1
DA:472,1
DA:473,1
DA:474,1
DA:475,1
DA:476,1
DA:477,1
DA:478,1
DA:481,1
DA:482,1
DA:483,1
DA:486,1
DA:487,1
DA:489,1
DA:490,1
DA:491,1
DA:492,1
DA:493,1
DA:494,1
DA:495,1
DA:496,1
DA:497,1
DA:498,1
DA:499,1
DA:500,1
DA:501,1
DA:503,1
DA:505,1
DA:506,1
DA:507,1
DA:508,1
DA:509,1
DA:510,1
DA:514,1
DA:515,1
DA:518,1
DA:519,1
DA:521,1
DA:522,1
DA:523,1
DA:524,1
DA:525,1
DA:526,1
DA:527,1
DA:528,1
DA:529,1
DA:530,1
DA:531,1
DA:532,1
DA:533,1
DA:535,1
DA:537,1
DA:538,1
DA:539,1
DA:540,1
DA:541,1
DA:542,1
DA:543,1
DA:544,1
DA:545,1
DA:546,1
DA:547,1
DA:548,1
DA:549,1
DA:551,1
DA:553,1
DA:554,1
DA:557,1
DA:558,1
BRF:0
BRH:0
LF:360
LH:331
end_of_record
SF:/Users/nick/Development/EttleX/EttleX-Project/Rust/crates/ettlex-core/src/ops/ep_ops.rs
FN:249,_RNCNvNtNtCs4640luT8Huz_11ettlex_core3ops6ep_ops9delete_ep0B7_
FN:122,_RNvNtNtCs4640luT8Huz_11ettlex_core3ops6ep_ops7read_ep
FN:36,_RNvNtNtCs4640luT8Huz_11ettlex_core3ops6ep_ops9create_ep
FN:229,_RNvNtNtCs4640luT8Huz_11ettlex_core3ops6ep_ops9delete_ep
FN:144,_RNvNtNtCs4640luT8Huz_11ettlex_core3ops6ep_ops9update_ep
FN:249,_RNCNvNtNtCsixIA6ROfhIR_11ettlex_core3ops6ep_ops9delete_ep0B7_
FN:36,_RNvNtNtCsixIA6ROfhIR_11ettlex_core3ops6ep_ops9create_ep
FN:229,_RNvNtNtCsixIA6ROfhIR_11ettlex_core3ops6ep_ops9delete_ep
FN:144,_RNvNtNtCsixIA6ROfhIR_11ettlex_core3ops6ep_ops9update_ep
FN:122,_RNvNtNtCsixIA6ROfhIR_11ettlex_core3ops6ep_ops7read_ep
FN:274,_RNvNtNtNtCsixIA6ROfhIR_11ettlex_core3ops6ep_ops5testss_35test_create_ep_generates_unique_ids
FNDA:12,_RNCNvNtNtCs4640luT8Huz_11ettlex_core3ops6ep_ops9delete_ep0B7_
FNDA:3,_RNvNtNtCs4640luT8Huz_11ettlex_core3ops6ep_ops7read_ep
FNDA:127,_RNvNtNtCs4640luT8Huz_11ettlex_core3ops6ep_ops9create_ep
FNDA:20,_RNvNtNtCs4640luT8Huz_11ettlex_core3ops6ep_ops9delete_ep
FNDA:19,_RNvNtNtCs4640luT8Huz_11ettlex_core3ops6ep_ops9update_ep
FNDA:0,_RNCNvNtNtCsixIA6ROfhIR_11ettlex_core3ops6ep_ops9delete_ep0B7_
FNDA:12,_RNvNtNtCsixIA6ROfhIR_11ettlex_core3ops6ep_ops9create_ep
FNDA:1,_RNvNtNtCsixIA6ROfhIR_11ettlex_core3ops6ep_ops9delete_ep
FNDA:0,_RNvNtNtCsixIA6ROfhIR_11ettlex_core3ops6ep_ops9update_ep
FNDA:0,_RNvNtNtCsixIA6ROfhIR_11ettlex_core3ops6ep_ops7read_ep
FNDA:1,_RNvNtNtNtCsixIA6ROfhIR_11ettlex_core3ops6ep_ops5testss_35test_create_ep_generates_unique_ids
FNF:6
FNH:6
DA:36,139
DA:37,139
DA:38,139
DA:39,139
DA:40,139
DA:41,139
DA:42,139
DA:43,139
DA:44,139
DA:46,139
DA:49,137
DA:52,137
DA:53,2
DA:54,2
DA:55,2
DA:56,135
DA:59,135
DA:60,0
DA:61,0
DA:62,0
DA:63,135
DA:67,218
DA:69,218
DA:70,218
DA:71,3
DA:73,1
DA:74,1
DA:75,1
DA:76,1
DA:77,1
DA:80,2
DA:81,2
DA:82,2
DA:83,2
DA:85,215
DA:86,0
DA:90,132
DA:91,132
DA:92,132
DA:93,132
DA:94,132
DA:95,132
DA:96,132
DA:97,132
DA:101,132
DA:104,132
DA:105,132
DA:107,132
DA:108,139
DA:122,3
DA:123,3
DA:124,3
DA:144,19
DA:145,19
DA:146,19
DA:147,19
DA:148,19
DA:149,19
DA:150,19
DA:151,19
DA:152,19
DA:154,19
DA:155,2
DA:156,2
DA:157,2
DA:158,17
DA:161,17
DA:162,7
DA:163,0
DA:164,0
DA:165,0
DA:166,7
DA:167,10
DA:170,17
DA:171,6
DA:172,0
DA:173,0
DA:174,0
DA:175,6
DA:176,11
DA:179,17
DA:182,14
DA:183,11
DA:184,11
DA:186,14
DA:187,7
DA:188,7
DA:190,14
DA:191,6
DA:192,8
DA:194,14
DA:195,1
DA:196,13
DA:198,14
DA:199,2
DA:200,12
DA:203,14
DA:206,14
DA:208,14
DA:209,19
DA:229,21
DA:231,21
DA:234,20
DA:235,2
DA:236,2
DA:237,2
DA:238,18
DA:241,18
DA:243,5
DA:244,5
DA:247,5
DA:248,5
DA:249,12
DA:250,5
DA:253,5
DA:254,3
DA:255,3
DA:256,3
DA:257,3
DA:258,2
DA:259,13
DA:262,15
DA:263,15
DA:264,15
DA:266,15
DA:267,21
DA:274,1
DA:275,1
DA:276,1
DA:277,1
DA:279,1
DA:280,1
DA:281,1
DA:284,1
DA:285,1
DA:286,1
DA:288,1
DA:289,1
DA:290,1
DA:291,1
DA:294,1
DA:295,1
DA:296,1
DA:298,1
DA:300,1
DA:301,1
BRF:0
BRH:0
LF:147
LH:137
end_of_record
SF:/Users/nick/Development/EttleX/EttleX-Project/Rust/crates/ettlex-core/src/ops/ettle_ops.rs
FN:187,_RNCNvNtNtCs4640luT8Huz_11ettlex_core3ops9ettle_ops12delete_ettle0B7_
FN:112,_RNvNtNtCs4640luT8Huz_11ettlex_core3ops9ettle_ops10read_ettle
FN:28,_RNvNtNtCs4640luT8Huz_11ettlex_core3ops9ettle_ops12create_ettle
FN:179,_RNvNtNtCs4640luT8Huz_11ettlex_core3ops9ettle_ops12delete_ettle
FN:131,_RNvNtNtCs4640luT8Huz_11ettlex_core3ops9ettle_ops12update_ettle
FN:187,_RNCNvNtNtCsixIA6ROfhIR_11ettlex_core3ops9ettle_ops12delete_ettle0B7_
FN:28,_RNvNtNtCsixIA6ROfhIR_11ettlex_core3ops9ettle_ops12create_ettle
FN:179,_RNvNtNtCsixIA6ROfhIR_11ettlex_core3ops9ettle_ops12delete_ettle
FN:131,_RNvNtNtCsixIA6ROfhIR_11ettlex_core3ops9ettle_ops12update_ettle
FN:112,_RNvNtNtCsixIA6ROfhIR_11ettlex_core3ops9ettle_ops10read_ettle
FN:210,_RNvNtNtNtCsixIA6ROfhIR_11ettlex_core3ops9ettle_ops5testss_25test_create_ettle_success
FN:270,_RNvNtNtNtCsixIA6ROfhIR_11ettlex_core3ops9ettle_ops5testss_29test_create_ettle_invalid_how
FN:254,_RNvNtNtNtCsixIA6ROfhIR_11ettlex_core3ops9ettle_ops5testss_30test_create_ettle_invalid_what
FN:246,_RNvNtNtNtCsixIA6ROfhIR_11ettlex_core3ops9ettle_ops5testss_31test_create_ettle_invalid_title
FN:222,_RNvNtNtNtCsixIA6ROfhIR_11ettlex_core3ops9ettle_ops5testss_34test_create_ettle_with_ep0_content
FNDA:10,_RNCNvNtNtCs4640luT8Huz_11ettlex_core3ops9ettle_ops12delete_ettle0B7_
FNDA:3,_RNvNtNtCs4640luT8Huz_11ettlex_core3ops9ettle_ops10read_ettle
FNDA:201,_RNvNtNtCs4640luT8Huz_11ettlex_core3ops9ettle_ops12create_ettle
FNDA:11,_RNvNtNtCs4640luT8Huz_11ettlex_core3ops9ettle_ops12delete_ettle
FNDA:7,_RNvNtNtCs4640luT8Huz_11ettlex_core3ops9ettle_ops12update_ettle
FNDA:0,_RNCNvNtNtCsixIA6ROfhIR_11ettlex_core3ops9ettle_ops12delete_ettle0B7_
FNDA:27,_RNvNtNtCsixIA6ROfhIR_11ettlex_core3ops9ettle_ops12create_ettle
FNDA:0,_RNvNtNtCsixIA6ROfhIR_11ettlex_core3ops9ettle_ops12delete_ettle
FNDA:1,_RNvNtNtCsixIA6ROfhIR_11ettlex_core3ops9ettle_ops12update_ettle
FNDA:0,_RNvNtNtCsixIA6ROfhIR_11ettlex_core3ops9ettle_ops10read_ettle
FNDA:1,_RNvNtNtNtCsixIA6ROfhIR_11ettlex_core3ops9ettle_ops5testss_25test_create_ettle_success
FNDA:1,_RNvNtNtNtCsixIA6ROfhIR_11ettlex_core3ops9ettle_ops5testss_29test_create_ettle_invalid_how
FNDA:1,_RNvNtNtNtCsixIA6ROfhIR_11ettlex_core3ops9ettle_ops5testss_30test_create_ettle_invalid_what
FNDA:1,_RNvNtNtNtCsixIA6ROfhIR_11ettlex_core3ops9ettle_ops5testss_31test_create_ettle_invalid_title
FNDA:1,_RNvNtNtNtCsixIA6ROfhIR_11ettlex_core3ops9ettle_ops5testss_34test_create_ettle_with_ep0_content
FNF:10
FNH:10
DA:28,228
DA:29,228
DA:30,228
DA:31,228
DA:32,228
DA:33,228
DA:34,228
DA:35,228
DA:37,228
DA:38,6
DA:39,6
DA:40,6
DA:41,222
DA:44,222
DA:45,222
DA:48,222
DA:49,24
DA:50,2
DA:51,2
DA:52,2
DA:53,22
DA:54,22
DA:56,198
DA:60,220
DA:61,23
DA:62,2
DA:63,2
DA:64,2
DA:65,21
DA:66,21
DA:68,197
DA:72,218
DA:73,218
DA:74,3
DA:75,215
DA:78,218
DA:79,218
DA:80,218
DA:83,218
DA:84,218
DA:85,218
DA:89,218
DA:92,218
DA:95,218
DA:97,218
DA:98,228
DA:112,3
DA:113,3
DA:114,3
DA:131,8
DA:132,8
DA:133,8
DA:134,8
DA:135,8
DA:136,8
DA:138,8
DA:139,7
DA:140,2
DA:141,2
DA:142,2
DA:143,5
DA:144,1
DA:147,6
DA:150,4
DA:151,3
DA:152,3
DA:154,4
DA:155,2
DA:156,2
DA:159,4
DA:161,4
DA:162,8
DA:179,11
DA:181,11
DA:184,9
DA:185,9
DA:186,9
DA:187,10
DA:188,9
DA:190,9
DA:191,2
DA:192,2
DA:193,2
DA:194,2
DA:195,7
DA:198,7
DA:199,7
DA:200,7
DA:202,7
DA:203,11
DA:210,1
DA:211,1
DA:212,1
DA:213,1
DA:215,1
DA:216,1
DA:217,1
DA:218,1
DA:219,1
DA:222,1
DA:223,1
DA:224,1
DA:225,1
DA:226,1
DA:227,1
DA:228,1
DA:229,1
DA:230,1
DA:232,1
DA:234,1
DA:235,1
DA:238,1
DA:239,1
DA:240,1
DA:241,1
DA:242,1
DA:243,1
DA:246,1
DA:247,1
DA:248,1
DA:250,1
DA:251,1
DA:254,1
DA:255,1
DA:256,1
DA:257,1
DA:258,1
DA:259,1
DA:260,1
DA:261,1
DA:262,1
DA:265,1
DA:266,1
DA:267,1
DA:270,1
DA:271,1
DA:272,1
DA:273,1
DA:274,1
DA:275,1
DA:276,1
DA:277,1
DA:278,1
DA:281,1
DA:282,1
DA:283,1
BRF:0
BRH:0
LF:147
LH:147
end_of_record
SF:/Users/nick/Development/EttleX/EttleX-Project/Rust/crates/ettlex-core/src/ops/projection.rs
FN:42,_RNCNvNtNtCs4640luT8Huz_11ettlex_core3ops10projection10active_eps0B7_
FN:32,_RNvNtNtCs4640luT8Huz_11ettlex_core3ops10projection10active_eps
FN:73,_RNvNtNtNtCsixIA6ROfhIR_11ettlex_core3ops10projection5testss_21test_active_eps_empty
FN:182,_RNvNtNtNtCsixIA6ROfhIR_11ettlex_core3ops10projection5testss_29test_active_eps_unknown_ep_id
FN:82,_RNvNtNtNtCsixIA6ROfhIR_11ettlex_core3ops10projection5testss_31test_active_eps_filters_deleted
FN:133,_RNvNtNtNtCsixIA6ROfhIR_11ettlex_core3ops10projection5testss_33test_active_eps_sorted_by_ordinal
FN:196,_RNvNtNtNtCsixIA6ROfhIR_11ettlex_core3ops10projection5testss_39test_active_eps_membership_inconsistent
FN:32,_RNvNtNtCsixIA6ROfhIR_11ettlex_core3ops10projection10active_eps
FN:42,_RNCNvNtNtCsixIA6ROfhIR_11ettlex_core3ops10projection10active_eps0B7_
FNDA:0,_RNCNvNtNtCs4640luT8Huz_11ettlex_core3ops10projection10active_eps0B7_
FNDA:424,_RNvNtNtCs4640luT8Huz_11ettlex_core3ops10projection10active_eps
FNDA:1,_RNvNtNtNtCsixIA6ROfhIR_11ettlex_core3ops10projection5testss_21test_active_eps_empty
FNDA:1,_RNvNtNtNtCsixIA6ROfhIR_11ettlex_core3ops10projection5testss_29test_active_eps_unknown_ep_id
FNDA:1,_RNvNtNtNtCsixIA6ROfhIR_11ettlex_core3ops10projection5testss_31test_active_eps_filters_deleted
FNDA:1,_RNvNtNtNtCsixIA6ROfhIR_11ettlex_core3ops10projection5testss_33test_active_eps_sorted_by_ordinal
FNDA:1,_RNvNtNtNtCsixIA6ROfhIR_11ettlex_core3ops10projection5testss_39test_active_eps_membership_inconsistent
FNDA:15,_RNvNtNtCsixIA6ROfhIR_11ettlex_core3ops10projection10active_eps
FNDA:1,_RNCNvNtNtCsixIA6ROfhIR_11ettlex_core3ops10projection10active_eps0B7_
FNF:7
FNH:7
DA:32,439
DA:33,439
DA:36,1612
DA:38,1612
DA:39,1612
DA:40,1612
DA:41,1612
DA:42,1
DA:43,1
DA:44,1
DA:47,1611
DA:48,1
DA:49,1
DA:50,1
DA:51,1
DA:52,1
DA:53,1610
DA:56,1610
DA:57,1602
DA:58,1602
DA:62,437
DA:64,437
DA:65,439
DA:73,1
DA:74,1
DA:75,1
DA:77,1
DA:78,1
DA:79,1
DA:82,1
DA:83,1
DA:84,1
DA:87,1
DA:88,1
DA:89,1
DA:92,1
DA:93,1
DA:94,1
DA:96,1
DA:97,1
DA:100,1
DA:101,1
DA:102,1
DA:105,1
DA:106,1
DA:107,1
DA:109,1
DA:110,1
DA:111,1
DA:114,1
DA:115,1
DA:116,1
DA:119,1
DA:120,1
DA:121,1
DA:123,1
DA:124,1
DA:126,1
DA:127,1
DA:128,1
DA:129,1
DA:130,1
DA:133,1
DA:134,1
DA:135,1
DA:138,1
DA:139,1
DA:140,1
DA:143,1
DA:144,1
DA:145,1
DA:147,1
DA:148,1
DA:150,1
DA:151,1
DA:152,1
DA:155,1
DA:156,1
DA:157,1
DA:159,1
DA:160,1
DA:162,1
DA:163,1
DA:164,1
DA:167,1
DA:168,1
DA:169,1
DA:171,1
DA:172,1
DA:174,1
DA:175,1
DA:176,1
DA:177,1
DA:178,1
DA:179,1
DA:182,1
DA:183,1
DA:184,1
DA:185,1
DA:187,1
DA:188,1
DA:189,1
DA:190,1
DA:193,1
DA:196,1
DA:197,1
DA:198,1
DA:201,1
DA:202,1
DA:203,1
DA:206,1
DA:207,1
DA:208,1
DA:210,1
DA:211,1
DA:213,1
DA:214,1
DA:215,1
DA:216,1
DA:219,1
BRF:0
BRH:0
LF:121
LH:121
end_of_record
SF:/Users/nick/Development/EttleX/EttleX-Project/Rust/crates/ettlex-core/src/ops/refinement_ops.rs
FN:95,_RNCNvNtNtCs4640luT8Huz_11ettlex_core3ops14refinement_ops10link_child0B7_
FN:29,_RNCNvNtNtCs4640luT8Huz_11ettlex_core3ops14refinement_ops10set_parent0B7_
FN:51,_RNCNvNtNtCs4640luT8Huz_11ettlex_core3ops14refinement_ops10set_parents_0B7_
FN:146,_RNCNvNtNtCs4640luT8Huz_11ettlex_core3ops14refinement_ops12unlink_child0B7_
FN:147,_RNCNvNtNtCs4640luT8Huz_11ettlex_core3ops14refinement_ops12unlink_childs_0B7_
FN:82,_RNvNtNtCs4640luT8Huz_11ettlex_core3ops14refinement_ops10link_child
FN:23,_RNvNtNtCs4640luT8Huz_11ettlex_core3ops14refinement_ops10set_parent
FN:138,_RNvNtNtCs4640luT8Huz_11ettlex_core3ops14refinement_ops12unlink_child
FN:187,_RNvNtNtCs4640luT8Huz_11ettlex_core3ops14refinement_ops13list_children
FN:211,_RNvNtNtCs4640luT8Huz_11ettlex_core3ops14refinement_ops18would_create_cycle
FN:95,_RNCNvNtNtCsixIA6ROfhIR_11ettlex_core3ops14refinement_ops10link_child0B7_
FN:29,_RNCNvNtNtCsixIA6ROfhIR_11ettlex_core3ops14refinement_ops10set_parent0B7_
FN:51,_RNCNvNtNtCsixIA6ROfhIR_11ettlex_core3ops14refinement_ops10set_parents_0B7_
FN:146,_RNCNvNtNtCsixIA6ROfhIR_11ettlex_core3ops14refinement_ops12unlink_child0B7_
FN:147,_RNCNvNtNtCsixIA6ROfhIR_11ettlex_core3ops14refinement_ops12unlink_childs_0B7_
FN:82,_RNvNtNtCsixIA6ROfhIR_11ettlex_core3ops14refinement_ops10link_child
FN:23,_RNvNtNtCsixIA6ROfhIR_11ettlex_core3ops14refinement_ops10set_parent
FN:138,_RNvNtNtCsixIA6ROfhIR_11ettlex_core3ops14refinement_ops12unlink_child
FN:211,_RNvNtNtCsixIA6ROfhIR_11ettlex_core3ops14refinement_ops18would_create_cycle
FN:187,_RNvNtNtCsixIA6ROfhIR_11ettlex_core3ops14refinement_ops13list_children
FN:240,_RNvNtNtNtCsixIA6ROfhIR_11ettlex_core3ops14refinement_ops5testss_33test_set_parent_updates_parent_id
FN:256,_RNvNtNtNtCsixIA6ROfhIR_11ettlex_core3ops14refinement_ops5testss_37test_would_create_cycle_detects_cycle
FNDA:94,_RNCNvNtNtCs4640luT8Huz_11ettlex_core3ops14refinement_ops10link_child0B7_
FNDA:1,_RNCNvNtNtCs4640luT8Huz_11ettlex_core3ops14refinement_ops10set_parent0B7_
FNDA:4,_RNCNvNtNtCs4640luT8Huz_11ettlex_core3ops14refinement_ops10set_parents_0B7_
FNDA:8,_RNCNvNtNtCs4640luT8Huz_11ettlex_core3ops14refinement_ops12unlink_child0B7_
FNDA:3,_RNCNvNtNtCs4640luT8Huz_11ettlex_core3ops14refinement_ops12unlink_childs_0B7_
FNDA:48,_RNvNtNtCs4640luT8Huz_11ettlex_core3ops14refinement_ops10link_child
FNDA:9,_RNvNtNtCs4640luT8Huz_11ettlex_core3ops14refinement_ops10set_parent
FNDA:4,_RNvNtNtCs4640luT8Huz_11ettlex_core3ops14refinement_ops12unlink_child
FNDA:4,_RNvNtNtCs4640luT8Huz_11ettlex_core3ops14refinement_ops13list_children
FNDA:5,_RNvNtNtCs4640luT8Huz_11ettlex_core3ops14refinement_ops18would_create_cycle
FNDA:1,_RNCNvNtNtCsixIA6ROfhIR_11ettlex_core3ops14refinement_ops10link_child0B7_
FNDA:0,_RNCNvNtNtCsixIA6ROfhIR_11ettlex_core3ops14refinement_ops10set_parent0B7_
FNDA:1,_RNCNvNtNtCsixIA6ROfhIR_11ettlex_core3ops14refinement_ops10set_parents_0B7_
FNDA:0,_RNCNvNtNtCsixIA6ROfhIR_11ettlex_core3ops14refinement_ops12unlink_child0B7_
FNDA:0,_RNCNvNtNtCsixIA6ROfhIR_11ettlex_core3ops14refinement_ops12unlink_childs_0B7_
FNDA:1,_RNvNtNtCsixIA6ROfhIR_11ettlex_core3ops14refinement_ops10link_child
FNDA:1,_RNvNtNtCsixIA6ROfhIR_11ettlex_core3ops14refinement_ops10set_parent
FNDA:0,_RNvNtNtCsixIA6ROfhIR_11ettlex_core3ops14refinement_ops12unlink_child
FNDA:3,_RNvNtNtCsixIA6ROfhIR_11ettlex_core3ops14refinement_ops18would_create_cycle
FNDA:0,_RNvNtNtCsixIA6ROfhIR_11ettlex_core3ops14refinement_ops13list_children
FNDA:1,_RNvNtNtNtCsixIA6ROfhIR_11ettlex_core3ops14refinement_ops5testss_33test_set_parent_updates_parent_id
FNDA:1,_RNvNtNtNtCsixIA6ROfhIR_11ettlex_core3ops14refinement_ops5testss_37test_would_create_cycle_detects_cycle
FNF:12
FNH:12
DA:23,10
DA:25,10
DA:28,9
DA:29,8
DA:30,1
DA:31,0
DA:32,1
DA:35,7
DA:36,1
DA:37,1
DA:38,1
DA:39,6
DA:42,6
DA:43,1
DA:44,1
DA:45,1
DA:46,5
DA:47,1
DA:50,6
DA:51,6
DA:52,6
DA:54,6
DA:55,10
DA:82,49
DA:84,49
DA:87,49
DA:90,49
DA:93,49
DA:94,49
DA:95,95
DA:96,0
DA:97,0
DA:98,0
DA:99,49
DA:102,49
DA:103,2
DA:104,2
DA:105,2
DA:106,2
DA:107,2
DA:108,47
DA:111,47
DA:112,47
DA:113,47
DA:116,47
DA:117,47
DA:118,47
DA:119,47
DA:121,47
DA:122,49
DA:138,4
DA:140,4
DA:143,4
DA:144,4
DA:145,4
DA:146,8
DA:147,4
DA:148,4
DA:151,4
DA:152,1
DA:153,3
DA:156,3
DA:157,3
DA:158,3
DA:161,3
DA:162,3
DA:163,3
DA:164,3
DA:165,3
DA:166,3
DA:169,3
DA:170,4
DA:187,4
DA:188,4
DA:191,4
DA:195,4
DA:196,9
DA:197,29
DA:198,29
DA:199,6
DA:200,23
DA:204,4
DA:205,4
DA:211,8
DA:212,8
DA:213,8
DA:215,19
DA:217,13
DA:218,0
DA:219,13
DA:222,13
DA:223,2
DA:224,11
DA:227,11
DA:228,11
DA:231,6
DA:232,8
DA:240,1
DA:241,1
DA:243,1
DA:244,1
DA:246,1
DA:247,1
DA:249,1
DA:251,1
DA:252,1
DA:253,1
DA:256,1
DA:257,1
DA:259,1
DA:260,1
DA:261,1
DA:263,1
DA:264,1
DA:266,1
DA:267,1
DA:268,1
DA:271,1
DA:274,1
DA:275,1
BRF:0
BRH:0
LF:126
LH:121
end_of_record
SF:/Users/nick/Development/EttleX/EttleX-Project/Rust/crates/ettlex-core/src/ops/store.rs
FN:166,_RNvMNtNtCs4640luT8Huz_11ettlex_core3ops5storeNtB2_5Store12ettle_exists
FN:172,_RNvMNtNtCs4640luT8Huz_11ettlex_core3ops5storeNtB2_5Store9ep_exists
FN:128,_RNCNvMNtNtCs4640luT8Huz_11ettlex_core3ops5storeNtB4_5Store10get_ep_mut0B8_
FN:142,_RNCNvMNtNtCs4640luT8Huz_11ettlex_core3ops5storeNtB4_5Store11list_ettles0B8_
FN:318,_RNCNvMNtNtCs4640luT8Huz_11ettlex_core3ops5storeNtB4_5Store12get_decision0B8_
FN:82,_RNCNvMNtNtCs4640luT8Huz_11ettlex_core3ops5storeNtB4_5Store13get_ettle_mut0B8_
FN:204,_RNCNvMNtNtCs4640luT8Huz_11ettlex_core3ops5storeNtB4_5Store14get_constraint0B8_
FN:482,_RNCNvMNtNtCs4640luT8Huz_11ettlex_core3ops5storeNtB4_5Store14list_decisions0B8_
FN:343,_RNCNvMNtNtCs4640luT8Huz_11ettlex_core3ops5storeNtB4_5Store16get_decision_mut0B8_
FN:283,_RNCNvMNtNtCs4640luT8Huz_11ettlex_core3ops5storeNtB4_5Store16list_constraints0B8_
FN:388,_RNCNvMNtNtCs4640luT8Huz_11ettlex_core3ops5storeNtB4_5Store17get_evidence_item0B8_
FN:229,_RNCNvMNtNtCs4640luT8Huz_11ettlex_core3ops5storeNtB4_5Store18get_constraint_mut0B8_
FN:275,_RNCNvMNtNtCs4640luT8Huz_11ettlex_core3ops5storeNtB4_5Store23list_ep_constraint_refs0B8_
FN:367,_RNCNvMNtNtCs4640luT8Huz_11ettlex_core3ops5storeNtB4_5Store30get_decision_including_deleted0B8_
FN:457,_RNCNvMNtNtCs4640luT8Huz_11ettlex_core3ops5storeNtB4_5Store30list_decision_links_for_target0B8_
FN:299,_RNCNvMNtNtCs4640luT8Huz_11ettlex_core3ops5storeNtB4_5Store32get_constraint_including_deleted0B8_
FN:103,_RNCNvMNtNtCs4640luT8Huz_11ettlex_core3ops5storeNtB4_5Store6get_ep0B8_
FN:147,_RNCNvMNtNtCs4640luT8Huz_11ettlex_core3ops5storeNtB4_5Store8list_eps0B8_
FN:57,_RNCNvMNtNtCs4640luT8Huz_11ettlex_core3ops5storeNtB4_5Store9get_ettle0B8_
FN:123,_RNvMNtNtCs4640luT8Huz_11ettlex_core3ops5storeNtB2_5Store10get_ep_mut
FN:187,_RNvMNtNtCs4640luT8Huz_11ettlex_core3ops5storeNtB2_5Store10get_ep_raw
FN:141,_RNvMNtNtCs4640luT8Huz_11ettlex_core3ops5storeNtB2_5Store11list_ettles
FN:313,_RNvMNtNtCs4640luT8Huz_11ettlex_core3ops5storeNtB2_5Store12get_decision
FN:153,_RNvMNtNtCs4640luT8Huz_11ettlex_core3ops5storeNtB2_5Store12insert_ettle
FN:77,_RNvMNtNtCs4640luT8Huz_11ettlex_core3ops5storeNtB2_5Store13get_ettle_mut
FN:199,_RNvMNtNtCs4640luT8Huz_11ettlex_core3ops5storeNtB2_5Store14get_constraint
FN:479,_RNvMNtNtCs4640luT8Huz_11ettlex_core3ops5storeNtB2_5Store14list_decisions
FN:374,_RNvMNtNtCs4640luT8Huz_11ettlex_core3ops5storeNtB2_5Store15insert_decision
FN:338,_RNvMNtNtCs4640luT8Huz_11ettlex_core3ops5storeNtB2_5Store16get_decision_mut
FN:280,_RNvMNtNtCs4640luT8Huz_11ettlex_core3ops5storeNtB2_5Store16list_constraints
FN:462,_RNvMNtNtCs4640luT8Huz_11ettlex_core3ops5storeNtB2_5Store17get_decision_link
FN:384,_RNvMNtNtCs4640luT8Huz_11ettlex_core3ops5storeNtB2_5Store17get_evidence_item
FN:244,_RNvMNtNtCs4640luT8Huz_11ettlex_core3ops5storeNtB2_5Store17insert_constraint
FN:224,_RNvMNtNtCs4640luT8Huz_11ettlex_core3ops5storeNtB2_5Store18get_constraint_mut
FN:433,_RNvMNtNtCs4640luT8Huz_11ettlex_core3ops5storeNtB2_5Store18is_decision_linked
FN:179,_RNvMNtNtCs4640luT8Huz_11ettlex_core3ops5storeNtB2_5Store20ep_exists_in_storage
FN:403,_RNvMNtNtCs4640luT8Huz_11ettlex_core3ops5storeNtB2_5Store20insert_decision_link
FN:395,_RNvMNtNtCs4640luT8Huz_11ettlex_core3ops5storeNtB2_5Store20insert_evidence_item
FN:416,_RNvMNtNtCs4640luT8Huz_11ettlex_core3ops5storeNtB2_5Store20remove_decision_link
FN:272,_RNvMNtNtCs4640luT8Huz_11ettlex_core3ops5storeNtB2_5Store23list_ep_constraint_refs
FN:252,_RNvMNtNtCs4640luT8Huz_11ettlex_core3ops5storeNtB2_5Store24insert_ep_constraint_ref
FN:260,_RNvMNtNtCs4640luT8Huz_11ettlex_core3ops5storeNtB2_5Store24remove_ep_constraint_ref
FN:266,_RNvMNtNtCs4640luT8Huz_11ettlex_core3ops5storeNtB2_5Store28is_constraint_attached_to_ep
FN:363,_RNvMNtNtCs4640luT8Huz_11ettlex_core3ops5storeNtB2_5Store30get_decision_including_deleted
FN:450,_RNvMNtNtCs4640luT8Huz_11ettlex_core3ops5storeNtB2_5Store30list_decision_links_for_target
FN:295,_RNvMNtNtCs4640luT8Huz_11ettlex_core3ops5storeNtB2_5Store32get_constraint_including_deleted
FN:33,_RNvMNtNtCs4640luT8Huz_11ettlex_core3ops5storeNtB2_5Store3new
FN:101,_RNvMNtNtCs4640luT8Huz_11ettlex_core3ops5storeNtB2_5Store6get_ep
FN:146,_RNvMNtNtCs4640luT8Huz_11ettlex_core3ops5storeNtB2_5Store8list_eps
FN:52,_RNvMNtNtCs4640luT8Huz_11ettlex_core3ops5storeNtB2_5Store9get_ettle
FN:160,_RNvMNtNtCs4640luT8Huz_11ettlex_core3ops5storeNtB2_5Store9insert_ep
FN:492,_RNvNtNtNtCsixIA6ROfhIR_11ettlex_core3ops5store5testss_14test_new_store
FN:519,_RNvNtNtNtCsixIA6ROfhIR_11ettlex_core3ops5store5testss_22test_get_deleted_ettle
FN:499,_RNvNtNtNtCsixIA6ROfhIR_11ettlex_core3ops5store5testss_25test_insert_and_get_ettle
FN:511,_RNvNtNtNtCsixIA6ROfhIR_11ettlex_core3ops5store5testss_26test_get_nonexistent_ettle
FN:123,_RNvMNtNtCsixIA6ROfhIR_11ettlex_core3ops5storeNtB2_5Store10get_ep_mut
FN:141,_RNvMNtNtCsixIA6ROfhIR_11ettlex_core3ops5storeNtB2_5Store11list_ettles
FN:313,_RNvMNtNtCsixIA6ROfhIR_11ettlex_core3ops5storeNtB2_5Store12get_decision
FN:153,_RNvMNtNtCsixIA6ROfhIR_11ettlex_core3ops5storeNtB2_5Store12insert_ettle
FN:77,_RNvMNtNtCsixIA6ROfhIR_11ettlex_core3ops5storeNtB2_5Store13get_ettle_mut
FN:199,_RNvMNtNtCsixIA6ROfhIR_11ettlex_core3ops5storeNtB2_5Store14get_constraint
FN:374,_RNvMNtNtCsixIA6ROfhIR_11ettlex_core3ops5storeNtB2_5Store15insert_decision
FN:338,_RNvMNtNtCsixIA6ROfhIR_11ettlex_core3ops5storeNtB2_5Store16get_decision_mut
FN:244,_RNvMNtNtCsixIA6ROfhIR_11ettlex_core3ops5storeNtB2_5Store17insert_constraint
FN:224,_RNvMNtNtCsixIA6ROfhIR_11ettlex_core3ops5storeNtB2_5Store18get_constraint_mut
FN:433,_RNvMNtNtCsixIA6ROfhIR_11ettlex_core3ops5storeNtB2_5Store18is_decision_linked
FN:403,_RNvMNtNtCsixIA6ROfhIR_11ettlex_core3ops5storeNtB2_5Store20insert_decision_link
FN:395,_RNvMNtNtCsixIA6ROfhIR_11ettlex_core3ops5storeNtB2_5Store20insert_evidence_item
FN:416,_RNvMNtNtCsixIA6ROfhIR_11ettlex_core3ops5storeNtB2_5Store20remove_decision_link
FN:272,_RNvMNtNtCsixIA6ROfhIR_11ettlex_core3ops5storeNtB2_5Store23list_ep_constraint_refs
FN:252,_RNvMNtNtCsixIA6ROfhIR_11ettlex_core3ops5storeNtB2_5Store24insert_ep_constraint_ref
FN:260,_RNvMNtNtCsixIA6ROfhIR_11ettlex_core3ops5storeNtB2_5Store24remove_ep_constraint_ref
FN:266,_RNvMNtNtCsixIA6ROfhIR_11ettlex_core3ops5storeNtB2_5Store28is_constraint_attached_to_ep
FN:295,_RNvMNtNtCsixIA6ROfhIR_11ettlex_core3ops5storeNtB2_5Store32get_constraint_including_deleted
FN:33,_RNvMNtNtCsixIA6ROfhIR_11ettlex_core3ops5storeNtB2_5Store3new
FN:101,_RNvMNtNtCsixIA6ROfhIR_11ettlex_core3ops5storeNtB2_5Store6get_ep
FN:146,_RNvMNtNtCsixIA6ROfhIR_11ettlex_core3ops5storeNtB2_5Store8list_eps
FN:52,_RNvMNtNtCsixIA6ROfhIR_11ettlex_core3ops5storeNtB2_5Store9get_ettle
FN:160,_RNvMNtNtCsixIA6ROfhIR_11ettlex_core3ops5storeNtB2_5Store9insert_ep
FN:482,_RNCNvMNtNtCsixIA6ROfhIR_11ettlex_core3ops5storeNtB4_5Store14list_decisions0B8_
FN:283,_RNCNvMNtNtCsixIA6ROfhIR_11ettlex_core3ops5storeNtB4_5Store16list_constraints0B8_
FN:388,_RNCNvMNtNtCsixIA6ROfhIR_11ettlex_core3ops5storeNtB4_5Store17get_evidence_item0B8_
FN:367,_RNCNvMNtNtCsixIA6ROfhIR_11ettlex_core3ops5storeNtB4_5Store30get_decision_including_deleted0B8_
FN:457,_RNCNvMNtNtCsixIA6ROfhIR_11ettlex_core3ops5storeNtB4_5Store30list_decision_links_for_target0B8_
FN:187,_RNvMNtNtCsixIA6ROfhIR_11ettlex_core3ops5storeNtB2_5Store10get_ep_raw
FN:166,_RNvMNtNtCsixIA6ROfhIR_11ettlex_core3ops5storeNtB2_5Store12ettle_exists
FN:479,_RNvMNtNtCsixIA6ROfhIR_11ettlex_core3ops5storeNtB2_5Store14list_decisions
FN:280,_RNvMNtNtCsixIA6ROfhIR_11ettlex_core3ops5storeNtB2_5Store16list_constraints
FN:462,_RNvMNtNtCsixIA6ROfhIR_11ettlex_core3ops5storeNtB2_5Store17get_decision_link
FN:384,_RNvMNtNtCsixIA6ROfhIR_11ettlex_core3ops5storeNtB2_5Store17get_evidence_item
FN:179,_RNvMNtNtCsixIA6ROfhIR_11ettlex_core3ops5storeNtB2_5Store20ep_exists_in_storage
FN:363,_RNvMNtNtCsixIA6ROfhIR_11ettlex_core3ops5storeNtB2_5Store30get_decision_including_deleted
FN:450,_RNvMNtNtCsixIA6ROfhIR_11ettlex_core3ops5storeNtB2_5Store30list_decision_links_for_target
FN:172,_RNvMNtNtCsixIA6ROfhIR_11ettlex_core3ops5storeNtB2_5Store9ep_exists
FN:128,_RNCNvMNtNtCsixIA6ROfhIR_11ettlex_core3ops5storeNtB4_5Store10get_ep_mut0B8_
FN:142,_RNCNvMNtNtCsixIA6ROfhIR_11ettlex_core3ops5storeNtB4_5Store11list_ettles0B8_
FN:318,_RNCNvMNtNtCsixIA6ROfhIR_11ettlex_core3ops5storeNtB4_5Store12get_decision0B8_
FN:82,_RNCNvMNtNtCsixIA6ROfhIR_11ettlex_core3ops5storeNtB4_5Store13get_ettle_mut0B8_
FN:204,_RNCNvMNtNtCsixIA6ROfhIR_11ettlex_core3ops5storeNtB4_5Store14get_constraint0B8_
FN:343,_RNCNvMNtNtCsixIA6ROfhIR_11ettlex_core3ops5storeNtB4_5Store16get_decision_mut0B8_
FN:229,_RNCNvMNtNtCsixIA6ROfhIR_11ettlex_core3ops5storeNtB4_5Store18get_constraint_mut0B8_
FN:275,_RNCNvMNtNtCsixIA6ROfhIR_11ettlex_core3ops5storeNtB4_5Store23list_ep_constraint_refs0B8_
FN:299,_RNCNvMNtNtCsixIA6ROfhIR_11ettlex_core3ops5storeNtB4_5Store32get_constraint_including_deleted0B8_
FN:103,_RNCNvMNtNtCsixIA6ROfhIR_11ettlex_core3ops5storeNtB4_5Store6get_ep0B8_
FN:147,_RNCNvMNtNtCsixIA6ROfhIR_11ettlex_core3ops5storeNtB4_5Store8list_eps0B8_
FN:57,_RNCNvMNtNtCsixIA6ROfhIR_11ettlex_core3ops5storeNtB4_5Store9get_ettle0B8_
FNDA:0,_RNvMNtNtCs4640luT8Huz_11ettlex_core3ops5storeNtB2_5Store12ettle_exists
FNDA:0,_RNvMNtNtCs4640luT8Huz_11ettlex_core3ops5storeNtB2_5Store9ep_exists
FNDA:3,_RNCNvMNtNtCs4640luT8Huz_11ettlex_core3ops5storeNtB4_5Store10get_ep_mut0B8_
FNDA:439,_RNCNvMNtNtCs4640luT8Huz_11ettlex_core3ops5storeNtB4_5Store11list_ettles0B8_
FNDA:2,_RNCNvMNtNtCs4640luT8Huz_11ettlex_core3ops5storeNtB4_5Store12get_decision0B8_
FNDA:2,_RNCNvMNtNtCs4640luT8Huz_11ettlex_core3ops5storeNtB4_5Store13get_ettle_mut0B8_
FNDA:1,_RNCNvMNtNtCs4640luT8Huz_11ettlex_core3ops5storeNtB4_5Store14get_constraint0B8_
FNDA:0,_RNCNvMNtNtCs4640luT8Huz_11ettlex_core3ops5storeNtB4_5Store14list_decisions0B8_
FNDA:1,_RNCNvMNtNtCs4640luT8Huz_11ettlex_core3ops5storeNtB4_5Store16get_decision_mut0B8_
FNDA:5,_RNCNvMNtNtCs4640luT8Huz_11ettlex_core3ops5storeNtB4_5Store16list_constraints0B8_
FNDA:0,_RNCNvMNtNtCs4640luT8Huz_11ettlex_core3ops5storeNtB4_5Store17get_evidence_item0B8_
FNDA:0,_RNCNvMNtNtCs4640luT8Huz_11ettlex_core3ops5storeNtB4_5Store18get_constraint_mut0B8_
FNDA:1182,_RNCNvMNtNtCs4640luT8Huz_11ettlex_core3ops5storeNtB4_5Store23list_ep_constraint_refs0B8_
FNDA:0,_RNCNvMNtNtCs4640luT8Huz_11ettlex_core3ops5storeNtB4_5Store30get_decision_including_deleted0B8_
FNDA:4,_RNCNvMNtNtCs4640luT8Huz_11ettlex_core3ops5storeNtB4_5Store30list_decision_links_for_target0B8_
FNDA:1,_RNCNvMNtNtCs4640luT8Huz_11ettlex_core3ops5storeNtB4_5Store32get_constraint_including_deleted0B8_
FNDA:46,_RNCNvMNtNtCs4640luT8Huz_11ettlex_core3ops5storeNtB4_5Store6get_ep0B8_
FNDA:163,_RNCNvMNtNtCs4640luT8Huz_11ettlex_core3ops5storeNtB4_5Store8list_eps0B8_
FNDA:13,_RNCNvMNtNtCs4640luT8Huz_11ettlex_core3ops5storeNtB4_5Store9get_ettle0B8_
FNDA:106,_RNvMNtNtCs4640luT8Huz_11ettlex_core3ops5storeNtB2_5Store10get_ep_mut
FNDA:3,_RNvMNtNtCs4640luT8Huz_11ettlex_core3ops5storeNtB2_5Store10get_ep_raw
FNDA:280,_RNvMNtNtCs4640luT8Huz_11ettlex_core3ops5storeNtB2_5Store11list_ettles
FNDA:49,_RNvMNtNtCs4640luT8Huz_11ettlex_core3ops5storeNtB2_5Store12get_decision
FNDA:475,_RNvMNtNtCs4640luT8Huz_11ettlex_core3ops5storeNtB2_5Store12insert_ettle
FNDA:421,_RNvMNtNtCs4640luT8Huz_11ettlex_core3ops5storeNtB2_5Store13get_ettle_mut
FNDA:1164,_RNvMNtNtCs4640luT8Huz_11ettlex_core3ops5storeNtB2_5Store14get_constraint
FNDA:0,_RNvMNtNtCs4640luT8Huz_11ettlex_core3ops5storeNtB2_5Store14list_decisions
FNDA:597,_RNvMNtNtCs4640luT8Huz_11ettlex_core3ops5storeNtB2_5Store15insert_decision
FNDA:12,_RNvMNtNtCs4640luT8Huz_11ettlex_core3ops5storeNtB2_5Store16get_decision_mut
FNDA:1,_RNvMNtNtCs4640luT8Huz_11ettlex_core3ops5storeNtB2_5Store16list_constraints
FNDA:9,_RNvMNtNtCs4640luT8Huz_11ettlex_core3ops5storeNtB2_5Store17get_decision_link
FNDA:3,_RNvMNtNtCs4640luT8Huz_11ettlex_core3ops5storeNtB2_5Store17get_evidence_item
FNDA:684,_RNvMNtNtCs4640luT8Huz_11ettlex_core3ops5storeNtB2_5Store17insert_constraint
FNDA:6,_RNvMNtNtCs4640luT8Huz_11ettlex_core3ops5storeNtB2_5Store18get_constraint_mut
FNDA:40,_RNvMNtNtCs4640luT8Huz_11ettlex_core3ops5storeNtB2_5Store18is_decision_linked
FNDA:9,_RNvMNtNtCs4640luT8Huz_11ettlex_core3ops5storeNtB2_5Store20ep_exists_in_storage
FNDA:36,_RNvMNtNtCs4640luT8Huz_11ettlex_core3ops5storeNtB2_5Store20insert_decision_link
FNDA:3,_RNvMNtNtCs4640luT8Huz_11ettlex_core3ops5storeNtB2_5Store20insert_evidence_item
FNDA:4,_RNvMNtNtCs4640luT8Huz_11ettlex_core3ops5storeNtB2_5Store20remove_decision_link
FNDA:203,_RNvMNtNtCs4640luT8Huz_11ettlex_core3ops5storeNtB2_5Store23list_ep_constraint_refs
FNDA:665,_RNvMNtNtCs4640luT8Huz_11ettlex_core3ops5storeNtB2_5Store24insert_ep_constraint_ref
FNDA:2,_RNvMNtNtCs4640luT8Huz_11ettlex_core3ops5storeNtB2_5Store24remove_ep_constraint_ref
FNDA:624,_RNvMNtNtCs4640luT8Huz_11ettlex_core3ops5storeNtB2_5Store28is_constraint_attached_to_ep
FNDA:1,_RNvMNtNtCs4640luT8Huz_11ettlex_core3ops5storeNtB2_5Store30get_decision_including_deleted
FNDA:4,_RNvMNtNtCs4640luT8Huz_11ettlex_core3ops5storeNtB2_5Store30list_decision_links_for_target
FNDA:620,_RNvMNtNtCs4640luT8Huz_11ettlex_core3ops5storeNtB2_5Store32get_constraint_including_deleted
FNDA:430,_RNvMNtNtCs4640luT8Huz_11ettlex_core3ops5storeNtB2_5Store3new
FNDA:1164,_RNvMNtNtCs4640luT8Huz_11ettlex_core3ops5storeNtB2_5Store6get_ep
FNDA:152,_RNvMNtNtCs4640luT8Huz_11ettlex_core3ops5storeNtB2_5Store8list_eps
FNDA:1099,_RNvMNtNtCs4640luT8Huz_11ettlex_core3ops5storeNtB2_5Store9get_ettle
FNDA:601,_RNvMNtNtCs4640luT8Huz_11ettlex_core3ops5storeNtB2_5Store9insert_ep
FNDA:1,_RNvNtNtNtCsixIA6ROfhIR_11ettlex_core3ops5store5testss_14test_new_store
FNDA:1,_RNvNtNtNtCsixIA6ROfhIR_11ettlex_core3ops5store5testss_22test_get_deleted_ettle
FNDA:1,_RNvNtNtNtCsixIA6ROfhIR_11ettlex_core3ops5store5testss_25test_insert_and_get_ettle
FNDA:1,_RNvNtNtNtCsixIA6ROfhIR_11ettlex_core3ops5store5testss_26test_get_nonexistent_ettle
FNDA:2,_RNvMNtNtCsixIA6ROfhIR_11ettlex_core3ops5storeNtB2_5Store10get_ep_mut
FNDA:34,_RNvMNtNtCsixIA6ROfhIR_11ettlex_core3ops5storeNtB2_5Store11list_ettles
FNDA:5,_RNvMNtNtCsixIA6ROfhIR_11ettlex_core3ops5storeNtB2_5Store12get_decision
FNDA:52,_RNvMNtNtCsixIA6ROfhIR_11ettlex_core3ops5storeNtB2_5Store12insert_ettle
FNDA:16,_RNvMNtNtCsixIA6ROfhIR_11ettlex_core3ops5storeNtB2_5Store13get_ettle_mut
FNDA:8,_RNvMNtNtCsixIA6ROfhIR_11ettlex_core3ops5storeNtB2_5Store14get_constraint
FNDA:4,_RNvMNtNtCsixIA6ROfhIR_11ettlex_core3ops5storeNtB2_5Store15insert_decision
FNDA:0,_RNvMNtNtCsixIA6ROfhIR_11ettlex_core3ops5storeNtB2_5Store16get_decision_mut
FNDA:21,_RNvMNtNtCsixIA6ROfhIR_11ettlex_core3ops5storeNtB2_5Store17insert_constraint
FNDA:13,_RNvMNtNtCsixIA6ROfhIR_11ettlex_core3ops5storeNtB2_5Store18get_constraint_mut
FNDA:2,_RNvMNtNtCsixIA6ROfhIR_11ettlex_core3ops5storeNtB2_5Store18is_decision_linked
FNDA:2,_RNvMNtNtCsixIA6ROfhIR_11ettlex_core3ops5storeNtB2_5Store20insert_decision_link
FNDA:0,_RNvMNtNtCsixIA6ROfhIR_11ettlex_core3ops5storeNtB2_5Store20insert_evidence_item
FNDA:0,_RNvMNtNtCsixIA6ROfhIR_11ettlex_core3ops5storeNtB2_5Store20remove_decision_link
FNDA:1,_RNvMNtNtCsixIA6ROfhIR_11ettlex_core3ops5storeNtB2_5Store23list_ep_constraint_refs
FNDA:9,_RNvMNtNtCsixIA6ROfhIR_11ettlex_core3ops5storeNtB2_5Store24insert_ep_constraint_ref
FNDA:2,_RNvMNtNtCsixIA6ROfhIR_11ettlex_core3ops5storeNtB2_5Store24remove_ep_constraint_ref
FNDA:19,_RNvMNtNtCsixIA6ROfhIR_11ettlex_core3ops5storeNtB2_5Store28is_constraint_attached_to_ep
FNDA:15,_RNvMNtNtCsixIA6ROfhIR_11ettlex_core3ops5storeNtB2_5Store32get_constraint_including_deleted
FNDA:71,_RNvMNtNtCsixIA6ROfhIR_11ettlex_core3ops5storeNtB2_5Store3new
FNDA:24,_RNvMNtNtCsixIA6ROfhIR_11ettlex_core3ops5storeNtB2_5Store6get_ep
FNDA:1,_RNvMNtNtCsixIA6ROfhIR_11ettlex_core3ops5storeNtB2_5Store8list_eps
FNDA:76,_RNvMNtNtCsixIA6ROfhIR_11ettlex_core3ops5storeNtB2_5Store9get_ettle
FNDA:50,_RNvMNtNtCsixIA6ROfhIR_11ettlex_core3ops5storeNtB2_5Store9insert_ep
FNDA:0,_RNCNvMNtNtCsixIA6ROfhIR_11ettlex_core3ops5storeNtB4_5Store14list_decisions0B8_
FNDA:0,_RNCNvMNtNtCsixIA6ROfhIR_11ettlex_core3ops5storeNtB4_5Store16list_constraints0B8_
FNDA:0,_RNCNvMNtNtCsixIA6ROfhIR_11ettlex_core3ops5storeNtB4_5Store17get_evidence_item0B8_
FNDA:0,_RNCNvMNtNtCsixIA6ROfhIR_11ettlex_core3ops5storeNtB4_5Store30get_decision_including_deleted0B8_
FNDA:0,_RNCNvMNtNtCsixIA6ROfhIR_11ettlex_core3ops5storeNtB4_5Store30list_decision_links_for_target0B8_
FNDA:0,_RNvMNtNtCsixIA6ROfhIR_11ettlex_core3ops5storeNtB2_5Store10get_ep_raw
FNDA:0,_RNvMNtNtCsixIA6ROfhIR_11ettlex_core3ops5storeNtB2_5Store12ettle_exists
FNDA:0,_RNvMNtNtCsixIA6ROfhIR_11ettlex_core3ops5storeNtB2_5Store14list_decisions
FNDA:0,_RNvMNtNtCsixIA6ROfhIR_11ettlex_core3ops5storeNtB2_5Store16list_constraints
FNDA:0,_RNvMNtNtCsixIA6ROfhIR_11ettlex_core3ops5storeNtB2_5Store17get_decision_link
FNDA:0,_RNvMNtNtCsixIA6ROfhIR_11ettlex_core3ops5storeNtB2_5Store17get_evidence_item
FNDA:0,_RNvMNtNtCsixIA6ROfhIR_11ettlex_core3ops5storeNtB2_5Store20ep_exists_in_storage
FNDA:0,_RNvMNtNtCsixIA6ROfhIR_11ettlex_core3ops5storeNtB2_5Store30get_decision_including_deleted
FNDA:0,_RNvMNtNtCsixIA6ROfhIR_11ettlex_core3ops5storeNtB2_5Store30list_decision_links_for_target
FNDA:0,_RNvMNtNtCsixIA6ROfhIR_11ettlex_core3ops5storeNtB2_5Store9ep_exists
FNDA:0,_RNCNvMNtNtCsixIA6ROfhIR_11ettlex_core3ops5storeNtB4_5Store10get_ep_mut0B8_
FNDA:35,_RNCNvMNtNtCsixIA6ROfhIR_11ettlex_core3ops5storeNtB4_5Store11list_ettles0B8_
FNDA:0,_RNCNvMNtNtCsixIA6ROfhIR_11ettlex_core3ops5storeNtB4_5Store12get_decision0B8_
FNDA:0,_RNCNvMNtNtCsixIA6ROfhIR_11ettlex_core3ops5storeNtB4_5Store13get_ettle_mut0B8_
FNDA:0,_RNCNvMNtNtCsixIA6ROfhIR_11ettlex_core3ops5storeNtB4_5Store14get_constraint0B8_
FNDA:0,_RNCNvMNtNtCsixIA6ROfhIR_11ettlex_core3ops5storeNtB4_5Store16get_decision_mut0B8_
FNDA:3,_RNCNvMNtNtCsixIA6ROfhIR_11ettlex_core3ops5storeNtB4_5Store18get_constraint_mut0B8_
FNDA:3,_RNCNvMNtNtCsixIA6ROfhIR_11ettlex_core3ops5storeNtB4_5Store23list_ep_constraint_refs0B8_
FNDA:1,_RNCNvMNtNtCsixIA6ROfhIR_11ettlex_core3ops5storeNtB4_5Store32get_constraint_including_deleted0B8_
FNDA:2,_RNCNvMNtNtCsixIA6ROfhIR_11ettlex_core3ops5storeNtB4_5Store6get_ep0B8_
FNDA:0,_RNCNvMNtNtCsixIA6ROfhIR_11ettlex_core3ops5storeNtB4_5Store8list_eps0B8_
FNDA:1,_RNCNvMNtNtCsixIA6ROfhIR_11ettlex_core3ops5storeNtB4_5Store9get_ettle0B8_
FNF:55
FNH:49
DA:33,501
DA:34,501
DA:35,501
DA:36,501
DA:37,501
DA:38,501
DA:39,501
DA:40,501
DA:41,501
DA:42,501
DA:43,501
DA:52,1175
DA:53,1175
DA:54,1175
DA:55,1175
DA:56,1175
DA:57,14
DA:58,14
DA:60,1161
DA:61,7
DA:62,7
DA:63,7
DA:64,1154
DA:66,1154
DA:67,1175
DA:77,437
DA:78,437
DA:79,437
DA:80,437
DA:81,437
DA:82,2
DA:83,2
DA:85,435
DA:86,1
DA:87,1
DA:88,1
DA:89,434
DA:91,434
DA:92,437
DA:101,1188
DA:102,1188
DA:103,48
DA:104,48
DA:106,1140
DA:107,4
DA:108,4
DA:109,4
DA:110,1136
DA:112,1136
DA:113,1188
DA:123,108
DA:124,108
DA:125,108
DA:126,108
DA:127,108
DA:128,3
DA:129,3
DA:131,105
DA:132,0
DA:133,0
DA:134,0
DA:135,105
DA:137,105
DA:138,108
DA:141,314
DA:142,474
DA:143,314
DA:146,153
DA:147,163
DA:148,153
DA:153,527
DA:154,527
DA:155,527
DA:160,651
DA:161,651
DA:162,651
DA:166,0
DA:167,0
DA:168,0
DA:172,0
DA:173,0
DA:174,0
DA:179,9
DA:180,9
DA:181,9
DA:187,3
DA:188,3
DA:189,3
DA:199,1172
DA:200,1171
DA:201,1172
DA:202,1172
DA:203,1172
DA:204,1
DA:205,1
DA:207,1171
DA:208,2
DA:209,2
DA:210,2
DA:211,1169
DA:213,1169
DA:214,1172
DA:224,19
DA:225,16
DA:226,19
DA:227,19
DA:228,19
DA:229,3
DA:230,3
DA:232,16
DA:233,3
DA:234,3
DA:235,3
DA:236,13
DA:238,13
DA:239,19
DA:244,705
DA:245,705
DA:246,705
DA:247,705
DA:252,674
DA:253,674
DA:254,674
DA:255,674
DA:260,4
DA:261,4
DA:262,4
DA:263,4
DA:266,643
DA:267,643
DA:268,643
DA:269,643
DA:272,204
DA:273,204
DA:274,204
DA:275,1185
DA:276,204
DA:277,204
DA:280,1
DA:281,1
DA:282,1
DA:283,5
DA:284,1
DA:285,1
DA:295,635
DA:296,635
DA:297,635
DA:298,635
DA:299,2
DA:300,2
DA:301,635
DA:313,54
DA:314,54
DA:315,54
DA:316,54
DA:317,54
DA:318,2
DA:319,2
DA:321,52
DA:322,2
DA:323,2
DA:324,2
DA:325,50
DA:327,50
DA:328,54
DA:338,12
DA:339,12
DA:340,12
DA:341,12
DA:342,12
DA:343,1
DA:344,1
DA:346,11
DA:347,0
DA:348,0
DA:349,0
DA:350,11
DA:352,11
DA:353,12
DA:363,1
DA:364,1
DA:365,1
DA:366,1
DA:367,0
DA:368,0
DA:369,1
DA:374,601
DA:375,601
DA:376,601
DA:377,601
DA:384,3
DA:385,3
DA:386,3
DA:387,3
DA:388,0
DA:389,0
DA:390,3
DA:395,3
DA:396,3
DA:397,3
DA:398,3
DA:403,38
DA:404,38
DA:405,38
DA:406,38
DA:407,38
DA:408,38
DA:409,38
DA:410,38
DA:411,38
DA:416,4
DA:417,4
DA:418,4
DA:419,4
DA:420,4
DA:421,4
DA:422,4
DA:423,4
DA:424,4
DA:425,4
DA:426,4
DA:427,4
DA:428,4
DA:429,4
DA:430,4
DA:433,42
DA:434,42
DA:435,42
DA:436,42
DA:437,42
DA:438,42
DA:439,42
DA:440,42
DA:441,42
DA:442,42
DA:443,42
DA:444,42
DA:445,42
DA:446,42
DA:447,42
DA:450,4
DA:451,4
DA:452,4
DA:453,4
DA:454,4
DA:455,4
DA:456,4
DA:457,4
DA:458,4
DA:459,4
DA:462,9
DA:463,9
DA:464,9
DA:465,9
DA:466,9
DA:467,9
DA:468,9
DA:469,9
DA:470,9
DA:471,9
DA:472,9
DA:473,9
DA:474,9
DA:475,9
DA:476,9
DA:479,0
DA:480,0
DA:481,0
DA:482,0
DA:483,0
DA:484,0
DA:492,1
DA:493,1
DA:494,1
DA:495,1
DA:496,1
DA:499,1
DA:500,1
DA:501,1
DA:503,1
DA:505,1
DA:506,1
DA:507,1
DA:508,1
DA:511,1
DA:512,1
DA:513,1
DA:514,1
DA:515,1
DA:516,1
DA:519,1
DA:520,1
DA:521,1
DA:522,1
DA:524,1
DA:526,1
DA:527,1
DA:528,1
DA:529,1
BRF:0
BRH:0
LF:313
LH:290
end_of_record
SF:/Users/nick/Development/EttleX/EttleX-Project/Rust/crates/ettlex-core/src/policy.rs
FN:171,_RNvMs1_NtCs4640luT8Huz_11ettlex_core6policyNtB5_27PolicyProviderAnchorAdapter3new
FN:113,_RNvMs_NtCs4640luT8Huz_11ettlex_core6policyNtB4_22SelectedAnchoredPolicy11with_ettles
FN:100,_RNvMs_NtCs4640luT8Huz_11ettlex_core6policyNtB4_22SelectedAnchoredPolicy3new
FN:108,_RNvMs_NtCs4640luT8Huz_11ettlex_core6policyNtB4_22SelectedAnchoredPolicy8with_eps
FN:59,_RNvXNtCs4640luT8Huz_11ettlex_core6policyNtB2_19NeverAnchoredPolicyNtB2_12AnchorPolicy14is_anchored_ep
FN:63,_RNvXNtCs4640luT8Huz_11ettlex_core6policyNtB2_19NeverAnchoredPolicyNtB2_12AnchorPolicy17is_anchored_ettle
FN:119,_RNvXs0_NtCs4640luT8Huz_11ettlex_core6policyNtB5_22SelectedAnchoredPolicyNtB5_12AnchorPolicy14is_anchored_ep
FN:123,_RNvXs0_NtCs4640luT8Huz_11ettlex_core6policyNtB5_22SelectedAnchoredPolicyNtB5_12AnchorPolicy17is_anchored_ettle
FN:177,_RNvXs2_NtCs4640luT8Huz_11ettlex_core6policyNtB5_27PolicyProviderAnchorAdapterNtB5_12AnchorPolicy14is_anchored_ep
FN:182,_RNvXs2_NtCs4640luT8Huz_11ettlex_core6policyNtB5_27PolicyProviderAnchorAdapterNtB5_12AnchorPolicy17is_anchored_ettle
FN:193,_RNvXs3_NtCs4640luT8Huz_11ettlex_core6policyNtB5_20NoopCommitPolicyHookNtB5_16CommitPolicyHook5check
FN:203,_RNvXs4_NtCs4640luT8Huz_11ettlex_core6policyNtB5_23DenyAllCommitPolicyHookNtB5_16CommitPolicyHook5check
FN:216,_RNvNtNtCsixIA6ROfhIR_11ettlex_core6policy5testss_26test_never_anchored_policy
FN:226,_RNvNtNtCsixIA6ROfhIR_11ettlex_core6policy5testss_33test_selected_anchored_policy_eps
FN:271,_RNvNtNtCsixIA6ROfhIR_11ettlex_core6policy5testss_34test_selected_anchored_policy_both
FN:252,_RNvNtNtCsixIA6ROfhIR_11ettlex_core6policy5testss_35test_commit_policy_hook_noop_allows
FN:240,_RNvNtNtCsixIA6ROfhIR_11ettlex_core6policy5testss_36test_selected_anchored_policy_ettles
FN:259,_RNvNtNtCsixIA6ROfhIR_11ettlex_core6policy5testss_39test_commit_policy_hook_deny_all_denies
FN:171,_RNvMs1_NtCsixIA6ROfhIR_11ettlex_core6policyNtB5_27PolicyProviderAnchorAdapter3new
FN:177,_RNvXs2_NtCsixIA6ROfhIR_11ettlex_core6policyNtB5_27PolicyProviderAnchorAdapterNtB5_12AnchorPolicy14is_anchored_ep
FN:182,_RNvXs2_NtCsixIA6ROfhIR_11ettlex_core6policyNtB5_27PolicyProviderAnchorAdapterNtB5_12AnchorPolicy17is_anchored_ettle
FN:113,_RNvMs_NtCsixIA6ROfhIR_11ettlex_core6policyNtB4_22SelectedAnchoredPolicy11with_ettles
FN:100,_RNvMs_NtCsixIA6ROfhIR_11ettlex_core6policyNtB4_22SelectedAnchoredPolicy3new
FN:108,_RNvMs_NtCsixIA6ROfhIR_11ettlex_core6policyNtB4_22SelectedAnchoredPolicy8with_eps
FN:59,_RNvXNtCsixIA6ROfhIR_11ettlex_core6policyNtB2_19NeverAnchoredPolicyNtB2_12AnchorPolicy14is_anchored_ep
FN:63,_RNvXNtCsixIA6ROfhIR_11ettlex_core6policyNtB2_19NeverAnchoredPolicyNtB2_12AnchorPolicy17is_anchored_ettle
FN:119,_RNvXs0_NtCsixIA6ROfhIR_11ettlex_core6policyNtB5_22SelectedAnchoredPolicyNtB5_12AnchorPolicy14is_anchored_ep
FN:123,_RNvXs0_NtCsixIA6ROfhIR_11ettlex_core6policyNtB5_22SelectedAnchoredPolicyNtB5_12AnchorPolicy17is_anchored_ettle
FN:193,_RNvXs3_NtCsixIA6ROfhIR_11ettlex_core6policyNtB5_20NoopCommitPolicyHookNtB5_16CommitPolicyHook5check
FN:203,_RNvXs4_NtCsixIA6ROfhIR_11ettlex_core6policyNtB5_23DenyAllCommitPolicyHookNtB5_16CommitPolicyHook5check
FNDA:1,_RNvMs1_NtCs4640luT8Huz_11ettlex_core6policyNtB5_27PolicyProviderAnchorAdapter3new
FNDA:0,_RNvMs_NtCs4640luT8Huz_11ettlex_core6policyNtB4_22SelectedAnchoredPolicy11with_ettles
FNDA:4,_RNvMs_NtCs4640luT8Huz_11ettlex_core6policyNtB4_22SelectedAnchoredPolicy3new
FNDA:3,_RNvMs_NtCs4640luT8Huz_11ettlex_core6policyNtB4_22SelectedAnchoredPolicy8with_eps
FNDA:10,_RNvXNtCs4640luT8Huz_11ettlex_core6policyNtB2_19NeverAnchoredPolicyNtB2_12AnchorPolicy14is_anchored_ep
FNDA:4,_RNvXNtCs4640luT8Huz_11ettlex_core6policyNtB2_19NeverAnchoredPolicyNtB2_12AnchorPolicy17is_anchored_ettle
FNDA:6,_RNvXs0_NtCs4640luT8Huz_11ettlex_core6policyNtB5_22SelectedAnchoredPolicyNtB5_12AnchorPolicy14is_anchored_ep
FNDA:0,_RNvXs0_NtCs4640luT8Huz_11ettlex_core6policyNtB5_22SelectedAnchoredPolicyNtB5_12AnchorPolicy17is_anchored_ettle
FNDA:5,_RNvXs2_NtCs4640luT8Huz_11ettlex_core6policyNtB5_27PolicyProviderAnchorAdapterNtB5_12AnchorPolicy14is_anchored_ep
FNDA:5,_RNvXs2_NtCs4640luT8Huz_11ettlex_core6policyNtB5_27PolicyProviderAnchorAdapterNtB5_12AnchorPolicy17is_anchored_ettle
FNDA:0,_RNvXs3_NtCs4640luT8Huz_11ettlex_core6policyNtB5_20NoopCommitPolicyHookNtB5_16CommitPolicyHook5check
FNDA:0,_RNvXs4_NtCs4640luT8Huz_11ettlex_core6policyNtB5_23DenyAllCommitPolicyHookNtB5_16CommitPolicyHook5check
FNDA:1,_RNvNtNtCsixIA6ROfhIR_11ettlex_core6policy5testss_26test_never_anchored_policy
FNDA:1,_RNvNtNtCsixIA6ROfhIR_11ettlex_core6policy5testss_33test_selected_anchored_policy_eps
FNDA:1,_RNvNtNtCsixIA6ROfhIR_11ettlex_core6policy5testss_34test_selected_anchored_policy_both
FNDA:1,_RNvNtNtCsixIA6ROfhIR_11ettlex_core6policy5testss_35test_commit_policy_hook_noop_allows
FNDA:1,_RNvNtNtCsixIA6ROfhIR_11ettlex_core6policy5testss_36test_selected_anchored_policy_ettles
FNDA:1,_RNvNtNtCsixIA6ROfhIR_11ettlex_core6policy5testss_39test_commit_policy_hook_deny_all_denies
FNDA:0,_RNvMs1_NtCsixIA6ROfhIR_11ettlex_core6policyNtB5_27PolicyProviderAnchorAdapter3new
FNDA:0,_RNvXs2_NtCsixIA6ROfhIR_11ettlex_core6policyNtB5_27PolicyProviderAnchorAdapterNtB5_12AnchorPolicy14is_anchored_ep
FNDA:0,_RNvXs2_NtCsixIA6ROfhIR_11ettlex_core6policyNtB5_27PolicyProviderAnchorAdapterNtB5_12AnchorPolicy17is_anchored_ettle
FNDA:1,_RNvMs_NtCsixIA6ROfhIR_11ettlex_core6policyNtB4_22SelectedAnchoredPolicy11with_ettles
FNDA:4,_RNvMs_NtCsixIA6ROfhIR_11ettlex_core6policyNtB4_22SelectedAnchoredPolicy3new
FNDA:2,_RNvMs_NtCsixIA6ROfhIR_11ettlex_core6policyNtB4_22SelectedAnchoredPolicy8with_eps
FNDA:4,_RNvXNtCsixIA6ROfhIR_11ettlex_core6policyNtB2_19NeverAnchoredPolicyNtB2_12AnchorPolicy14is_anchored_ep
FNDA:2,_RNvXNtCsixIA6ROfhIR_11ettlex_core6policyNtB2_19NeverAnchoredPolicyNtB2_12AnchorPolicy17is_anchored_ettle
FNDA:7,_RNvXs0_NtCsixIA6ROfhIR_11ettlex_core6policyNtB5_22SelectedAnchoredPolicyNtB5_12AnchorPolicy14is_anchored_ep
FNDA:5,_RNvXs0_NtCsixIA6ROfhIR_11ettlex_core6policyNtB5_22SelectedAnchoredPolicyNtB5_12AnchorPolicy17is_anchored_ettle
FNDA:1,_RNvXs3_NtCsixIA6ROfhIR_11ettlex_core6policyNtB5_20NoopCommitPolicyHookNtB5_16CommitPolicyHook5check
FNDA:1,_RNvXs4_NtCsixIA6ROfhIR_11ettlex_core6policyNtB5_23DenyAllCommitPolicyHookNtB5_16CommitPolicyHook5check
FNF:18
FNH:18
DA:59,14
DA:60,14
DA:61,14
DA:63,6
DA:64,6
DA:65,6
DA:100,8
DA:101,8
DA:102,8
DA:103,8
DA:104,8
DA:105,8
DA:108,5
DA:109,5
DA:110,5
DA:113,1
DA:114,1
DA:115,1
DA:119,13
DA:120,13
DA:121,13
DA:123,5
DA:124,5
DA:125,5
DA:171,1
DA:172,1
DA:173,1
DA:177,5
DA:179,5
DA:180,5
DA:182,5
DA:184,5
DA:185,5
DA:193,1
DA:194,1
DA:195,1
DA:203,1
DA:204,1
DA:205,1
DA:206,1
DA:207,1
DA:208,1
DA:216,1
DA:217,1
DA:219,1
DA:220,1
DA:221,1
DA:222,1
DA:223,1
DA:226,1
DA:227,1
DA:228,1
DA:229,1
DA:231,1
DA:233,1
DA:234,1
DA:235,1
DA:236,1
DA:237,1
DA:240,1
DA:241,1
DA:242,1
DA:244,1
DA:246,1
DA:247,1
DA:248,1
DA:249,1
DA:252,1
DA:253,1
DA:254,1
DA:255,1
DA:256,1
DA:259,1
DA:261,1
DA:262,1
DA:263,1
DA:264,1
DA:267,1
DA:268,1
DA:271,1
DA:272,1
DA:273,1
DA:275,1
DA:276,1
DA:278,1
DA:280,1
DA:281,1
DA:282,1
DA:283,1
DA:284,1
BRF:0
BRH:0
LF:90
LH:90
end_of_record
SF:/Users/nick/Development/EttleX/EttleX-Project/Rust/crates/ettlex-core/src/policy_provider.rs
FN:164,_RNvXNtCs4640luT8Huz_11ettlex_core15policy_providerNtB2_18NoopPolicyProviderNtB2_14PolicyProvider11policy_list
FN:150,_RNvXNtCs4640luT8Huz_11ettlex_core15policy_providerNtB2_18NoopPolicyProviderNtB2_14PolicyProvider11policy_read
FN:139,_RNvXNtCs4640luT8Huz_11ettlex_core15policy_providerNtB2_18NoopPolicyProviderNtB2_14PolicyProvider12policy_check
FN:157,_RNvXNtCs4640luT8Huz_11ettlex_core15policy_providerNtB2_18NoopPolicyProviderNtB2_14PolicyProvider13policy_export
FN:169,_RNvXNtCs4640luT8Huz_11ettlex_core15policy_providerNtB2_18NoopPolicyProviderNtB2_14PolicyProvider26policy_project_for_handoff
FN:227,_RNvXs_NtCs4640luT8Huz_11ettlex_core15policy_providerNtB4_21DenyAllPolicyProviderNtB4_14PolicyProvider11policy_list
FN:213,_RNvXs_NtCs4640luT8Huz_11ettlex_core15policy_providerNtB4_21DenyAllPolicyProviderNtB4_14PolicyProvider11policy_read
FN:202,_RNvXs_NtCs4640luT8Huz_11ettlex_core15policy_providerNtB4_21DenyAllPolicyProviderNtB4_14PolicyProvider12policy_check
FN:220,_RNvXs_NtCs4640luT8Huz_11ettlex_core15policy_providerNtB4_21DenyAllPolicyProviderNtB4_14PolicyProvider13policy_export
FN:232,_RNvXs_NtCs4640luT8Huz_11ettlex_core15policy_providerNtB4_21DenyAllPolicyProviderNtB4_14PolicyProvider26policy_project_for_handoff
FN:249,_RNvNtNtCsixIA6ROfhIR_11ettlex_core15policy_provider5testss_25test_noop_provider_allows
FN:275,_RNvNtNtCsixIA6ROfhIR_11ettlex_core15policy_provider5testss_29test_deny_all_provider_denies
FN:262,_RNvNtNtCsixIA6ROfhIR_11ettlex_core15policy_provider5testss_29test_noop_provider_list_empty
FN:268,_RNvNtNtCsixIA6ROfhIR_11ettlex_core15policy_provider5testss_33test_noop_provider_read_not_found
FN:289,_RNvNtNtCsixIA6ROfhIR_11ettlex_core15policy_provider5testss_37test_deny_all_provider_read_not_found
FN:164,_RNvXNtCsixIA6ROfhIR_11ettlex_core15policy_providerNtB2_18NoopPolicyProviderNtB2_14PolicyProvider11policy_list
FN:150,_RNvXNtCsixIA6ROfhIR_11ettlex_core15policy_providerNtB2_18NoopPolicyProviderNtB2_14PolicyProvider11policy_read
FN:139,_RNvXNtCsixIA6ROfhIR_11ettlex_core15policy_providerNtB2_18NoopPolicyProviderNtB2_14PolicyProvider12policy_check
FN:213,_RNvXs_NtCsixIA6ROfhIR_11ettlex_core15policy_providerNtB4_21DenyAllPolicyProviderNtB4_14PolicyProvider11policy_read
FN:202,_RNvXs_NtCsixIA6ROfhIR_11ettlex_core15policy_providerNtB4_21DenyAllPolicyProviderNtB4_14PolicyProvider12policy_check
FN:157,_RNvXNtCsixIA6ROfhIR_11ettlex_core15policy_providerNtB2_18NoopPolicyProviderNtB2_14PolicyProvider13policy_export
FN:169,_RNvXNtCsixIA6ROfhIR_11ettlex_core15policy_providerNtB2_18NoopPolicyProviderNtB2_14PolicyProvider26policy_project_for_handoff
FN:227,_RNvXs_NtCsixIA6ROfhIR_11ettlex_core15policy_providerNtB4_21DenyAllPolicyProviderNtB4_14PolicyProvider11policy_list
FN:220,_RNvXs_NtCsixIA6ROfhIR_11ettlex_core15policy_providerNtB4_21DenyAllPolicyProviderNtB4_14PolicyProvider13policy_export
FN:232,_RNvXs_NtCsixIA6ROfhIR_11ettlex_core15policy_providerNtB4_21DenyAllPolicyProviderNtB4_14PolicyProvider26policy_project_for_handoff
FNDA:2,_RNvXNtCs4640luT8Huz_11ettlex_core15policy_providerNtB2_18NoopPolicyProviderNtB2_14PolicyProvider11policy_list
FNDA:2,_RNvXNtCs4640luT8Huz_11ettlex_core15policy_providerNtB2_18NoopPolicyProviderNtB2_14PolicyProvider11policy_read
FNDA:77,_RNvXNtCs4640luT8Huz_11ettlex_core15policy_providerNtB2_18NoopPolicyProviderNtB2_14PolicyProvider12policy_check
FNDA:0,_RNvXNtCs4640luT8Huz_11ettlex_core15policy_providerNtB2_18NoopPolicyProviderNtB2_14PolicyProvider13policy_export
FNDA:3,_RNvXNtCs4640luT8Huz_11ettlex_core15policy_providerNtB2_18NoopPolicyProviderNtB2_14PolicyProvider26policy_project_for_handoff
FNDA:0,_RNvXs_NtCs4640luT8Huz_11ettlex_core15policy_providerNtB4_21DenyAllPolicyProviderNtB4_14PolicyProvider11policy_list
FNDA:0,_RNvXs_NtCs4640luT8Huz_11ettlex_core15policy_providerNtB4_21DenyAllPolicyProviderNtB4_14PolicyProvider11policy_read
FNDA:6,_RNvXs_NtCs4640luT8Huz_11ettlex_core15policy_providerNtB4_21DenyAllPolicyProviderNtB4_14PolicyProvider12policy_check
FNDA:0,_RNvXs_NtCs4640luT8Huz_11ettlex_core15policy_providerNtB4_21DenyAllPolicyProviderNtB4_14PolicyProvider13policy_export
FNDA:0,_RNvXs_NtCs4640luT8Huz_11ettlex_core15policy_providerNtB4_21DenyAllPolicyProviderNtB4_14PolicyProvider26policy_project_for_handoff
FNDA:1,_RNvNtNtCsixIA6ROfhIR_11ettlex_core15policy_provider5testss_25test_noop_provider_allows
FNDA:1,_RNvNtNtCsixIA6ROfhIR_11ettlex_core15policy_provider5testss_29test_deny_all_provider_denies
FNDA:1,_RNvNtNtCsixIA6ROfhIR_11ettlex_core15policy_provider5testss_29test_noop_provider_list_empty
FNDA:1,_RNvNtNtCsixIA6ROfhIR_11ettlex_core15policy_provider5testss_33test_noop_provider_read_not_found
FNDA:1,_RNvNtNtCsixIA6ROfhIR_11ettlex_core15policy_provider5testss_37test_deny_all_provider_read_not_found
FNDA:1,_RNvXNtCsixIA6ROfhIR_11ettlex_core15policy_providerNtB2_18NoopPolicyProviderNtB2_14PolicyProvider11policy_list
FNDA:1,_RNvXNtCsixIA6ROfhIR_11ettlex_core15policy_providerNtB2_18NoopPolicyProviderNtB2_14PolicyProvider11policy_read
FNDA:1,_RNvXNtCsixIA6ROfhIR_11ettlex_core15policy_providerNtB2_18NoopPolicyProviderNtB2_14PolicyProvider12policy_check
FNDA:1,_RNvXs_NtCsixIA6ROfhIR_11ettlex_core15policy_providerNtB4_21DenyAllPolicyProviderNtB4_14PolicyProvider11policy_read
FNDA:1,_RNvXs_NtCsixIA6ROfhIR_11ettlex_core15policy_providerNtB4_21DenyAllPolicyProviderNtB4_14PolicyProvider12policy_check
FNDA:0,_RNvXNtCsixIA6ROfhIR_11ettlex_core15policy_providerNtB2_18NoopPolicyProviderNtB2_14PolicyProvider13policy_export
FNDA:0,_RNvXNtCsixIA6ROfhIR_11ettlex_core15policy_providerNtB2_18NoopPolicyProviderNtB2_14PolicyProvider26policy_project_for_handoff
FNDA:0,_RNvXs_NtCsixIA6ROfhIR_11ettlex_core15policy_providerNtB4_21DenyAllPolicyProviderNtB4_14PolicyProvider11policy_list
FNDA:0,_RNvXs_NtCsixIA6ROfhIR_11ettlex_core15policy_providerNtB4_21DenyAllPolicyProviderNtB4_14PolicyProvider13policy_export
FNDA:0,_RNvXs_NtCsixIA6ROfhIR_11ettlex_core15policy_providerNtB4_21DenyAllPolicyProviderNtB4_14PolicyProvider26policy_project_for_handoff
FNF:15
FNH:11
DA:139,78
DA:140,78
DA:141,78
DA:142,78
DA:143,78
DA:144,78
DA:145,78
DA:146,78
DA:147,78
DA:150,3
DA:151,3
DA:152,3
DA:153,3
DA:154,3
DA:157,0
DA:158,0
DA:159,0
DA:160,0
DA:161,0
DA:164,3
DA:165,3
DA:166,3
DA:169,3
DA:170,3
DA:171,3
DA:172,3
DA:173,3
DA:174,3
DA:175,3
DA:176,3
DA:177,3
DA:202,7
DA:203,7
DA:204,7
DA:205,7
DA:206,7
DA:207,7
DA:208,7
DA:209,7
DA:210,7
DA:213,1
DA:214,1
DA:215,1
DA:216,1
DA:217,1
DA:220,0
DA:221,0
DA:222,0
DA:223,0
DA:224,0
DA:227,0
DA:228,0
DA:229,0
DA:232,0
DA:233,0
DA:234,0
DA:235,0
DA:236,0
DA:237,0
DA:238,0
DA:239,0
DA:240,0
DA:249,1
DA:250,1
DA:251,1
DA:252,1
DA:253,1
DA:254,1
DA:255,1
DA:256,1
DA:257,1
DA:258,1
DA:259,1
DA:262,1
DA:263,1
DA:264,1
DA:265,1
DA:268,1
DA:269,1
DA:270,1
DA:271,1
DA:272,1
DA:275,1
DA:276,1
DA:277,1
DA:278,1
DA:279,1
DA:280,1
DA:281,1
DA:282,1
DA:284,1
DA:285,1
DA:286,1
DA:289,1
DA:290,1
DA:291,1
DA:292,1
DA:293,1
BRF:0
BRH:0
LF:98
LH:76
end_of_record
SF:/Users/nick/Development/EttleX/EttleX-Project/Rust/crates/ettlex-core/src/queries/decision_queries.rs
FN:226,_RNCNCNvNtNtCs4640luT8Huz_11ettlex_core7queries16decision_queries17ep_list_decisionss_00B9_
FN:227,_RNCNCNvNtNtCs4640luT8Huz_11ettlex_core7queries16decision_queries17ep_list_decisionss_0s_0B9_
FN:366,_RNCNCNvNtNtCs4640luT8Huz_11ettlex_core7queries16decision_queries28ept_compute_decision_context00B9_
FN:314,_RNCNCNvNtNtCs4640luT8Huz_11ettlex_core7queries16decision_queries32ep_list_decisions_with_ancestors00B9_
FN:91,_RNCNvNtNtCs4640luT8Huz_11ettlex_core7queries16decision_queries12decision_get0B7_
FN:170,_RNCNvNtNtCs4640luT8Huz_11ettlex_core7queries16decision_queries13decision_list0B7_
FN:187,_RNCNvNtNtCs4640luT8Huz_11ettlex_core7queries16decision_queries13decision_lists_0B7_
FN:395,_RNCNvNtNtCs4640luT8Huz_11ettlex_core7queries16decision_queries13decode_cursor0B7_
FN:410,_RNCNvNtNtCs4640luT8Huz_11ettlex_core7queries16decision_queries13decode_cursors0_0B7_
FN:399,_RNCNvNtNtCs4640luT8Huz_11ettlex_core7queries16decision_queries13decode_cursors_0B7_
FN:219,_RNCNvNtNtCs4640luT8Huz_11ettlex_core7queries16decision_queries17ep_list_decisions0B7_
FN:232,_RNCNvNtNtCs4640luT8Huz_11ettlex_core7queries16decision_queries17ep_list_decisionss0_0B7_
FN:223,_RNCNvNtNtCs4640luT8Huz_11ettlex_core7queries16decision_queries17ep_list_decisionss_0B7_
FN:363,_RNCNvNtNtCs4640luT8Huz_11ettlex_core7queries16decision_queries28ept_compute_decision_context0B7_
FN:370,_RNCNvNtNtCs4640luT8Huz_11ettlex_core7queries16decision_queries28ept_compute_decision_contexts_0B7_
FN:311,_RNCNvNtNtCs4640luT8Huz_11ettlex_core7queries16decision_queries32ep_list_decisions_with_ancestors0B7_
FN:78,_RNvNtNtCs4640luT8Huz_11ettlex_core7queries16decision_queries12decision_get
FN:110,_RNvNtNtCs4640luT8Huz_11ettlex_core7queries16decision_queries13decision_list
FN:392,_RNvNtNtCs4640luT8Huz_11ettlex_core7queries16decision_queries13decode_cursor
FN:381,_RNvNtNtCs4640luT8Huz_11ettlex_core7queries16decision_queries13encode_cursor
FN:207,_RNvNtNtCs4640luT8Huz_11ettlex_core7queries16decision_queries17ep_list_decisions
FN:328,_RNvNtNtCs4640luT8Huz_11ettlex_core7queries16decision_queries28ept_compute_decision_context
FN:279,_RNvNtNtCs4640luT8Huz_11ettlex_core7queries16decision_queries32ep_list_decisions_with_ancestors
FN:434,_RNvNtNtNtCsixIA6ROfhIR_11ettlex_core7queries16decision_queries5testss_19test_cursor_invalid
FN:423,_RNvNtNtNtCsixIA6ROfhIR_11ettlex_core7queries16decision_queries5testss_20test_cursor_encoding
FN:226,_RNCNCNvNtNtCsixIA6ROfhIR_11ettlex_core7queries16decision_queries17ep_list_decisionss_00B9_
FN:227,_RNCNCNvNtNtCsixIA6ROfhIR_11ettlex_core7queries16decision_queries17ep_list_decisionss_0s_0B9_
FN:366,_RNCNCNvNtNtCsixIA6ROfhIR_11ettlex_core7queries16decision_queries28ept_compute_decision_context00B9_
FN:314,_RNCNCNvNtNtCsixIA6ROfhIR_11ettlex_core7queries16decision_queries32ep_list_decisions_with_ancestors00B9_
FN:91,_RNCNvNtNtCsixIA6ROfhIR_11ettlex_core7queries16decision_queries12decision_get0B7_
FN:170,_RNCNvNtNtCsixIA6ROfhIR_11ettlex_core7queries16decision_queries13decision_list0B7_
FN:187,_RNCNvNtNtCsixIA6ROfhIR_11ettlex_core7queries16decision_queries13decision_lists_0B7_
FN:219,_RNCNvNtNtCsixIA6ROfhIR_11ettlex_core7queries16decision_queries17ep_list_decisions0B7_
FN:232,_RNCNvNtNtCsixIA6ROfhIR_11ettlex_core7queries16decision_queries17ep_list_decisionss0_0B7_
FN:223,_RNCNvNtNtCsixIA6ROfhIR_11ettlex_core7queries16decision_queries17ep_list_decisionss_0B7_
FN:363,_RNCNvNtNtCsixIA6ROfhIR_11ettlex_core7queries16decision_queries28ept_compute_decision_context0B7_
FN:370,_RNCNvNtNtCsixIA6ROfhIR_11ettlex_core7queries16decision_queries28ept_compute_decision_contexts_0B7_
FN:311,_RNCNvNtNtCsixIA6ROfhIR_11ettlex_core7queries16decision_queries32ep_list_decisions_with_ancestors0B7_
FN:78,_RNvNtNtCsixIA6ROfhIR_11ettlex_core7queries16decision_queries12decision_get
FN:110,_RNvNtNtCsixIA6ROfhIR_11ettlex_core7queries16decision_queries13decision_list
FN:207,_RNvNtNtCsixIA6ROfhIR_11ettlex_core7queries16decision_queries17ep_list_decisions
FN:328,_RNvNtNtCsixIA6ROfhIR_11ettlex_core7queries16decision_queries28ept_compute_decision_context
FN:279,_RNvNtNtCsixIA6ROfhIR_11ettlex_core7queries16decision_queries32ep_list_decisions_with_ancestors
FN:392,_RNvNtNtCsixIA6ROfhIR_11ettlex_core7queries16decision_queries13decode_cursor
FN:381,_RNvNtNtCsixIA6ROfhIR_11ettlex_core7queries16decision_queries13encode_cursor
FN:395,_RNCNvNtNtCsixIA6ROfhIR_11ettlex_core7queries16decision_queries13decode_cursor0B7_
FN:410,_RNCNvNtNtCsixIA6ROfhIR_11ettlex_core7queries16decision_queries13decode_cursors0_0B7_
FN:399,_RNCNvNtNtCsixIA6ROfhIR_11ettlex_core7queries16decision_queries13decode_cursors_0B7_
FNDA:0,_RNCNCNvNtNtCs4640luT8Huz_11ettlex_core7queries16decision_queries17ep_list_decisionss_00B9_
FNDA:0,_RNCNCNvNtNtCs4640luT8Huz_11ettlex_core7queries16decision_queries17ep_list_decisionss_0s_0B9_
FNDA:0,_RNCNCNvNtNtCs4640luT8Huz_11ettlex_core7queries16decision_queries28ept_compute_decision_context00B9_
FNDA:0,_RNCNCNvNtNtCs4640luT8Huz_11ettlex_core7queries16decision_queries32ep_list_decisions_with_ancestors00B9_
FNDA:0,_RNCNvNtNtCs4640luT8Huz_11ettlex_core7queries16decision_queries12decision_get0B7_
FNDA:7,_RNCNvNtNtCs4640luT8Huz_11ettlex_core7queries16decision_queries13decision_list0B7_
FNDA:6,_RNCNvNtNtCs4640luT8Huz_11ettlex_core7queries16decision_queries13decision_lists_0B7_
FNDA:0,_RNCNvNtNtCs4640luT8Huz_11ettlex_core7queries16decision_queries13decode_cursor0B7_
FNDA:0,_RNCNvNtNtCs4640luT8Huz_11ettlex_core7queries16decision_queries13decode_cursors0_0B7_
FNDA:0,_RNCNvNtNtCs4640luT8Huz_11ettlex_core7queries16decision_queries13decode_cursors_0B7_
FNDA:29,_RNCNvNtNtCs4640luT8Huz_11ettlex_core7queries16decision_queries17ep_list_decisions0B7_
FNDA:0,_RNCNvNtNtCs4640luT8Huz_11ettlex_core7queries16decision_queries17ep_list_decisionss0_0B7_
FNDA:36,_RNCNvNtNtCs4640luT8Huz_11ettlex_core7queries16decision_queries17ep_list_decisionss_0B7_
FNDA:8,_RNCNvNtNtCs4640luT8Huz_11ettlex_core7queries16decision_queries28ept_compute_decision_context0B7_
FNDA:8,_RNCNvNtNtCs4640luT8Huz_11ettlex_core7queries16decision_queries28ept_compute_decision_contexts_0B7_
FNDA:1,_RNCNvNtNtCs4640luT8Huz_11ettlex_core7queries16decision_queries32ep_list_decisions_with_ancestors0B7_
FNDA:0,_RNvNtNtCs4640luT8Huz_11ettlex_core7queries16decision_queries12decision_get
FNDA:14,_RNvNtNtCs4640luT8Huz_11ettlex_core7queries16decision_queries13decision_list
FNDA:5,_RNvNtNtCs4640luT8Huz_11ettlex_core7queries16decision_queries13decode_cursor
FNDA:6,_RNvNtNtCs4640luT8Huz_11ettlex_core7queries16decision_queries13encode_cursor
FNDA:12,_RNvNtNtCs4640luT8Huz_11ettlex_core7queries16decision_queries17ep_list_decisions
FNDA:3,_RNvNtNtCs4640luT8Huz_11ettlex_core7queries16decision_queries28ept_compute_decision_context
FNDA:2,_RNvNtNtCs4640luT8Huz_11ettlex_core7queries16decision_queries32ep_list_decisions_with_ancestors
FNDA:1,_RNvNtNtNtCsixIA6ROfhIR_11ettlex_core7queries16decision_queries5testss_19test_cursor_invalid
FNDA:1,_RNvNtNtNtCsixIA6ROfhIR_11ettlex_core7queries16decision_queries5testss_20test_cursor_encoding
FNDA:0,_RNCNCNvNtNtCsixIA6ROfhIR_11ettlex_core7queries16decision_queries17ep_list_decisionss_00B9_
FNDA:0,_RNCNCNvNtNtCsixIA6ROfhIR_11ettlex_core7queries16decision_queries17ep_list_decisionss_0s_0B9_
FNDA:0,_RNCNCNvNtNtCsixIA6ROfhIR_11ettlex_core7queries16decision_queries28ept_compute_decision_context00B9_
FNDA:0,_RNCNCNvNtNtCsixIA6ROfhIR_11ettlex_core7queries16decision_queries32ep_list_decisions_with_ancestors00B9_
FNDA:0,_RNCNvNtNtCsixIA6ROfhIR_11ettlex_core7queries16decision_queries12decision_get0B7_
FNDA:0,_RNCNvNtNtCsixIA6ROfhIR_11ettlex_core7queries16decision_queries13decision_list0B7_
FNDA:0,_RNCNvNtNtCsixIA6ROfhIR_11ettlex_core7queries16decision_queries13decision_lists_0B7_
FNDA:0,_RNCNvNtNtCsixIA6ROfhIR_11ettlex_core7queries16decision_queries17ep_list_decisions0B7_
FNDA:0,_RNCNvNtNtCsixIA6ROfhIR_11ettlex_core7queries16decision_queries17ep_list_decisionss0_0B7_
FNDA:0,_RNCNvNtNtCsixIA6ROfhIR_11ettlex_core7queries16decision_queries17ep_list_decisionss_0B7_
FNDA:0,_RNCNvNtNtCsixIA6ROfhIR_11ettlex_core7queries16decision_queries28ept_compute_decision_context0B7_
FNDA:0,_RNCNvNtNtCsixIA6ROfhIR_11ettlex_core7queries16decision_queries28ept_compute_decision_contexts_0B7_
FNDA:0,_RNCNvNtNtCsixIA6ROfhIR_11ettlex_core7queries16decision_queries32ep_list_decisions_with_ancestors0B7_
FNDA:0,_RNvNtNtCsixIA6ROfhIR_11ettlex_core7queries16decision_queries12decision_get
FNDA:0,_RNvNtNtCsixIA6ROfhIR_11ettlex_core7queries16decision_queries13decision_list
FNDA:0,_RNvNtNtCsixIA6ROfhIR_11ettlex_core7queries16decision_queries17ep_list_decisions
FNDA:0,_RNvNtNtCsixIA6ROfhIR_11ettlex_core7queries16decision_queries28ept_compute_decision_context
FNDA:0,_RNvNtNtCsixIA6ROfhIR_11ettlex_core7queries16decision_queries32ep_list_decisions_with_ancestors
FNDA:2,_RNvNtNtCsixIA6ROfhIR_11ettlex_core7queries16decision_queries13decode_cursor
FNDA:1,_RNvNtNtCsixIA6ROfhIR_11ettlex_core7queries16decision_queries13encode_cursor
FNDA:1,_RNCNvNtNtCsixIA6ROfhIR_11ettlex_core7queries16decision_queries13decode_cursor0B7_
FNDA:0,_RNCNvNtNtCsixIA6ROfhIR_11ettlex_core7queries16decision_queries13decode_cursors0_0B7_
FNDA:0,_RNCNvNtNtCsixIA6ROfhIR_11ettlex_core7queries16decision_queries13decode_cursors_0B7_
FNF:25
FNH:16
DA:78,0
DA:79,0
DA:81,0
DA:82,0
DA:83,0
DA:84,0
DA:85,0
DA:88,0
DA:89,0
DA:90,0
DA:91,0
DA:92,0
DA:93,0
DA:95,0
DA:96,0
DA:97,0
DA:98,0
DA:99,0
DA:100,0
DA:110,14
DA:111,14
DA:112,14
DA:113,14
DA:114,14
DA:116,14
DA:118,1940
DA:120,1940
DA:121,5
DA:122,1935
DA:125,1935
DA:126,0
DA:127,0
DA:128,0
DA:129,1935
DA:132,1935
DA:133,1935
DA:134,1935
DA:135,1935
DA:136,1935
DA:140,14
DA:141,5
DA:143,9
DA:147,14
DA:148,14
DA:150,1291
DA:151,1291
DA:152,600
DA:153,5
DA:154,595
DA:155,600
DA:156,691
DA:158,691
DA:159,6
DA:160,685
DA:162,685
DA:166,14
DA:168,7
DA:169,7
DA:170,7
DA:172,7
DA:173,7
DA:174,7
DA:175,7
DA:176,7
DA:177,7
DA:178,7
DA:180,7
DA:184,14
DA:185,6
DA:186,6
DA:187,6
DA:189,8
DA:192,14
DA:193,14
DA:194,14
DA:195,14
DA:196,14
DA:197,14
DA:207,12
DA:208,12
DA:209,12
DA:210,12
DA:211,12
DA:213,12
DA:216,12
DA:217,12
DA:218,12
DA:219,29
DA:220,12
DA:223,36
DA:224,36
DA:225,36
DA:226,36
DA:227,36
DA:228,36
DA:231,12
DA:232,0
DA:233,12
DA:236,12
DA:237,26
DA:238,26
DA:240,26
DA:241,0
DA:242,26
DA:245,26
DA:246,8
DA:247,5
DA:248,3
DA:249,18
DA:251,21
DA:252,0
DA:255,12
DA:256,12
DA:279,2
DA:280,2
DA:281,2
DA:282,2
DA:283,2
DA:284,2
DA:285,2
DA:287,0
DA:288,2
DA:291,2
DA:292,2
DA:295,2
DA:298,2
DA:299,2
DA:301,6
DA:302,6
DA:303,6
DA:304,3
DA:305,2
DA:306,2
DA:311,2
DA:312,1
DA:313,1
DA:314,1
DA:315,1
DA:317,2
DA:318,2
DA:328,3
DA:329,3
DA:330,3
DA:331,3
DA:332,3
DA:333,3
DA:335,3
DA:338,3
DA:339,3
DA:341,3
DA:342,3
DA:344,3
DA:346,11
DA:347,11
DA:348,11
DA:350,3
DA:351,0
DA:355,3
DA:356,3
DA:357,11
DA:358,11
DA:359,11
DA:363,8
DA:364,8
DA:365,8
DA:366,8
DA:367,8
DA:370,8
DA:372,3
DA:373,3
DA:374,3
DA:375,3
DA:376,3
DA:381,7
DA:382,7
DA:383,7
DA:384,7
DA:385,7
DA:387,7
DA:392,7
DA:393,7
DA:394,7
DA:395,1
DA:396,1
DA:398,6
DA:399,0
DA:400,0
DA:402,6
DA:403,6
DA:404,0
DA:405,0
DA:406,0
DA:407,6
DA:409,6
DA:410,0
DA:411,0
DA:413,6
DA:415,6
DA:416,7
DA:423,1
DA:424,1
DA:425,1
DA:427,1
DA:428,1
DA:430,1
DA:431,1
DA:434,1
DA:435,1
DA:436,1
DA:437,1
BRF:0
BRH:0
LF:226
LH:184
end_of_record
SF:/Users/nick/Development/EttleX/EttleX-Project/Rust/crates/ettlex-core/src/render/bundle_render.rs
FN:42,_RNCNCNvNtNtCs4640luT8Huz_11ettlex_core6render13bundle_render18render_leaf_bundle00B9_
FN:42,_RNCNvNtNtCs4640luT8Huz_11ettlex_core6render13bundle_render18render_leaf_bundle0B7_
FN:28,_RNvNtNtCs4640luT8Huz_11ettlex_core6render13bundle_render18render_leaf_bundle
FN:28,_RNvNtNtCsixIA6ROfhIR_11ettlex_core6render13bundle_render18render_leaf_bundle
FN:42,_RNCNCNvNtNtCsixIA6ROfhIR_11ettlex_core6render13bundle_render18render_leaf_bundle00B9_
FN:42,_RNCNvNtNtCsixIA6ROfhIR_11ettlex_core6render13bundle_render18render_leaf_bundle0B7_
FN:111,_RNvNtNtNtCsixIA6ROfhIR_11ettlex_core6render13bundle_render5testss_36test_render_leaf_bundle_single_ettle
FNDA:13,_RNCNCNvNtNtCs4640luT8Huz_11ettlex_core6render13bundle_render18render_leaf_bundle00B9_
FNDA:13,_RNCNvNtNtCs4640luT8Huz_11ettlex_core6render13bundle_render18render_leaf_bundle0B7_
FNDA:5,_RNvNtNtCs4640luT8Huz_11ettlex_core6render13bundle_render18render_leaf_bundle
FNDA:1,_RNvNtNtCsixIA6ROfhIR_11ettlex_core6render13bundle_render18render_leaf_bundle
FNDA:1,_RNCNCNvNtNtCsixIA6ROfhIR_11ettlex_core6render13bundle_render18render_leaf_bundle00B9_
FNDA:1,_RNCNvNtNtCsixIA6ROfhIR_11ettlex_core6render13bundle_render18render_leaf_bundle0B7_
FNDA:1,_RNvNtNtNtCsixIA6ROfhIR_11ettlex_core6render13bundle_render5testss_36test_render_leaf_bundle_single_ettle
FNF:4
FNH:4
DA:28,6
DA:29,6
DA:30,6
DA:31,6
DA:32,6
DA:34,6
DA:36,6
DA:39,6
DA:40,6
DA:41,6
DA:42,14
DA:43,6
DA:46,6
DA:49,6
DA:50,19
DA:51,19
DA:52,19
DA:53,10
DA:54,10
DA:55,0
DA:58,6
DA:59,6
DA:60,10
DA:61,10
DA:62,10
DA:63,6
DA:64,0
DA:67,6
DA:68,19
DA:69,19
DA:70,19
DA:71,10
DA:72,10
DA:73,0
DA:76,6
DA:77,6
DA:78,10
DA:79,10
DA:80,10
DA:81,6
DA:82,0
DA:85,6
DA:86,19
DA:87,19
DA:88,19
DA:89,10
DA:90,10
DA:91,0
DA:94,6
DA:95,6
DA:96,10
DA:97,10
DA:98,10
DA:99,6
DA:100,0
DA:102,6
DA:103,6
DA:111,1
DA:112,1
DA:114,1
DA:115,1
DA:116,1
DA:117,1
DA:120,1
DA:121,1
DA:122,1
DA:125,1
DA:126,1
DA:127,1
DA:129,1
DA:131,1
DA:132,1
DA:133,1
DA:134,1
DA:135,1
BRF:0
BRH:0
LF:77
LH:71
end_of_record
SF:/Users/nick/Development/EttleX/EttleX-Project/Rust/crates/ettlex-core/src/render/ettle_render.rs
FN:21,_RNvNtNtCs4640luT8Huz_11ettlex_core6render12ettle_render12render_ettle
FN:70,_RNvNtNtNtCsixIA6ROfhIR_11ettlex_core6render12ettle_render5testss_23test_render_ettle_basic
FN:21,_RNvNtNtCsixIA6ROfhIR_11ettlex_core6render12ettle_render12render_ettle
FNDA:7,_RNvNtNtCs4640luT8Huz_11ettlex_core6render12ettle_render12render_ettle
FNDA:1,_RNvNtNtNtCsixIA6ROfhIR_11ettlex_core6render12ettle_render5testss_23test_render_ettle_basic
FNDA:1,_RNvNtNtCsixIA6ROfhIR_11ettlex_core6render12ettle_render12render_ettle
FNF:2
FNH:2
DA:21,8
DA:22,8
DA:24,8
DA:27,8
DA:30,8
DA:33,17
DA:34,17
DA:36,17
DA:37,11
DA:38,11
DA:39,6
DA:40,6
DA:42,17
DA:43,15
DA:44,15
DA:46,17
DA:47,12
DA:48,12
DA:50,17
DA:51,12
DA:52,12
DA:54,17
DA:55,4
DA:56,4
DA:57,4
DA:58,13
DA:61,8
DA:62,8
DA:70,1
DA:71,1
DA:73,1
DA:74,1
DA:75,1
DA:76,1
DA:79,1
DA:80,1
DA:81,1
DA:84,1
DA:85,1
DA:86,1
DA:88,1
DA:90,1
DA:91,1
DA:92,1
DA:93,1
DA:94,1
DA:95,1
BRF:0
BRH:0
LF:47
LH:47
end_of_record
SF:/Users/nick/Development/EttleX/EttleX-Project/Rust/crates/ettlex-core/src/rules/invariants.rs
FN:79,_RNCNvNtNtCs4640luT8Huz_11ettlex_core5rules10invariants32find_children_without_ep_mapping0B7_
FN:33,_RNvNtNtCs4640luT8Huz_11ettlex_core5rules10invariants12find_orphans
FN:181,_RNvNtNtCs4640luT8Huz_11ettlex_core5rules10invariants15find_ep_orphans
FN:201,_RNvNtNtCs4640luT8Huz_11ettlex_core5rules10invariants20find_unknown_ep_refs
FN:95,_RNvNtNtCs4640luT8Huz_11ettlex_core5rules10invariants23find_duplicate_ordinals
FN:236,_RNvNtNtCs4640luT8Huz_11ettlex_core5rules10invariants24find_deleted_ep_mappings
FN:256,_RNvNtNtCs4640luT8Huz_11ettlex_core5rules10invariants27find_deleted_child_mappings
FN:219,_RNvNtNtCs4640luT8Huz_11ettlex_core5rules10invariants27find_eps_with_unknown_ettle
FN:128,_RNvNtNtCs4640luT8Huz_11ettlex_core5rules10invariants29find_duplicate_child_mappings
FN:159,_RNvNtNtCs4640luT8Huz_11ettlex_core5rules10invariants31find_membership_inconsistencies
FN:53,_RNvNtNtCs4640luT8Huz_11ettlex_core5rules10invariants32find_children_without_ep_mapping
FN:138,_RNvNtNtCs4640luT8Huz_11ettlex_core5rules10invariants34find_eps_with_nonexistent_children
FN:8,_RNvNtNtCs4640luT8Huz_11ettlex_core5rules10invariants9has_cycle
FN:79,_RNCNvNtNtCsixIA6ROfhIR_11ettlex_core5rules10invariants32find_children_without_ep_mapping0B7_
FN:353,_RNvNtNtNtCsixIA6ROfhIR_11ettlex_core5rules10invariants5testss_20test_find_ep_orphans
FN:378,_RNvNtNtNtCsixIA6ROfhIR_11ettlex_core5rules10invariants5testss_25test_find_unknown_ep_refs
FN:415,_RNvNtNtNtCsixIA6ROfhIR_11ettlex_core5rules10invariants5testss_29test_find_deleted_ep_mappings
FN:442,_RNvNtNtNtCsixIA6ROfhIR_11ettlex_core5rules10invariants5testss_32test_find_deleted_child_mappings
FN:392,_RNvNtNtNtCsixIA6ROfhIR_11ettlex_core5rules10invariants5testss_32test_find_eps_with_unknown_ettle
FN:278,_RNvNtNtNtCsixIA6ROfhIR_11ettlex_core5rules10invariants5testss_33test_has_cycle_detects_self_cycle
FN:326,_RNvNtNtNtCsixIA6ROfhIR_11ettlex_core5rules10invariants5testss_36test_find_membership_inconsistencies
FN:289,_RNvNtNtNtCsixIA6ROfhIR_11ettlex_core5rules10invariants5testss_37test_has_cycle_detects_two_node_cycle
FN:306,_RNvNtNtNtCsixIA6ROfhIR_11ettlex_core5rules10invariants5testss_44test_has_cycle_returns_false_for_valid_chain
FN:33,_RNvNtNtCsixIA6ROfhIR_11ettlex_core5rules10invariants12find_orphans
FN:181,_RNvNtNtCsixIA6ROfhIR_11ettlex_core5rules10invariants15find_ep_orphans
FN:201,_RNvNtNtCsixIA6ROfhIR_11ettlex_core5rules10invariants20find_unknown_ep_refs
FN:95,_RNvNtNtCsixIA6ROfhIR_11ettlex_core5rules10invariants23find_duplicate_ordinals
FN:236,_RNvNtNtCsixIA6ROfhIR_11ettlex_core5rules10invariants24find_deleted_ep_mappings
FN:256,_RNvNtNtCsixIA6ROfhIR_11ettlex_core5rules10invariants27find_deleted_child_mappings
FN:219,_RNvNtNtCsixIA6ROfhIR_11ettlex_core5rules10invariants27find_eps_with_unknown_ettle
FN:128,_RNvNtNtCsixIA6ROfhIR_11ettlex_core5rules10invariants29find_duplicate_child_mappings
FN:159,_RNvNtNtCsixIA6ROfhIR_11ettlex_core5rules10invariants31find_membership_inconsistencies
FN:53,_RNvNtNtCsixIA6ROfhIR_11ettlex_core5rules10invariants32find_children_without_ep_mapping
FN:138,_RNvNtNtCsixIA6ROfhIR_11ettlex_core5rules10invariants34find_eps_with_nonexistent_children
FN:8,_RNvNtNtCsixIA6ROfhIR_11ettlex_core5rules10invariants9has_cycle
FNDA:17,_RNCNvNtNtCs4640luT8Huz_11ettlex_core5rules10invariants32find_children_without_ep_mapping0B7_
FNDA:19,_RNvNtNtCs4640luT8Huz_11ettlex_core5rules10invariants12find_orphans
FNDA:23,_RNvNtNtCs4640luT8Huz_11ettlex_core5rules10invariants15find_ep_orphans
FNDA:24,_RNvNtNtCs4640luT8Huz_11ettlex_core5rules10invariants20find_unknown_ep_refs
FNDA:15,_RNvNtNtCs4640luT8Huz_11ettlex_core5rules10invariants23find_duplicate_ordinals
FNDA:15,_RNvNtNtCs4640luT8Huz_11ettlex_core5rules10invariants24find_deleted_ep_mappings
FNDA:14,_RNvNtNtCs4640luT8Huz_11ettlex_core5rules10invariants27find_deleted_child_mappings
FNDA:22,_RNvNtNtCs4640luT8Huz_11ettlex_core5rules10invariants27find_eps_with_unknown_ettle
FNDA:16,_RNvNtNtCs4640luT8Huz_11ettlex_core5rules10invariants29find_duplicate_child_mappings
FNDA:24,_RNvNtNtCs4640luT8Huz_11ettlex_core5rules10invariants31find_membership_inconsistencies
FNDA:20,_RNvNtNtCs4640luT8Huz_11ettlex_core5rules10invariants32find_children_without_ep_mapping
FNDA:14,_RNvNtNtCs4640luT8Huz_11ettlex_core5rules10invariants34find_eps_with_nonexistent_children
FNDA:32,_RNvNtNtCs4640luT8Huz_11ettlex_core5rules10invariants9has_cycle
FNDA:1,_RNCNvNtNtCsixIA6ROfhIR_11ettlex_core5rules10invariants32find_children_without_ep_mapping0B7_
FNDA:1,_RNvNtNtNtCsixIA6ROfhIR_11ettlex_core5rules10invariants5testss_20test_find_ep_orphans
FNDA:1,_RNvNtNtNtCsixIA6ROfhIR_11ettlex_core5rules10invariants5testss_25test_find_unknown_ep_refs
FNDA:1,_RNvNtNtNtCsixIA6ROfhIR_11ettlex_core5rules10invariants5testss_29test_find_deleted_ep_mappings
FNDA:1,_RNvNtNtNtCsixIA6ROfhIR_11ettlex_core5rules10invariants5testss_32test_find_deleted_child_mappings
FNDA:1,_RNvNtNtNtCsixIA6ROfhIR_11ettlex_core5rules10invariants5testss_32test_find_eps_with_unknown_ettle
FNDA:1,_RNvNtNtNtCsixIA6ROfhIR_11ettlex_core5rules10invariants5testss_33test_has_cycle_detects_self_cycle
FNDA:1,_RNvNtNtNtCsixIA6ROfhIR_11ettlex_core5rules10invariants5testss_36test_find_membership_inconsistencies
FNDA:1,_RNvNtNtNtCsixIA6ROfhIR_11ettlex_core5rules10invariants5testss_37test_has_cycle_detects_two_node_cycle
FNDA:1,_RNvNtNtNtCsixIA6ROfhIR_11ettlex_core5rules10invariants5testss_44test_has_cycle_returns_false_for_valid_chain
FNDA:3,_RNvNtNtCsixIA6ROfhIR_11ettlex_core5rules10invariants12find_orphans
FNDA:5,_RNvNtNtCsixIA6ROfhIR_11ettlex_core5rules10invariants15find_ep_orphans
FNDA:5,_RNvNtNtCsixIA6ROfhIR_11ettlex_core5rules10invariants20find_unknown_ep_refs
FNDA:3,_RNvNtNtCsixIA6ROfhIR_11ettlex_core5rules10invariants23find_duplicate_ordinals
FNDA:4,_RNvNtNtCsixIA6ROfhIR_11ettlex_core5rules10invariants24find_deleted_ep_mappings
FNDA:4,_RNvNtNtCsixIA6ROfhIR_11ettlex_core5rules10invariants27find_deleted_child_mappings
FNDA:5,_RNvNtNtCsixIA6ROfhIR_11ettlex_core5rules10invariants27find_eps_with_unknown_ettle
FNDA:3,_RNvNtNtCsixIA6ROfhIR_11ettlex_core5rules10invariants29find_duplicate_child_mappings
FNDA:5,_RNvNtNtCsixIA6ROfhIR_11ettlex_core5rules10invariants31find_membership_inconsistencies
FNDA:3,_RNvNtNtCsixIA6ROfhIR_11ettlex_core5rules10invariants32find_children_without_ep_mapping
FNDA:3,_RNvNtNtCsixIA6ROfhIR_11ettlex_core5rules10invariants34find_eps_with_nonexistent_children
FNDA:10,_RNvNtNtCsixIA6ROfhIR_11ettlex_core5rules10invariants9has_cycle
FNF:22
FNH:22
DA:8,42
DA:9,42
DA:10,42
DA:12,102
DA:13,66
DA:15,5
DA:16,61
DA:19,61
DA:20,60
DA:21,60
DA:23,1
DA:27,37
DA:28,42
DA:33,22
DA:34,22
DA:36,34
DA:37,34
DA:39,12
DA:40,1
DA:41,11
DA:42,22
DA:45,22
DA:46,22
DA:53,23
DA:54,23
DA:56,37
DA:57,37
DA:59,13
DA:60,13
DA:61,0
DA:66,13
DA:67,10
DA:69,3
DA:70,3
DA:74,10
DA:75,10
DA:76,0
DA:79,18
DA:81,10
DA:82,1
DA:83,9
DA:84,24
DA:87,23
DA:88,23
DA:95,18
DA:96,18
DA:98,27
DA:100,27
DA:101,27
DA:102,0
DA:105,27
DA:107,38
DA:108,38
DA:109,38
DA:111,37
DA:112,37
DA:113,1
DA:114,36
DA:118,18
DA:119,18
DA:128,19
DA:129,19
DA:130,19
DA:138,17
DA:139,17
DA:142,26
DA:143,26
DA:144,9
DA:145,0
DA:146,9
DA:147,17
DA:150,17
DA:151,17
DA:159,29
DA:160,29
DA:162,45
DA:163,53
DA:165,53
DA:166,53
DA:167,3
DA:168,50
DA:169,0
DA:173,29
DA:174,29
DA:181,28
DA:182,28
DA:185,55
DA:187,55
DA:189,55
DA:190,3
DA:191,52
DA:192,0
DA:195,28
DA:196,28
DA:201,29
DA:202,29
DA:204,44
DA:205,53
DA:207,53
DA:208,3
DA:209,50
DA:213,29
DA:214,29
DA:219,27
DA:220,27
DA:223,54
DA:225,54
DA:226,1
DA:227,53
DA:230,27
DA:231,27
DA:236,19
DA:237,19
DA:240,29
DA:241,29
DA:242,11
DA:243,11
DA:244,3
DA:245,8
DA:246,0
DA:247,18
DA:250,19
DA:251,19
DA:256,18
DA:257,18
DA:261,29
DA:262,29
DA:263,4
DA:264,3
DA:265,3
DA:266,25
DA:269,18
DA:270,18
DA:278,1
DA:279,1
DA:280,1
DA:281,1
DA:283,1
DA:285,1
DA:286,1
DA:289,1
DA:290,1
DA:292,1
DA:293,1
DA:295,1
DA:296,1
DA:298,1
DA:299,1
DA:301,1
DA:302,1
DA:303,1
DA:306,1
DA:307,1
DA:309,1
DA:310,1
DA:311,1
DA:313,1
DA:314,1
DA:316,1
DA:317,1
DA:318,1
DA:320,1
DA:321,1
DA:322,1
DA:323,1
DA:326,1
DA:327,1
DA:328,1
DA:331,1
DA:332,1
DA:333,1
DA:336,1
DA:337,1
DA:338,1
DA:340,1
DA:342,1
DA:343,1
DA:345,1
DA:346,1
DA:347,1
DA:348,1
DA:349,1
DA:350,1
DA:353,1
DA:354,1
DA:355,1
DA:358,1
DA:359,1
DA:360,1
DA:363,1
DA:364,1
DA:365,1
DA:368,1
DA:369,1
DA:371,1
DA:372,1
DA:373,1
DA:374,1
DA:375,1
DA:378,1
DA:379,1
DA:380,1
DA:381,1
DA:383,1
DA:385,1
DA:386,1
DA:387,1
DA:388,1
DA:389,1
DA:392,1
DA:393,1
DA:396,1
DA:397,1
DA:398,1
DA:401,1
DA:402,1
DA:403,1
DA:406,1
DA:408,1
DA:409,1
DA:410,1
DA:411,1
DA:412,1
DA:415,1
DA:416,1
DA:419,1
DA:420,1
DA:421,1
DA:424,1
DA:425,1
DA:426,1
DA:428,1
DA:429,1
DA:432,1
DA:433,1
DA:434,1
DA:436,1
DA:437,1
DA:438,1
DA:439,1
DA:442,1
DA:443,1
DA:446,1
DA:447,1
DA:448,1
DA:450,1
DA:452,1
DA:453,1
DA:454,1
DA:455,1
DA:456,1
BRF:0
BRH:0
LF:252
LH:245
end_of_record
SF:/Users/nick/Development/EttleX/EttleX-Project/Rust/crates/ettlex-core/src/rules/validation.rs
FN:27,_RNvNtNtCs4640luT8Huz_11ettlex_core5rules10validation13validate_tree
FN:27,_RNvNtNtCsixIA6ROfhIR_11ettlex_core5rules10validation13validate_tree
FN:138,_RNvNtNtNtCsixIA6ROfhIR_11ettlex_core5rules10validation5testss_30test_validate_tree_empty_store
FN:144,_RNvNtNtNtCsixIA6ROfhIR_11ettlex_core5rules10validation5testss_30test_validate_tree_single_root
FN:166,_RNvNtNtNtCsixIA6ROfhIR_11ettlex_core5rules10validation5testss_32test_validate_tree_detects_cycle
FNDA:23,_RNvNtNtCs4640luT8Huz_11ettlex_core5rules10validation13validate_tree
FNDA:4,_RNvNtNtCsixIA6ROfhIR_11ettlex_core5rules10validation13validate_tree
FNDA:1,_RNvNtNtNtCsixIA6ROfhIR_11ettlex_core5rules10validation5testss_30test_validate_tree_empty_store
FNDA:1,_RNvNtNtNtCsixIA6ROfhIR_11ettlex_core5rules10validation5testss_30test_validate_tree_single_root
FNDA:1,_RNvNtNtNtCsixIA6ROfhIR_11ettlex_core5rules10validation5testss_32test_validate_tree_detects_cycle
FNF:4
FNH:4
DA:27,27
DA:29,27
DA:30,27
DA:31,1
DA:32,1
DA:33,1
DA:34,1
DA:35,26
DA:37,26
DA:38,26
DA:39,0
DA:40,0
DA:41,0
DA:42,0
DA:43,26
DA:45,26
DA:46,26
DA:47,1
DA:48,1
DA:49,1
DA:50,1
DA:51,1
DA:52,25
DA:54,25
DA:55,25
DA:56,1
DA:57,1
DA:58,1
DA:59,1
DA:60,24
DA:63,36
DA:64,36
DA:65,2
DA:66,2
DA:67,2
DA:68,34
DA:71,22
DA:72,22
DA:73,1
DA:74,1
DA:75,1
DA:76,1
DA:77,21
DA:80,21
DA:81,21
DA:82,3
DA:83,3
DA:84,3
DA:85,3
DA:86,18
DA:88,18
DA:89,18
DA:90,1
DA:91,1
DA:92,1
DA:93,1
DA:94,17
DA:96,17
DA:97,17
DA:98,0
DA:99,0
DA:100,0
DA:101,0
DA:102,17
DA:104,17
DA:105,17
DA:106,0
DA:107,0
DA:108,0
DA:109,0
DA:110,17
DA:113,17
DA:114,17
DA:116,1
DA:117,1
DA:118,1
DA:119,16
DA:121,16
DA:122,16
DA:123,1
DA:124,1
DA:125,1
DA:126,1
DA:127,15
DA:129,15
DA:130,27
DA:138,1
DA:139,1
DA:140,1
DA:141,1
DA:144,1
DA:145,1
DA:146,1
DA:147,1
DA:149,1
DA:150,1
DA:151,1
DA:154,1
DA:155,1
DA:156,1
DA:159,1
DA:160,1
DA:162,1
DA:163,1
DA:166,1
DA:167,1
DA:169,1
DA:170,1
DA:172,1
DA:173,1
DA:175,1
DA:176,1
DA:178,1
DA:179,1
DA:181,1
BRF:0
BRH:0
LF:115
LH:103
end_of_record
SF:/Users/nick/Development/EttleX/EttleX-Project/Rust/crates/ettlex-core/src/snapshot/digest.rs
FN:115,_RNvNtNtCs4640luT8Huz_11ettlex_core8snapshot6digest11hash_string
FN:48,_RNvNtNtCs4640luT8Huz_11ettlex_core8snapshot6digest18compute_ept_digest
FN:69,_RNvNtNtCs4640luT8Huz_11ettlex_core8snapshot6digest23compute_manifest_digest
FN:100,_RNvNtNtCs4640luT8Huz_11ettlex_core8snapshot6digest23compute_semantic_digest
FN:126,_RNvNtNtNtCsixIA6ROfhIR_11ettlex_core8snapshot6digest5testss_30test_hash_string_deterministic
FN:135,_RNvNtNtNtCsixIA6ROfhIR_11ettlex_core8snapshot6digest5testss_33test_hash_string_different_inputs
FN:115,_RNvNtNtCsixIA6ROfhIR_11ettlex_core8snapshot6digest11hash_string
FN:48,_RNvNtNtCsixIA6ROfhIR_11ettlex_core8snapshot6digest18compute_ept_digest
FN:69,_RNvNtNtCsixIA6ROfhIR_11ettlex_core8snapshot6digest23compute_manifest_digest
FN:100,_RNvNtNtCsixIA6ROfhIR_11ettlex_core8snapshot6digest23compute_semantic_digest
FNDA:329,_RNvNtNtCs4640luT8Huz_11ettlex_core8snapshot6digest11hash_string
FNDA:111,_RNvNtNtCs4640luT8Huz_11ettlex_core8snapshot6digest18compute_ept_digest
FNDA:110,_RNvNtNtCs4640luT8Huz_11ettlex_core8snapshot6digest23compute_manifest_digest
FNDA:108,_RNvNtNtCs4640luT8Huz_11ettlex_core8snapshot6digest23compute_semantic_digest
FNDA:1,_RNvNtNtNtCsixIA6ROfhIR_11ettlex_core8snapshot6digest5testss_30test_hash_string_deterministic
FNDA:1,_RNvNtNtNtCsixIA6ROfhIR_11ettlex_core8snapshot6digest5testss_33test_hash_string_different_inputs
FNDA:4,_RNvNtNtCsixIA6ROfhIR_11ettlex_core8snapshot6digest11hash_string
FNDA:0,_RNvNtNtCsixIA6ROfhIR_11ettlex_core8snapshot6digest18compute_ept_digest
FNDA:0,_RNvNtNtCsixIA6ROfhIR_11ettlex_core8snapshot6digest23compute_manifest_digest
FNDA:0,_RNvNtNtCsixIA6ROfhIR_11ettlex_core8snapshot6digest23compute_semantic_digest
FNF:6
FNH:6
DA:48,111
DA:49,111
DA:50,111
DA:51,111
DA:69,110
DA:70,110
DA:71,110
DA:72,110
DA:100,108
DA:102,108
DA:103,108
DA:106,108
DA:108,108
DA:109,108
DA:110,108
DA:115,333
DA:116,333
DA:117,333
DA:118,333
DA:119,333
DA:126,1
DA:127,1
DA:128,1
DA:129,1
DA:130,1
DA:131,1
DA:132,1
DA:135,1
DA:136,1
DA:137,1
DA:138,1
DA:139,1
BRF:0
BRH:0
LF:32
LH:32
end_of_record
SF:/Users/nick/Development/EttleX/EttleX-Project/Rust/crates/ettlex-core/src/snapshot/manifest.rs
FN:102,_RNCNvMNtNtCs4640luT8Huz_11ettlex_core8snapshot8manifestNtB4_19ConstraintsEnvelope8from_ept0B8_
FN:122,_RNCNvMNtNtCs4640luT8Huz_11ettlex_core8snapshot8manifestNtB4_19ConstraintsEnvelope8from_epts0_0B8_
FN:123,_RNCNvMNtNtCs4640luT8Huz_11ettlex_core8snapshot8manifestNtB4_19ConstraintsEnvelope8from_epts1_0B8_
FN:112,_RNCNvMNtNtCs4640luT8Huz_11ettlex_core8snapshot8manifestNtB4_19ConstraintsEnvelope8from_epts_0B8_
FN:293,_RNCNvNtNtCs4640luT8Huz_11ettlex_core8snapshot8manifest17generate_manifest0B7_
FN:89,_RNvMNtNtCs4640luT8Huz_11ettlex_core8snapshot8manifestNtB2_19ConstraintsEnvelope8from_ept
FN:339,_RNvNtNtCs4640luT8Huz_11ettlex_core8snapshot8manifest17ep_content_digest
FN:277,_RNvNtNtCs4640luT8Huz_11ettlex_core8snapshot8manifest17generate_manifest
FN:102,_RNCNvMNtNtCsixIA6ROfhIR_11ettlex_core8snapshot8manifestNtB4_19ConstraintsEnvelope8from_ept0B8_
FN:122,_RNCNvMNtNtCsixIA6ROfhIR_11ettlex_core8snapshot8manifestNtB4_19ConstraintsEnvelope8from_epts0_0B8_
FN:123,_RNCNvMNtNtCsixIA6ROfhIR_11ettlex_core8snapshot8manifestNtB4_19ConstraintsEnvelope8from_epts1_0B8_
FN:112,_RNCNvMNtNtCsixIA6ROfhIR_11ettlex_core8snapshot8manifestNtB4_19ConstraintsEnvelope8from_epts_0B8_
FN:293,_RNCNvNtNtCsixIA6ROfhIR_11ettlex_core8snapshot8manifest17generate_manifest0B7_
FN:89,_RNvMNtNtCsixIA6ROfhIR_11ettlex_core8snapshot8manifestNtB2_19ConstraintsEnvelope8from_ept
FN:339,_RNvNtNtCsixIA6ROfhIR_11ettlex_core8snapshot8manifest17ep_content_digest
FN:277,_RNvNtNtCsixIA6ROfhIR_11ettlex_core8snapshot8manifest17generate_manifest
FNDA:0,_RNCNvMNtNtCs4640luT8Huz_11ettlex_core8snapshot8manifestNtB4_19ConstraintsEnvelope8from_ept0B8_
FNDA:5107,_RNCNvMNtNtCs4640luT8Huz_11ettlex_core8snapshot8manifestNtB4_19ConstraintsEnvelope8from_epts0_0B8_
FNDA:1047,_RNCNvMNtNtCs4640luT8Huz_11ettlex_core8snapshot8manifestNtB4_19ConstraintsEnvelope8from_epts1_0B8_
FNDA:1047,_RNCNvMNtNtCs4640luT8Huz_11ettlex_core8snapshot8manifestNtB4_19ConstraintsEnvelope8from_epts_0B8_
FNDA:121,_RNCNvNtNtCs4640luT8Huz_11ettlex_core8snapshot8manifest17generate_manifest0B7_
FNDA:109,_RNvMNtNtCs4640luT8Huz_11ettlex_core8snapshot8manifestNtB2_19ConstraintsEnvelope8from_ept
FNDA:121,_RNvNtNtCs4640luT8Huz_11ettlex_core8snapshot8manifest17ep_content_digest
FNDA:106,_RNvNtNtCs4640luT8Huz_11ettlex_core8snapshot8manifest17generate_manifest
FNDA:0,_RNCNvMNtNtCsixIA6ROfhIR_11ettlex_core8snapshot8manifestNtB4_19ConstraintsEnvelope8from_ept0B8_
FNDA:0,_RNCNvMNtNtCsixIA6ROfhIR_11ettlex_core8snapshot8manifestNtB4_19ConstraintsEnvelope8from_epts0_0B8_
FNDA:0,_RNCNvMNtNtCsixIA6ROfhIR_11ettlex_core8snapshot8manifestNtB4_19ConstraintsEnvelope8from_epts1_0B8_
FNDA:0,_RNCNvMNtNtCsixIA6ROfhIR_11ettlex_core8snapshot8manifestNtB4_19ConstraintsEnvelope8from_epts_0B8_
FNDA:0,_RNCNvNtNtCsixIA6ROfhIR_11ettlex_core8snapshot8manifest17generate_manifest0B7_
FNDA:0,_RNvMNtNtCsixIA6ROfhIR_11ettlex_core8snapshot8manifestNtB2_19ConstraintsEnvelope8from_ept
FNDA:0,_RNvNtNtCsixIA6ROfhIR_11ettlex_core8snapshot8manifest17ep_content_digest
FNDA:0,_RNvNtNtCsixIA6ROfhIR_11ettlex_core8snapshot8manifest17generate_manifest
FNF:8
FNH:7
DA:89,109
DA:93,109
DA:95,109
DA:96,109
DA:97,109
DA:98,109
DA:99,109
DA:100,109
DA:102,109
DA:103,0
DA:104,0
DA:105,0
DA:106,0
DA:109,109
DA:110,109
DA:111,109
DA:112,1047
DA:113,109
DA:116,109
DA:117,109
DA:119,45
DA:120,45
DA:121,45
DA:122,5107
DA:123,1047
DA:124,45
DA:126,45
DA:127,45
DA:128,45
DA:129,45
DA:130,45
DA:131,45
DA:132,45
DA:133,45
DA:134,45
DA:138,109
DA:139,109
DA:140,109
DA:141,109
DA:142,109
DA:143,109
DA:144,109
DA:145,109
DA:146,109
DA:277,106
DA:278,106
DA:279,106
DA:280,106
DA:281,106
DA:282,106
DA:283,106
DA:284,106
DA:285,106
DA:289,106
DA:290,106
DA:291,106
DA:292,106
DA:293,121
DA:294,121
DA:296,121
DA:297,121
DA:298,106
DA:301,106
DA:304,106
DA:307,106
DA:310,106
DA:311,106
DA:312,106
DA:313,106
DA:314,106
DA:315,106
DA:316,106
DA:317,106
DA:318,106
DA:319,106
DA:320,106
DA:321,106
DA:322,106
DA:323,106
DA:324,106
DA:325,106
DA:328,106
DA:329,106
DA:331,106
DA:332,106
DA:339,121
DA:340,121
DA:341,82
DA:342,39
DA:345,39
DA:346,39
DA:347,39
DA:348,121
BRF:0
BRH:0
LF:98
LH:92
end_of_record
SF:/Users/nick/Development/EttleX/EttleX-Project/Rust/crates/ettlex-core/src/traversal/ept.rs
FN:51,_RNCNvNtNtCs4640luT8Huz_11ettlex_core9traversal3ept11compute_ept0B7_
FN:71,_RNCNvNtNtCs4640luT8Huz_11ettlex_core9traversal3ept11compute_epts0_0B7_
FN:80,_RNCNvNtNtCs4640luT8Huz_11ettlex_core9traversal3ept11compute_epts1_0B7_
FN:53,_RNCNvNtNtCs4640luT8Huz_11ettlex_core9traversal3ept11compute_epts_0B7_
FN:121,_RNCNvNtNtCs4640luT8Huz_11ettlex_core9traversal3ept16find_specific_ep0B7_
FN:124,_RNCNvNtNtCs4640luT8Huz_11ettlex_core9traversal3ept16find_specific_eps0_0B7_
FN:122,_RNCNvNtNtCs4640luT8Huz_11ettlex_core9traversal3ept16find_specific_eps_0B7_
FN:29,_RNvNtNtCs4640luT8Huz_11ettlex_core9traversal3ept11compute_ept
FN:115,_RNvNtNtCs4640luT8Huz_11ettlex_core9traversal3ept16find_specific_ep
FN:135,_RNvNtNtNtCsixIA6ROfhIR_11ettlex_core9traversal3ept5testss_29test_compute_ept_single_ettle
FN:51,_RNCNvNtNtCsixIA6ROfhIR_11ettlex_core9traversal3ept11compute_ept0B7_
FN:71,_RNCNvNtNtCsixIA6ROfhIR_11ettlex_core9traversal3ept11compute_epts0_0B7_
FN:80,_RNCNvNtNtCsixIA6ROfhIR_11ettlex_core9traversal3ept11compute_epts1_0B7_
FN:53,_RNCNvNtNtCsixIA6ROfhIR_11ettlex_core9traversal3ept11compute_epts_0B7_
FN:121,_RNCNvNtNtCsixIA6ROfhIR_11ettlex_core9traversal3ept16find_specific_ep0B7_
FN:124,_RNCNvNtNtCsixIA6ROfhIR_11ettlex_core9traversal3ept16find_specific_eps0_0B7_
FN:122,_RNCNvNtNtCsixIA6ROfhIR_11ettlex_core9traversal3ept16find_specific_eps_0B7_
FN:29,_RNvNtNtCsixIA6ROfhIR_11ettlex_core9traversal3ept11compute_ept
FN:115,_RNvNtNtCsixIA6ROfhIR_11ettlex_core9traversal3ept16find_specific_ep
FNDA:99,_RNCNvNtNtCs4640luT8Huz_11ettlex_core9traversal3ept11compute_ept0B7_
FNDA:1,_RNCNvNtNtCs4640luT8Huz_11ettlex_core9traversal3ept11compute_epts0_0B7_
FNDA:0,_RNCNvNtNtCs4640luT8Huz_11ettlex_core9traversal3ept11compute_epts1_0B7_
FNDA:0,_RNCNvNtNtCs4640luT8Huz_11ettlex_core9traversal3ept11compute_epts_0B7_
FNDA:12,_RNCNvNtNtCs4640luT8Huz_11ettlex_core9traversal3ept16find_specific_ep0B7_
FNDA:1,_RNCNvNtNtCs4640luT8Huz_11ettlex_core9traversal3ept16find_specific_eps0_0B7_
FNDA:7,_RNCNvNtNtCs4640luT8Huz_11ettlex_core9traversal3ept16find_specific_eps_0B7_
FNDA:99,_RNvNtNtCs4640luT8Huz_11ettlex_core9traversal3ept11compute_ept
FNDA:8,_RNvNtNtCs4640luT8Huz_11ettlex_core9traversal3ept16find_specific_ep
FNDA:1,_RNvNtNtNtCsixIA6ROfhIR_11ettlex_core9traversal3ept5testss_29test_compute_ept_single_ettle
FNDA:2,_RNCNvNtNtCsixIA6ROfhIR_11ettlex_core9traversal3ept11compute_ept0B7_
FNDA:0,_RNCNvNtNtCsixIA6ROfhIR_11ettlex_core9traversal3ept11compute_epts0_0B7_
FNDA:0,_RNCNvNtNtCsixIA6ROfhIR_11ettlex_core9traversal3ept11compute_epts1_0B7_
FNDA:0,_RNCNvNtNtCsixIA6ROfhIR_11ettlex_core9traversal3ept11compute_epts_0B7_
FNDA:0,_RNCNvNtNtCsixIA6ROfhIR_11ettlex_core9traversal3ept16find_specific_ep0B7_
FNDA:0,_RNCNvNtNtCsixIA6ROfhIR_11ettlex_core9traversal3ept16find_specific_eps0_0B7_
FNDA:0,_RNCNvNtNtCsixIA6ROfhIR_11ettlex_core9traversal3ept16find_specific_eps_0B7_
FNDA:2,_RNvNtNtCsixIA6ROfhIR_11ettlex_core9traversal3ept11compute_ept
FNDA:0,_RNvNtNtCsixIA6ROfhIR_11ettlex_core9traversal3ept16find_specific_ep
FNF:10
FNH:8
DA:29,101
DA:30,101
DA:31,101
DA:32,101
DA:33,101
DA:35,101
DA:37,101
DA:38,0
DA:39,101
DA:41,101
DA:44,101
DA:45,101
DA:47,101
DA:48,101
DA:49,101
DA:50,101
DA:51,101
DA:52,101
DA:53,0
DA:55,0
DA:57,101
DA:61,101
DA:62,33
DA:63,33
DA:65,33
DA:66,32
DA:67,33
DA:68,33
DA:69,33
DA:70,33
DA:71,1
DA:72,1
DA:73,1
DA:75,32
DA:79,100
DA:80,0
DA:81,0
DA:82,100
DA:85,100
DA:86,100
DA:88,100
DA:90,8
DA:92,7
DA:93,4
DA:94,4
DA:97,92
DA:98,2
DA:99,2
DA:100,2
DA:101,90
DA:103,90
DA:104,90
DA:105,90
DA:106,18
DA:107,72
DA:108,0
DA:111,97
DA:112,101
DA:115,8
DA:116,8
DA:117,8
DA:119,8
DA:120,8
DA:121,12
DA:122,8
DA:123,8
DA:124,1
DA:125,1
DA:126,1
DA:127,8
DA:135,1
DA:136,1
DA:138,1
DA:139,1
DA:140,1
DA:141,1
DA:144,1
DA:145,1
DA:146,1
DA:149,1
DA:150,1
DA:151,1
DA:153,1
DA:155,1
DA:156,1
DA:157,1
BRF:0
BRH:0
LF:92
LH:84
end_of_record
SF:/Users/nick/Development/EttleX/EttleX-Project/Rust/crates/ettlex-core/src/traversal/rt.rs
FN:21,_RNvNtNtCs4640luT8Huz_11ettlex_core9traversal2rt10compute_rt
FN:36,_RNCNvNtNtCs4640luT8Huz_11ettlex_core9traversal2rt10compute_rt0B7_
FN:36,_RNCNvNtNtCsixIA6ROfhIR_11ettlex_core9traversal2rt10compute_rt0B7_
FN:67,_RNvNtNtNtCsixIA6ROfhIR_11ettlex_core9traversal2rt5testss_21test_compute_rt_chain
FN:55,_RNvNtNtNtCsixIA6ROfhIR_11ettlex_core9traversal2rt5testss_28test_compute_rt_single_ettle
FN:21,_RNvNtNtCsixIA6ROfhIR_11ettlex_core9traversal2rt10compute_rt
FNDA:113,_RNvNtNtCs4640luT8Huz_11ettlex_core9traversal2rt10compute_rt
FNDA:1,_RNCNvNtNtCs4640luT8Huz_11ettlex_core9traversal2rt10compute_rt0B7_
FNDA:0,_RNCNvNtNtCsixIA6ROfhIR_11ettlex_core9traversal2rt10compute_rt0B7_
FNDA:1,_RNvNtNtNtCsixIA6ROfhIR_11ettlex_core9traversal2rt5testss_21test_compute_rt_chain
FNDA:1,_RNvNtNtNtCsixIA6ROfhIR_11ettlex_core9traversal2rt5testss_28test_compute_rt_single_ettle
FNDA:5,_RNvNtNtCsixIA6ROfhIR_11ettlex_core9traversal2rt10compute_rt
FNF:4
FNH:4
DA:21,118
DA:23,118
DA:26,117
DA:27,117
DA:29,290
DA:30,174
DA:33,174
DA:34,174
DA:35,174
DA:36,1
DA:37,1
DA:40,173
DA:44,116
DA:46,116
DA:47,118
DA:55,1
DA:56,1
DA:57,1
DA:58,1
DA:60,1
DA:62,1
DA:63,1
DA:64,1
DA:67,1
DA:68,1
DA:70,1
DA:71,1
DA:72,1
DA:74,1
DA:75,1
DA:77,1
DA:78,1
DA:79,1
DA:81,1
DA:83,1
DA:84,1
BRF:0
BRH:0
LF:37
LH:37
end_of_record
SF:/Users/nick/Development/EttleX/EttleX-Project/Rust/crates/ettlex-engine/src/commands/decision.rs
FN:339,_RNvNtNtCs5ZhMRgWBkZV_13ettlex_engine8commands8decision13decision_link
FN:53,_RNvNtNtCs5ZhMRgWBkZV_13ettlex_engine8commands8decision15decision_create
FN:424,_RNvNtNtCs5ZhMRgWBkZV_13ettlex_engine8commands8decision15decision_unlink
FN:174,_RNvNtNtCs5ZhMRgWBkZV_13ettlex_engine8commands8decision15decision_update
FN:379,_RNvNtNtCs5ZhMRgWBkZV_13ettlex_engine8commands8decision18decision_link_impl
FN:500,_RNvNtNtCs5ZhMRgWBkZV_13ettlex_engine8commands8decision18decision_supersede
FN:282,_RNvNtNtCs5ZhMRgWBkZV_13ettlex_engine8commands8decision18decision_tombstone
FN:103,_RNvNtNtCs5ZhMRgWBkZV_13ettlex_engine8commands8decision20decision_create_impl
FN:462,_RNvNtNtCs5ZhMRgWBkZV_13ettlex_engine8commands8decision20decision_unlink_impl
FN:223,_RNvNtNtCs5ZhMRgWBkZV_13ettlex_engine8commands8decision20decision_update_impl
FN:531,_RNvNtNtCs5ZhMRgWBkZV_13ettlex_engine8commands8decision23decision_supersede_impl
FN:303,_RNvNtNtCs5ZhMRgWBkZV_13ettlex_engine8commands8decision23decision_tombstone_impl
FN:362,_RNCNvNtNtCs5ZhMRgWBkZV_13ettlex_engine8commands8decision13decision_link0B7_
FN:84,_RNCNvNtNtCs5ZhMRgWBkZV_13ettlex_engine8commands8decision15decision_create0B7_
FN:445,_RNCNvNtNtCs5ZhMRgWBkZV_13ettlex_engine8commands8decision15decision_unlink0B7_
FN:205,_RNCNvNtNtCs5ZhMRgWBkZV_13ettlex_engine8commands8decision15decision_update0B7_
FN:513,_RNCNvNtNtCs5ZhMRgWBkZV_13ettlex_engine8commands8decision18decision_supersede0B7_
FN:286,_RNCNvNtNtCs5ZhMRgWBkZV_13ettlex_engine8commands8decision18decision_tombstone0B7_
FN:362,_RNCNvNtNtCscyF6it41FpO_13ettlex_engine8commands8decision13decision_link0B7_
FN:84,_RNCNvNtNtCscyF6it41FpO_13ettlex_engine8commands8decision15decision_create0B7_
FN:445,_RNCNvNtNtCscyF6it41FpO_13ettlex_engine8commands8decision15decision_unlink0B7_
FN:205,_RNCNvNtNtCscyF6it41FpO_13ettlex_engine8commands8decision15decision_update0B7_
FN:513,_RNCNvNtNtCscyF6it41FpO_13ettlex_engine8commands8decision18decision_supersede0B7_
FN:286,_RNCNvNtNtCscyF6it41FpO_13ettlex_engine8commands8decision18decision_tombstone0B7_
FN:339,_RNvNtNtCscyF6it41FpO_13ettlex_engine8commands8decision13decision_link
FN:53,_RNvNtNtCscyF6it41FpO_13ettlex_engine8commands8decision15decision_create
FN:424,_RNvNtNtCscyF6it41FpO_13ettlex_engine8commands8decision15decision_unlink
FN:174,_RNvNtNtCscyF6it41FpO_13ettlex_engine8commands8decision15decision_update
FN:379,_RNvNtNtCscyF6it41FpO_13ettlex_engine8commands8decision18decision_link_impl
FN:500,_RNvNtNtCscyF6it41FpO_13ettlex_engine8commands8decision18decision_supersede
FN:282,_RNvNtNtCscyF6it41FpO_13ettlex_engine8commands8decision18decision_tombstone
FN:103,_RNvNtNtCscyF6it41FpO_13ettlex_engine8commands8decision20decision_create_impl
FN:462,_RNvNtNtCscyF6it41FpO_13ettlex_engine8commands8decision20decision_unlink_impl
FN:223,_RNvNtNtCscyF6it41FpO_13ettlex_engine8commands8decision20decision_update_impl
FN:531,_RNvNtNtCscyF6it41FpO_13ettlex_engine8commands8decision23decision_supersede_impl
FN:303,_RNvNtNtCscyF6it41FpO_13ettlex_engine8commands8decision23decision_tombstone_impl
FNDA:6,_RNvNtNtCs5ZhMRgWBkZV_13ettlex_engine8commands8decision13decision_link
FNDA:16,_RNvNtNtCs5ZhMRgWBkZV_13ettlex_engine8commands8decision15decision_create
FNDA:1,_RNvNtNtCs5ZhMRgWBkZV_13ettlex_engine8commands8decision15decision_unlink
FNDA:2,_RNvNtNtCs5ZhMRgWBkZV_13ettlex_engine8commands8decision15decision_update
FNDA:6,_RNvNtNtCs5ZhMRgWBkZV_13ettlex_engine8commands8decision18decision_link_impl
FNDA:2,_RNvNtNtCs5ZhMRgWBkZV_13ettlex_engine8commands8decision18decision_supersede
FNDA:2,_RNvNtNtCs5ZhMRgWBkZV_13ettlex_engine8commands8decision18decision_tombstone
FNDA:16,_RNvNtNtCs5ZhMRgWBkZV_13ettlex_engine8commands8decision20decision_create_impl
FNDA:1,_RNvNtNtCs5ZhMRgWBkZV_13ettlex_engine8commands8decision20decision_unlink_impl
FNDA:2,_RNvNtNtCs5ZhMRgWBkZV_13ettlex_engine8commands8decision20decision_update_impl
FNDA:2,_RNvNtNtCs5ZhMRgWBkZV_13ettlex_engine8commands8decision23decision_supersede_impl
FNDA:2,_RNvNtNtCs5ZhMRgWBkZV_13ettlex_engine8commands8decision23decision_tombstone_impl
FNDA:1,_RNCNvNtNtCs5ZhMRgWBkZV_13ettlex_engine8commands8decision13decision_link0B7_
FNDA:0,_RNCNvNtNtCs5ZhMRgWBkZV_13ettlex_engine8commands8decision15decision_create0B7_
FNDA:0,_RNCNvNtNtCs5ZhMRgWBkZV_13ettlex_engine8commands8decision15decision_unlink0B7_
FNDA:1,_RNCNvNtNtCs5ZhMRgWBkZV_13ettlex_engine8commands8decision15decision_update0B7_
FNDA:1,_RNCNvNtNtCs5ZhMRgWBkZV_13ettlex_engine8commands8decision18decision_supersede0B7_
FNDA:1,_RNCNvNtNtCs5ZhMRgWBkZV_13ettlex_engine8commands8decision18decision_tombstone0B7_
FNDA:0,_RNCNvNtNtCscyF6it41FpO_13ettlex_engine8commands8decision13decision_link0B7_
FNDA:0,_RNCNvNtNtCscyF6it41FpO_13ettlex_engine8commands8decision15decision_create0B7_
FNDA:0,_RNCNvNtNtCscyF6it41FpO_13ettlex_engine8commands8decision15decision_unlink0B7_
FNDA:0,_RNCNvNtNtCscyF6it41FpO_13ettlex_engine8commands8decision15decision_update0B7_
FNDA:0,_RNCNvNtNtCscyF6it41FpO_13ettlex_engine8commands8decision18decision_supersede0B7_
FNDA:0,_RNCNvNtNtCscyF6it41FpO_13ettlex_engine8commands8decision18decision_tombstone0B7_
FNDA:0,_RNvNtNtCscyF6it41FpO_13ettlex_engine8commands8decision13decision_link
FNDA:0,_RNvNtNtCscyF6it41FpO_13ettlex_engine8commands8decision15decision_create
FNDA:0,_RNvNtNtCscyF6it41FpO_13ettlex_engine8commands8decision15decision_unlink
FNDA:0,_RNvNtNtCscyF6it41FpO_13ettlex_engine8commands8decision15decision_update
FNDA:0,_RNvNtNtCscyF6it41FpO_13ettlex_engine8commands8decision18decision_link_impl
FNDA:0,_RNvNtNtCscyF6it41FpO_13ettlex_engine8commands8decision18decision_supersede
FNDA:0,_RNvNtNtCscyF6it41FpO_13ettlex_engine8commands8decision18decision_tombstone
FNDA:0,_RNvNtNtCscyF6it41FpO_13ettlex_engine8commands8decision20decision_create_impl
FNDA:0,_RNvNtNtCscyF6it41FpO_13ettlex_engine8commands8decision20decision_unlink_impl
FNDA:0,_RNvNtNtCscyF6it41FpO_13ettlex_engine8commands8decision20decision_update_impl
FNDA:0,_RNvNtNtCscyF6it41FpO_13ettlex_engine8commands8decision23decision_supersede_impl
FNDA:0,_RNvNtNtCscyF6it41FpO_13ettlex_engine8commands8decision23decision_tombstone_impl
FNF:18
FNH:16
DA:53,16
DA:54,16
DA:55,16
DA:56,16
DA:57,16
DA:58,16
DA:59,16
DA:60,16
DA:61,16
DA:62,16
DA:63,16
DA:64,16
DA:65,16
DA:66,16
DA:67,16
DA:68,16
DA:70,16
DA:71,16
DA:72,16
DA:73,16
DA:74,16
DA:75,16
DA:76,16
DA:77,16
DA:78,16
DA:79,16
DA:80,16
DA:81,16
DA:82,16
DA:84,16
DA:85,0
DA:87,0
DA:88,0
DA:90,0
DA:91,0
DA:93,16
DA:95,0
DA:96,0
DA:99,16
DA:100,16
DA:103,16
DA:104,16
DA:105,16
DA:106,16
DA:107,16
DA:108,16
DA:109,16
DA:110,16
DA:111,16
DA:112,16
DA:113,16
DA:114,16
DA:115,16
DA:116,16
DA:118,16
DA:121,16
DA:122,16
DA:123,16
DA:124,16
DA:125,16
DA:126,16
DA:127,16
DA:128,16
DA:129,16
DA:130,16
DA:131,16
DA:132,16
DA:133,16
DA:134,0
DA:137,16
DA:138,16
DA:141,16
DA:142,1
DA:143,1
DA:144,0
DA:145,15
DA:147,16
DA:148,16
DA:174,2
DA:175,2
DA:176,2
DA:177,2
DA:178,2
DA:179,2
DA:180,2
DA:181,2
DA:182,2
DA:183,2
DA:184,2
DA:185,2
DA:186,2
DA:187,2
DA:188,2
DA:189,2
DA:191,2
DA:192,2
DA:193,2
DA:194,2
DA:195,2
DA:196,2
DA:197,2
DA:198,2
DA:199,2
DA:200,2
DA:201,2
DA:202,2
DA:203,2
DA:205,2
DA:206,1
DA:208,1
DA:209,0
DA:211,1
DA:212,1
DA:214,1
DA:216,0
DA:219,1
DA:220,2
DA:223,2
DA:224,2
DA:225,2
DA:226,2
DA:227,2
DA:228,2
DA:229,2
DA:230,2
DA:231,2
DA:232,2
DA:233,2
DA:234,2
DA:235,2
DA:236,2
DA:238,2
DA:241,2
DA:242,2
DA:243,2
DA:244,2
DA:245,2
DA:246,2
DA:247,2
DA:248,2
DA:249,2
DA:250,2
DA:251,2
DA:252,2
DA:253,2
DA:254,1
DA:257,1
DA:258,1
DA:261,1
DA:262,0
DA:263,0
DA:264,0
DA:265,1
DA:267,1
DA:268,2
DA:282,2
DA:283,2
DA:284,2
DA:286,2
DA:287,1
DA:289,1
DA:290,0
DA:292,1
DA:293,1
DA:295,1
DA:297,0
DA:300,1
DA:301,2
DA:303,2
DA:305,2
DA:308,2
DA:312,1
DA:313,1
DA:314,1
DA:315,1
DA:317,1
DA:318,2
DA:339,6
DA:340,6
DA:341,6
DA:342,6
DA:343,6
DA:344,6
DA:345,6
DA:346,6
DA:347,6
DA:349,0
DA:350,0
DA:352,6
DA:354,6
DA:355,6
DA:356,6
DA:357,6
DA:358,6
DA:359,6
DA:360,6
DA:362,6
DA:363,1
DA:365,1
DA:366,0
DA:368,1
DA:369,1
DA:371,5
DA:373,0
DA:376,5
DA:377,6
DA:379,6
DA:380,6
DA:381,6
DA:382,6
DA:383,6
DA:384,6
DA:385,6
DA:386,6
DA:388,6
DA:391,6
DA:392,6
DA:393,6
DA:394,6
DA:395,6
DA:396,6
DA:397,6
DA:398,1
DA:401,5
DA:402,5
DA:404,5
DA:405,0
DA:407,5
DA:408,6
DA:424,1
DA:425,1
DA:426,1
DA:427,1
DA:428,1
DA:429,1
DA:430,1
DA:431,1
DA:433,0
DA:434,0
DA:436,1
DA:438,1
DA:439,1
DA:440,1
DA:441,1
DA:442,1
DA:443,1
DA:445,1
DA:446,0
DA:448,0
DA:449,0
DA:451,0
DA:452,0
DA:454,1
DA:456,0
DA:459,1
DA:460,1
DA:462,1
DA:463,1
DA:464,1
DA:465,1
DA:466,1
DA:467,1
DA:468,1
DA:470,1
DA:473,1
DA:474,1
DA:475,1
DA:476,1
DA:477,1
DA:478,1
DA:479,0
DA:484,1
DA:485,1
DA:500,2
DA:501,2
DA:502,2
DA:503,2
DA:504,2
DA:505,2
DA:507,0
DA:508,0
DA:510,2
DA:512,2
DA:513,1
DA:514,1
DA:516,1
DA:517,0
DA:519,1
DA:520,1
DA:521,1
DA:523,1
DA:525,0
DA:528,1
DA:529,2
DA:531,2
DA:532,2
DA:533,2
DA:534,2
DA:535,2
DA:537,2
DA:540,2
DA:543,0
DA:544,1
DA:546,0
DA:547,1
DA:549,1
DA:550,2
BRF:0
BRH:0
LF:317
LH:277
end_of_record
SF:/Users/nick/Development/EttleX/EttleX-Project/Rust/crates/ettlex-engine/src/commands/engine_command.rs
FN:50,_RNvNtNtCs5ZhMRgWBkZV_13ettlex_engine8commands14engine_command20apply_engine_command
FN:50,_RNvNtNtCscyF6it41FpO_13ettlex_engine8commands14engine_command20apply_engine_command
FNDA:68,_RNvNtNtCs5ZhMRgWBkZV_13ettlex_engine8commands14engine_command20apply_engine_command
FNDA:0,_RNvNtNtCscyF6it41FpO_13ettlex_engine8commands14engine_command20apply_engine_command
FNF:1
FNH:1
DA:50,68
DA:51,68
DA:52,68
DA:53,68
DA:54,68
DA:55,68
DA:56,68
DA:57,68
DA:59,64
DA:60,64
DA:61,64
DA:62,64
DA:64,64
DA:65,64
DA:66,64
DA:67,64
DA:68,64
DA:69,64
DA:70,64
DA:71,64
DA:72,64
DA:73,20
DA:74,44
DA:75,40
DA:76,4
DA:77,4
DA:82,2
DA:83,2
DA:86,2
DA:87,1
DA:89,2
DA:90,2
DA:91,1
DA:94,68
BRF:0
BRH:0
LF:34
LH:34
end_of_record
SF:/Users/nick/Development/EttleX/EttleX-Project/Rust/crates/ettlex-engine/src/commands/engine_query.rs
FN:741,_RNCNCNCNvNtNtCs5ZhMRgWBkZV_13ettlex_engine8commands12engine_query18apply_engine_querysb_000Bb_
FN:1283,_RNCNCNCNvNtNtCs5ZhMRgWBkZV_13ettlex_engine8commands12engine_query18apply_engine_querysp_000Bb_
FN:427,_RNCNCNvNtNtCs5ZhMRgWBkZV_13ettlex_engine8commands12engine_query18apply_engine_querys0_00B9_
FN:434,_RNCNCNvNtNtCs5ZhMRgWBkZV_13ettlex_engine8commands12engine_query18apply_engine_querys0_0s_0B9_
FN:468,_RNCNCNvNtNtCs5ZhMRgWBkZV_13ettlex_engine8commands12engine_query18apply_engine_querys1_00B9_
FN:507,_RNCNCNvNtNtCs5ZhMRgWBkZV_13ettlex_engine8commands12engine_query18apply_engine_querys3_00B9_
FN:597,_RNCNCNvNtNtCs5ZhMRgWBkZV_13ettlex_engine8commands12engine_query18apply_engine_querys7_00B9_
FN:640,_RNCNCNvNtNtCs5ZhMRgWBkZV_13ettlex_engine8commands12engine_query18apply_engine_querys7_0s_0B9_
FN:663,_RNCNCNvNtNtCs5ZhMRgWBkZV_13ettlex_engine8commands12engine_query18apply_engine_querys8_00B9_
FN:383,_RNCNCNvNtNtCs5ZhMRgWBkZV_13ettlex_engine8commands12engine_query18apply_engine_querys_00B9_
FN:395,_RNCNCNvNtNtCs5ZhMRgWBkZV_13ettlex_engine8commands12engine_query18apply_engine_querys_0s0_0B9_
FN:398,_RNCNCNvNtNtCs5ZhMRgWBkZV_13ettlex_engine8commands12engine_query18apply_engine_querys_0s1_0B9_
FN:384,_RNCNCNvNtNtCs5ZhMRgWBkZV_13ettlex_engine8commands12engine_query18apply_engine_querys_0s_0B9_
FN:709,_RNCNCNvNtNtCs5ZhMRgWBkZV_13ettlex_engine8commands12engine_query18apply_engine_querysa_00B9_
FN:734,_RNCNCNvNtNtCs5ZhMRgWBkZV_13ettlex_engine8commands12engine_query18apply_engine_querysb_00B9_
FN:751,_RNCNCNvNtNtCs5ZhMRgWBkZV_13ettlex_engine8commands12engine_query18apply_engine_querysb_0s0_0B9_
FN:748,_RNCNCNvNtNtCs5ZhMRgWBkZV_13ettlex_engine8commands12engine_query18apply_engine_querysb_0s_0B9_
FN:807,_RNCNCNvNtNtCs5ZhMRgWBkZV_13ettlex_engine8commands12engine_query18apply_engine_querysd_00B9_
FN:842,_RNCNCNvNtNtCs5ZhMRgWBkZV_13ettlex_engine8commands12engine_query18apply_engine_querysd_0s1_0B9_
FN:866,_RNCNCNvNtNtCs5ZhMRgWBkZV_13ettlex_engine8commands12engine_query18apply_engine_queryse_00B9_
FN:894,_RNCNCNvNtNtCs5ZhMRgWBkZV_13ettlex_engine8commands12engine_query18apply_engine_queryse_0s0_0B9_
FN:874,_RNCNCNvNtNtCs5ZhMRgWBkZV_13ettlex_engine8commands12engine_query18apply_engine_queryse_0s_0B9_
FN:997,_RNCNCNvNtNtCs5ZhMRgWBkZV_13ettlex_engine8commands12engine_query18apply_engine_querysi_00B9_
FN:1000,_RNCNCNvNtNtCs5ZhMRgWBkZV_13ettlex_engine8commands12engine_query18apply_engine_querysi_0s_0B9_
FN:1044,_RNCNCNvNtNtCs5ZhMRgWBkZV_13ettlex_engine8commands12engine_query18apply_engine_querysj_00B9_
FN:1052,_RNCNCNvNtNtCs5ZhMRgWBkZV_13ettlex_engine8commands12engine_query18apply_engine_querysj_0s_0B9_
FN:1114,_RNCNCNvNtNtCs5ZhMRgWBkZV_13ettlex_engine8commands12engine_query18apply_engine_querysl_00B9_
FN:1191,_RNCNCNvNtNtCs5ZhMRgWBkZV_13ettlex_engine8commands12engine_query18apply_engine_querysn_00B9_
FN:1196,_RNCNCNvNtNtCs5ZhMRgWBkZV_13ettlex_engine8commands12engine_query18apply_engine_querysn_0s_0B9_
FN:1217,_RNCNCNvNtNtCs5ZhMRgWBkZV_13ettlex_engine8commands12engine_query18apply_engine_queryso_00B9_
FN:1231,_RNCNCNvNtNtCs5ZhMRgWBkZV_13ettlex_engine8commands12engine_query18apply_engine_queryso_0s0_0B9_
FN:1246,_RNCNCNvNtNtCs5ZhMRgWBkZV_13ettlex_engine8commands12engine_query18apply_engine_queryso_0s1_0B9_
FN:1224,_RNCNCNvNtNtCs5ZhMRgWBkZV_13ettlex_engine8commands12engine_query18apply_engine_queryso_0s_0B9_
FN:1277,_RNCNCNvNtNtCs5ZhMRgWBkZV_13ettlex_engine8commands12engine_query18apply_engine_querysp_00B9_
FN:1295,_RNCNCNvNtNtCs5ZhMRgWBkZV_13ettlex_engine8commands12engine_query18apply_engine_querysp_0s0_0B9_
FN:1290,_RNCNCNvNtNtCs5ZhMRgWBkZV_13ettlex_engine8commands12engine_query18apply_engine_querysp_0s_0B9_
FN:1336,_RNCNCNvNtNtCs5ZhMRgWBkZV_13ettlex_engine8commands12engine_query18apply_engine_querysq_00B9_
FN:1388,_RNCNCNvNtNtCs5ZhMRgWBkZV_13ettlex_engine8commands12engine_query18apply_engine_querysr_00B9_
FN:1412,_RNCNCNvNtNtCs5ZhMRgWBkZV_13ettlex_engine8commands12engine_query18apply_engine_queryss_00B9_
FN:1442,_RNCNCNvNtNtCs5ZhMRgWBkZV_13ettlex_engine8commands12engine_query18apply_engine_queryst_00B9_
FN:1473,_RNCNCNvNtNtCs5ZhMRgWBkZV_13ettlex_engine8commands12engine_query18apply_engine_querysu_00B9_
FN:1481,_RNCNCNvNtNtCs5ZhMRgWBkZV_13ettlex_engine8commands12engine_query18apply_engine_querysu_0s_0B9_
FN:1518,_RNCNCNvNtNtCs5ZhMRgWBkZV_13ettlex_engine8commands12engine_query18apply_engine_querysv_00B9_
FN:1526,_RNCNCNvNtNtCs5ZhMRgWBkZV_13ettlex_engine8commands12engine_query18apply_engine_querysv_0s0_0B9_
FN:1525,_RNCNCNvNtNtCs5ZhMRgWBkZV_13ettlex_engine8commands12engine_query18apply_engine_querysv_0s_0B9_
FN:1560,_RNCNCNvNtNtCs5ZhMRgWBkZV_13ettlex_engine8commands12engine_query18apply_engine_querysw_00B9_
FN:1563,_RNCNCNvNtNtCs5ZhMRgWBkZV_13ettlex_engine8commands12engine_query18apply_engine_querysw_0s_0B9_
FN:350,_RNCNvNtNtCs5ZhMRgWBkZV_13ettlex_engine8commands12engine_query18apply_engine_query0B7_
FN:426,_RNCNvNtNtCs5ZhMRgWBkZV_13ettlex_engine8commands12engine_query18apply_engine_querys0_0B7_
FN:457,_RNCNvNtNtCs5ZhMRgWBkZV_13ettlex_engine8commands12engine_query18apply_engine_querys1_0B7_
FN:487,_RNCNvNtNtCs5ZhMRgWBkZV_13ettlex_engine8commands12engine_query18apply_engine_querys2_0B7_
FN:506,_RNCNvNtNtCs5ZhMRgWBkZV_13ettlex_engine8commands12engine_query18apply_engine_querys3_0B7_
FN:530,_RNCNvNtNtCs5ZhMRgWBkZV_13ettlex_engine8commands12engine_query18apply_engine_querys4_0B7_
FN:549,_RNCNvNtNtCs5ZhMRgWBkZV_13ettlex_engine8commands12engine_query18apply_engine_querys5_0B7_
FN:568,_RNCNvNtNtCs5ZhMRgWBkZV_13ettlex_engine8commands12engine_query18apply_engine_querys6_0B7_
FN:590,_RNCNvNtNtCs5ZhMRgWBkZV_13ettlex_engine8commands12engine_query18apply_engine_querys7_0B7_
FN:662,_RNCNvNtNtCs5ZhMRgWBkZV_13ettlex_engine8commands12engine_query18apply_engine_querys8_0B7_
FN:689,_RNCNvNtNtCs5ZhMRgWBkZV_13ettlex_engine8commands12engine_query18apply_engine_querys9_0B7_
FN:381,_RNCNvNtNtCs5ZhMRgWBkZV_13ettlex_engine8commands12engine_query18apply_engine_querys_0B7_
FN:708,_RNCNvNtNtCs5ZhMRgWBkZV_13ettlex_engine8commands12engine_query18apply_engine_querysa_0B7_
FN:732,_RNCNvNtNtCs5ZhMRgWBkZV_13ettlex_engine8commands12engine_query18apply_engine_querysb_0B7_
FN:775,_RNCNvNtNtCs5ZhMRgWBkZV_13ettlex_engine8commands12engine_query18apply_engine_querysc_0B7_
FN:803,_RNCNvNtNtCs5ZhMRgWBkZV_13ettlex_engine8commands12engine_query18apply_engine_querysd_0B7_
FN:864,_RNCNvNtNtCs5ZhMRgWBkZV_13ettlex_engine8commands12engine_query18apply_engine_queryse_0B7_
FN:926,_RNCNvNtNtCs5ZhMRgWBkZV_13ettlex_engine8commands12engine_query18apply_engine_querysf_0B7_
FN:945,_RNCNvNtNtCs5ZhMRgWBkZV_13ettlex_engine8commands12engine_query18apply_engine_querysg_0B7_
FN:965,_RNCNvNtNtCs5ZhMRgWBkZV_13ettlex_engine8commands12engine_query18apply_engine_querysh_0B7_
FN:990,_RNCNvNtNtCs5ZhMRgWBkZV_13ettlex_engine8commands12engine_query18apply_engine_querysi_0B7_
FN:1043,_RNCNvNtNtCs5ZhMRgWBkZV_13ettlex_engine8commands12engine_query18apply_engine_querysj_0B7_
FN:1082,_RNCNvNtNtCs5ZhMRgWBkZV_13ettlex_engine8commands12engine_query18apply_engine_querysk_0B7_
FN:1112,_RNCNvNtNtCs5ZhMRgWBkZV_13ettlex_engine8commands12engine_query18apply_engine_querysl_0B7_
FN:1155,_RNCNvNtNtCs5ZhMRgWBkZV_13ettlex_engine8commands12engine_query18apply_engine_querysm_0B7_
FN:1184,_RNCNvNtNtCs5ZhMRgWBkZV_13ettlex_engine8commands12engine_query18apply_engine_querysn_0B7_
FN:1216,_RNCNvNtNtCs5ZhMRgWBkZV_13ettlex_engine8commands12engine_query18apply_engine_queryso_0B7_
FN:1275,_RNCNvNtNtCs5ZhMRgWBkZV_13ettlex_engine8commands12engine_query18apply_engine_querysp_0B7_
FN:1327,_RNCNvNtNtCs5ZhMRgWBkZV_13ettlex_engine8commands12engine_query18apply_engine_querysq_0B7_
FN:1387,_RNCNvNtNtCs5ZhMRgWBkZV_13ettlex_engine8commands12engine_query18apply_engine_querysr_0B7_
FN:1411,_RNCNvNtNtCs5ZhMRgWBkZV_13ettlex_engine8commands12engine_query18apply_engine_queryss_0B7_
FN:1441,_RNCNvNtNtCs5ZhMRgWBkZV_13ettlex_engine8commands12engine_query18apply_engine_queryst_0B7_
FN:1472,_RNCNvNtNtCs5ZhMRgWBkZV_13ettlex_engine8commands12engine_query18apply_engine_querysu_0B7_
FN:1515,_RNCNvNtNtCs5ZhMRgWBkZV_13ettlex_engine8commands12engine_query18apply_engine_querysv_0B7_
FN:1553,_RNCNvNtNtCs5ZhMRgWBkZV_13ettlex_engine8commands12engine_query18apply_engine_querysw_0B7_
FN:1600,_RNCNvNtNtCs5ZhMRgWBkZV_13ettlex_engine8commands12engine_query24resolve_ambiguity_policy0B7_
FN:314,_RNvNtNtCs5ZhMRgWBkZV_13ettlex_engine8commands12engine_query10sha256_hex
FN:278,_RNvNtNtCs5ZhMRgWBkZV_13ettlex_engine8commands12engine_query11resolve_ref
FN:338,_RNvNtNtCs5ZhMRgWBkZV_13ettlex_engine8commands12engine_query18apply_engine_query
FN:288,_RNvNtNtCs5ZhMRgWBkZV_13ettlex_engine8commands12engine_query22snapshot_row_to_result
FN:1588,_RNvNtNtCs5ZhMRgWBkZV_13ettlex_engine8commands12engine_query24resolve_ambiguity_policy
FN:302,_RNvNtNtCs5ZhMRgWBkZV_13ettlex_engine8commands12engine_query25approval_row_to_list_item
FN:741,_RNCNCNCNvNtNtCscyF6it41FpO_13ettlex_engine8commands12engine_query18apply_engine_querysb_000Bb_
FN:1283,_RNCNCNCNvNtNtCscyF6it41FpO_13ettlex_engine8commands12engine_query18apply_engine_querysp_000Bb_
FN:427,_RNCNCNvNtNtCscyF6it41FpO_13ettlex_engine8commands12engine_query18apply_engine_querys0_00B9_
FN:434,_RNCNCNvNtNtCscyF6it41FpO_13ettlex_engine8commands12engine_query18apply_engine_querys0_0s_0B9_
FN:468,_RNCNCNvNtNtCscyF6it41FpO_13ettlex_engine8commands12engine_query18apply_engine_querys1_00B9_
FN:507,_RNCNCNvNtNtCscyF6it41FpO_13ettlex_engine8commands12engine_query18apply_engine_querys3_00B9_
FN:597,_RNCNCNvNtNtCscyF6it41FpO_13ettlex_engine8commands12engine_query18apply_engine_querys7_00B9_
FN:640,_RNCNCNvNtNtCscyF6it41FpO_13ettlex_engine8commands12engine_query18apply_engine_querys7_0s_0B9_
FN:663,_RNCNCNvNtNtCscyF6it41FpO_13ettlex_engine8commands12engine_query18apply_engine_querys8_00B9_
FN:383,_RNCNCNvNtNtCscyF6it41FpO_13ettlex_engine8commands12engine_query18apply_engine_querys_00B9_
FN:395,_RNCNCNvNtNtCscyF6it41FpO_13ettlex_engine8commands12engine_query18apply_engine_querys_0s0_0B9_
FN:398,_RNCNCNvNtNtCscyF6it41FpO_13ettlex_engine8commands12engine_query18apply_engine_querys_0s1_0B9_
FN:384,_RNCNCNvNtNtCscyF6it41FpO_13ettlex_engine8commands12engine_query18apply_engine_querys_0s_0B9_
FN:709,_RNCNCNvNtNtCscyF6it41FpO_13ettlex_engine8commands12engine_query18apply_engine_querysa_00B9_
FN:734,_RNCNCNvNtNtCscyF6it41FpO_13ettlex_engine8commands12engine_query18apply_engine_querysb_00B9_
FN:751,_RNCNCNvNtNtCscyF6it41FpO_13ettlex_engine8commands12engine_query18apply_engine_querysb_0s0_0B9_
FN:748,_RNCNCNvNtNtCscyF6it41FpO_13ettlex_engine8commands12engine_query18apply_engine_querysb_0s_0B9_
FN:807,_RNCNCNvNtNtCscyF6it41FpO_13ettlex_engine8commands12engine_query18apply_engine_querysd_00B9_
FN:842,_RNCNCNvNtNtCscyF6it41FpO_13ettlex_engine8commands12engine_query18apply_engine_querysd_0s1_0B9_
FN:866,_RNCNCNvNtNtCscyF6it41FpO_13ettlex_engine8commands12engine_query18apply_engine_queryse_00B9_
FN:894,_RNCNCNvNtNtCscyF6it41FpO_13ettlex_engine8commands12engine_query18apply_engine_queryse_0s0_0B9_
FN:874,_RNCNCNvNtNtCscyF6it41FpO_13ettlex_engine8commands12engine_query18apply_engine_queryse_0s_0B9_
FN:997,_RNCNCNvNtNtCscyF6it41FpO_13ettlex_engine8commands12engine_query18apply_engine_querysi_00B9_
FN:1000,_RNCNCNvNtNtCscyF6it41FpO_13ettlex_engine8commands12engine_query18apply_engine_querysi_0s_0B9_
FN:1044,_RNCNCNvNtNtCscyF6it41FpO_13ettlex_engine8commands12engine_query18apply_engine_querysj_00B9_
FN:1052,_RNCNCNvNtNtCscyF6it41FpO_13ettlex_engine8commands12engine_query18apply_engine_querysj_0s_0B9_
FN:1114,_RNCNCNvNtNtCscyF6it41FpO_13ettlex_engine8commands12engine_query18apply_engine_querysl_00B9_
FN:1191,_RNCNCNvNtNtCscyF6it41FpO_13ettlex_engine8commands12engine_query18apply_engine_querysn_00B9_
FN:1196,_RNCNCNvNtNtCscyF6it41FpO_13ettlex_engine8commands12engine_query18apply_engine_querysn_0s_0B9_
FN:1217,_RNCNCNvNtNtCscyF6it41FpO_13ettlex_engine8commands12engine_query18apply_engine_queryso_00B9_
FN:1231,_RNCNCNvNtNtCscyF6it41FpO_13ettlex_engine8commands12engine_query18apply_engine_queryso_0s0_0B9_
FN:1246,_RNCNCNvNtNtCscyF6it41FpO_13ettlex_engine8commands12engine_query18apply_engine_queryso_0s1_0B9_
FN:1224,_RNCNCNvNtNtCscyF6it41FpO_13ettlex_engine8commands12engine_query18apply_engine_queryso_0s_0B9_
FN:1277,_RNCNCNvNtNtCscyF6it41FpO_13ettlex_engine8commands12engine_query18apply_engine_querysp_00B9_
FN:1295,_RNCNCNvNtNtCscyF6it41FpO_13ettlex_engine8commands12engine_query18apply_engine_querysp_0s0_0B9_
FN:1290,_RNCNCNvNtNtCscyF6it41FpO_13ettlex_engine8commands12engine_query18apply_engine_querysp_0s_0B9_
FN:1336,_RNCNCNvNtNtCscyF6it41FpO_13ettlex_engine8commands12engine_query18apply_engine_querysq_00B9_
FN:1388,_RNCNCNvNtNtCscyF6it41FpO_13ettlex_engine8commands12engine_query18apply_engine_querysr_00B9_
FN:1412,_RNCNCNvNtNtCscyF6it41FpO_13ettlex_engine8commands12engine_query18apply_engine_queryss_00B9_
FN:1442,_RNCNCNvNtNtCscyF6it41FpO_13ettlex_engine8commands12engine_query18apply_engine_queryst_00B9_
FN:1473,_RNCNCNvNtNtCscyF6it41FpO_13ettlex_engine8commands12engine_query18apply_engine_querysu_00B9_
FN:1481,_RNCNCNvNtNtCscyF6it41FpO_13ettlex_engine8commands12engine_query18apply_engine_querysu_0s_0B9_
FN:1518,_RNCNCNvNtNtCscyF6it41FpO_13ettlex_engine8commands12engine_query18apply_engine_querysv_00B9_
FN:1526,_RNCNCNvNtNtCscyF6it41FpO_13ettlex_engine8commands12engine_query18apply_engine_querysv_0s0_0B9_
FN:1525,_RNCNCNvNtNtCscyF6it41FpO_13ettlex_engine8commands12engine_query18apply_engine_querysv_0s_0B9_
FN:1560,_RNCNCNvNtNtCscyF6it41FpO_13ettlex_engine8commands12engine_query18apply_engine_querysw_00B9_
FN:1563,_RNCNCNvNtNtCscyF6it41FpO_13ettlex_engine8commands12engine_query18apply_engine_querysw_0s_0B9_
FN:350,_RNCNvNtNtCscyF6it41FpO_13ettlex_engine8commands12engine_query18apply_engine_query0B7_
FN:426,_RNCNvNtNtCscyF6it41FpO_13ettlex_engine8commands12engine_query18apply_engine_querys0_0B7_
FN:457,_RNCNvNtNtCscyF6it41FpO_13ettlex_engine8commands12engine_query18apply_engine_querys1_0B7_
FN:487,_RNCNvNtNtCscyF6it41FpO_13ettlex_engine8commands12engine_query18apply_engine_querys2_0B7_
FN:506,_RNCNvNtNtCscyF6it41FpO_13ettlex_engine8commands12engine_query18apply_engine_querys3_0B7_
FN:530,_RNCNvNtNtCscyF6it41FpO_13ettlex_engine8commands12engine_query18apply_engine_querys4_0B7_
FN:549,_RNCNvNtNtCscyF6it41FpO_13ettlex_engine8commands12engine_query18apply_engine_querys5_0B7_
FN:568,_RNCNvNtNtCscyF6it41FpO_13ettlex_engine8commands12engine_query18apply_engine_querys6_0B7_
FN:590,_RNCNvNtNtCscyF6it41FpO_13ettlex_engine8commands12engine_query18apply_engine_querys7_0B7_
FN:662,_RNCNvNtNtCscyF6it41FpO_13ettlex_engine8commands12engine_query18apply_engine_querys8_0B7_
FN:689,_RNCNvNtNtCscyF6it41FpO_13ettlex_engine8commands12engine_query18apply_engine_querys9_0B7_
FN:381,_RNCNvNtNtCscyF6it41FpO_13ettlex_engine8commands12engine_query18apply_engine_querys_0B7_
FN:708,_RNCNvNtNtCscyF6it41FpO_13ettlex_engine8commands12engine_query18apply_engine_querysa_0B7_
FN:732,_RNCNvNtNtCscyF6it41FpO_13ettlex_engine8commands12engine_query18apply_engine_querysb_0B7_
FN:775,_RNCNvNtNtCscyF6it41FpO_13ettlex_engine8commands12engine_query18apply_engine_querysc_0B7_
FN:803,_RNCNvNtNtCscyF6it41FpO_13ettlex_engine8commands12engine_query18apply_engine_querysd_0B7_
FN:864,_RNCNvNtNtCscyF6it41FpO_13ettlex_engine8commands12engine_query18apply_engine_queryse_0B7_
FN:926,_RNCNvNtNtCscyF6it41FpO_13ettlex_engine8commands12engine_query18apply_engine_querysf_0B7_
FN:945,_RNCNvNtNtCscyF6it41FpO_13ettlex_engine8commands12engine_query18apply_engine_querysg_0B7_
FN:965,_RNCNvNtNtCscyF6it41FpO_13ettlex_engine8commands12engine_query18apply_engine_querysh_0B7_
FN:990,_RNCNvNtNtCscyF6it41FpO_13ettlex_engine8commands12engine_query18apply_engine_querysi_0B7_
FN:1043,_RNCNvNtNtCscyF6it41FpO_13ettlex_engine8commands12engine_query18apply_engine_querysj_0B7_
FN:1082,_RNCNvNtNtCscyF6it41FpO_13ettlex_engine8commands12engine_query18apply_engine_querysk_0B7_
FN:1112,_RNCNvNtNtCscyF6it41FpO_13ettlex_engine8commands12engine_query18apply_engine_querysl_0B7_
FN:1155,_RNCNvNtNtCscyF6it41FpO_13ettlex_engine8commands12engine_query18apply_engine_querysm_0B7_
FN:1184,_RNCNvNtNtCscyF6it41FpO_13ettlex_engine8commands12engine_query18apply_engine_querysn_0B7_
FN:1216,_RNCNvNtNtCscyF6it41FpO_13ettlex_engine8commands12engine_query18apply_engine_queryso_0B7_
FN:1275,_RNCNvNtNtCscyF6it41FpO_13ettlex_engine8commands12engine_query18apply_engine_querysp_0B7_
FN:1327,_RNCNvNtNtCscyF6it41FpO_13ettlex_engine8commands12engine_query18apply_engine_querysq_0B7_
FN:1387,_RNCNvNtNtCscyF6it41FpO_13ettlex_engine8commands12engine_query18apply_engine_querysr_0B7_
FN:1411,_RNCNvNtNtCscyF6it41FpO_13ettlex_engine8commands12engine_query18apply_engine_queryss_0B7_
FN:1441,_RNCNvNtNtCscyF6it41FpO_13ettlex_engine8commands12engine_query18apply_engine_queryst_0B7_
FN:1472,_RNCNvNtNtCscyF6it41FpO_13ettlex_engine8commands12engine_query18apply_engine_querysu_0B7_
FN:1515,_RNCNvNtNtCscyF6it41FpO_13ettlex_engine8commands12engine_query18apply_engine_querysv_0B7_
FN:1553,_RNCNvNtNtCscyF6it41FpO_13ettlex_engine8commands12engine_query18apply_engine_querysw_0B7_
FN:1600,_RNCNvNtNtCscyF6it41FpO_13ettlex_engine8commands12engine_query24resolve_ambiguity_policy0B7_
FN:314,_RNvNtNtCscyF6it41FpO_13ettlex_engine8commands12engine_query10sha256_hex
FN:278,_RNvNtNtCscyF6it41FpO_13ettlex_engine8commands12engine_query11resolve_ref
FN:338,_RNvNtNtCscyF6it41FpO_13ettlex_engine8commands12engine_query18apply_engine_query
FN:288,_RNvNtNtCscyF6it41FpO_13ettlex_engine8commands12engine_query22snapshot_row_to_result
FN:1588,_RNvNtNtCscyF6it41FpO_13ettlex_engine8commands12engine_query24resolve_ambiguity_policy
FN:302,_RNvNtNtCscyF6it41FpO_13ettlex_engine8commands12engine_query25approval_row_to_list_item
FNDA:0,_RNCNCNCNvNtNtCs5ZhMRgWBkZV_13ettlex_engine8commands12engine_query18apply_engine_querysb_000Bb_
FNDA:0,_RNCNCNCNvNtNtCs5ZhMRgWBkZV_13ettlex_engine8commands12engine_query18apply_engine_querysp_000Bb_
FNDA:0,_RNCNCNvNtNtCs5ZhMRgWBkZV_13ettlex_engine8commands12engine_query18apply_engine_querys0_00B9_
FNDA:8,_RNCNCNvNtNtCs5ZhMRgWBkZV_13ettlex_engine8commands12engine_query18apply_engine_querys0_0s_0B9_
FNDA:7,_RNCNCNvNtNtCs5ZhMRgWBkZV_13ettlex_engine8commands12engine_query18apply_engine_querys1_00B9_
FNDA:0,_RNCNCNvNtNtCs5ZhMRgWBkZV_13ettlex_engine8commands12engine_query18apply_engine_querys3_00B9_
FNDA:4,_RNCNCNvNtNtCs5ZhMRgWBkZV_13ettlex_engine8commands12engine_query18apply_engine_querys7_00B9_
FNDA:1,_RNCNCNvNtNtCs5ZhMRgWBkZV_13ettlex_engine8commands12engine_query18apply_engine_querys7_0s_0B9_
FNDA:0,_RNCNCNvNtNtCs5ZhMRgWBkZV_13ettlex_engine8commands12engine_query18apply_engine_querys8_00B9_
FNDA:1,_RNCNCNvNtNtCs5ZhMRgWBkZV_13ettlex_engine8commands12engine_query18apply_engine_querys_00B9_
FNDA:1,_RNCNCNvNtNtCs5ZhMRgWBkZV_13ettlex_engine8commands12engine_query18apply_engine_querys_0s0_0B9_
FNDA:0,_RNCNCNvNtNtCs5ZhMRgWBkZV_13ettlex_engine8commands12engine_query18apply_engine_querys_0s1_0B9_
FNDA:0,_RNCNCNvNtNtCs5ZhMRgWBkZV_13ettlex_engine8commands12engine_query18apply_engine_querys_0s_0B9_
FNDA:0,_RNCNCNvNtNtCs5ZhMRgWBkZV_13ettlex_engine8commands12engine_query18apply_engine_querysa_00B9_
FNDA:0,_RNCNCNvNtNtCs5ZhMRgWBkZV_13ettlex_engine8commands12engine_query18apply_engine_querysb_00B9_
FNDA:0,_RNCNCNvNtNtCs5ZhMRgWBkZV_13ettlex_engine8commands12engine_query18apply_engine_querysb_0s0_0B9_
FNDA:0,_RNCNCNvNtNtCs5ZhMRgWBkZV_13ettlex_engine8commands12engine_query18apply_engine_querysb_0s_0B9_
FNDA:0,_RNCNCNvNtNtCs5ZhMRgWBkZV_13ettlex_engine8commands12engine_query18apply_engine_querysd_00B9_
FNDA:0,_RNCNCNvNtNtCs5ZhMRgWBkZV_13ettlex_engine8commands12engine_query18apply_engine_querysd_0s1_0B9_
FNDA:0,_RNCNCNvNtNtCs5ZhMRgWBkZV_13ettlex_engine8commands12engine_query18apply_engine_queryse_00B9_
FNDA:0,_RNCNCNvNtNtCs5ZhMRgWBkZV_13ettlex_engine8commands12engine_query18apply_engine_queryse_0s0_0B9_
FNDA:0,_RNCNCNvNtNtCs5ZhMRgWBkZV_13ettlex_engine8commands12engine_query18apply_engine_queryse_0s_0B9_
FNDA:0,_RNCNCNvNtNtCs5ZhMRgWBkZV_13ettlex_engine8commands12engine_query18apply_engine_querysi_00B9_
FNDA:0,_RNCNCNvNtNtCs5ZhMRgWBkZV_13ettlex_engine8commands12engine_query18apply_engine_querysi_0s_0B9_
FNDA:0,_RNCNCNvNtNtCs5ZhMRgWBkZV_13ettlex_engine8commands12engine_query18apply_engine_querysj_00B9_
FNDA:0,_RNCNCNvNtNtCs5ZhMRgWBkZV_13ettlex_engine8commands12engine_query18apply_engine_querysj_0s_0B9_
FNDA:0,_RNCNCNvNtNtCs5ZhMRgWBkZV_13ettlex_engine8commands12engine_query18apply_engine_querysl_00B9_
FNDA:107,_RNCNCNvNtNtCs5ZhMRgWBkZV_13ettlex_engine8commands12engine_query18apply_engine_querysn_00B9_
FNDA:3,_RNCNCNvNtNtCs5ZhMRgWBkZV_13ettlex_engine8commands12engine_query18apply_engine_querysn_0s_0B9_
FNDA:2,_RNCNCNvNtNtCs5ZhMRgWBkZV_13ettlex_engine8commands12engine_query18apply_engine_queryso_00B9_
FNDA:1,_RNCNCNvNtNtCs5ZhMRgWBkZV_13ettlex_engine8commands12engine_query18apply_engine_queryso_0s0_0B9_
FNDA:0,_RNCNCNvNtNtCs5ZhMRgWBkZV_13ettlex_engine8commands12engine_query18apply_engine_queryso_0s1_0B9_
FNDA:0,_RNCNCNvNtNtCs5ZhMRgWBkZV_13ettlex_engine8commands12engine_query18apply_engine_queryso_0s_0B9_
FNDA:0,_RNCNCNvNtNtCs5ZhMRgWBkZV_13ettlex_engine8commands12engine_query18apply_engine_querysp_00B9_
FNDA:0,_RNCNCNvNtNtCs5ZhMRgWBkZV_13ettlex_engine8commands12engine_query18apply_engine_querysp_0s0_0B9_
FNDA:0,_RNCNCNvNtNtCs5ZhMRgWBkZV_13ettlex_engine8commands12engine_query18apply_engine_querysp_0s_0B9_
FNDA:9,_RNCNCNvNtNtCs5ZhMRgWBkZV_13ettlex_engine8commands12engine_query18apply_engine_querysq_00B9_
FNDA:0,_RNCNCNvNtNtCs5ZhMRgWBkZV_13ettlex_engine8commands12engine_query18apply_engine_querysr_00B9_
FNDA:0,_RNCNCNvNtNtCs5ZhMRgWBkZV_13ettlex_engine8commands12engine_query18apply_engine_queryss_00B9_
FNDA:0,_RNCNCNvNtNtCs5ZhMRgWBkZV_13ettlex_engine8commands12engine_query18apply_engine_queryst_00B9_
FNDA:0,_RNCNCNvNtNtCs5ZhMRgWBkZV_13ettlex_engine8commands12engine_query18apply_engine_querysu_00B9_
FNDA:1,_RNCNCNvNtNtCs5ZhMRgWBkZV_13ettlex_engine8commands12engine_query18apply_engine_querysu_0s_0B9_
FNDA:0,_RNCNCNvNtNtCs5ZhMRgWBkZV_13ettlex_engine8commands12engine_query18apply_engine_querysv_00B9_
FNDA:0,_RNCNCNvNtNtCs5ZhMRgWBkZV_13ettlex_engine8commands12engine_query18apply_engine_querysv_0s0_0B9_
FNDA:1,_RNCNCNvNtNtCs5ZhMRgWBkZV_13ettlex_engine8commands12engine_query18apply_engine_querysv_0s_0B9_
FNDA:2,_RNCNCNvNtNtCs5ZhMRgWBkZV_13ettlex_engine8commands12engine_query18apply_engine_querysw_00B9_
FNDA:0,_RNCNCNvNtNtCs5ZhMRgWBkZV_13ettlex_engine8commands12engine_query18apply_engine_querysw_0s_0B9_
FNDA:9,_RNCNvNtNtCs5ZhMRgWBkZV_13ettlex_engine8commands12engine_query18apply_engine_query0B7_
FNDA:7,_RNCNvNtNtCs5ZhMRgWBkZV_13ettlex_engine8commands12engine_query18apply_engine_querys0_0B7_
FNDA:11,_RNCNvNtNtCs5ZhMRgWBkZV_13ettlex_engine8commands12engine_query18apply_engine_querys1_0B7_
FNDA:1,_RNCNvNtNtCs5ZhMRgWBkZV_13ettlex_engine8commands12engine_query18apply_engine_querys2_0B7_
FNDA:2,_RNCNvNtNtCs5ZhMRgWBkZV_13ettlex_engine8commands12engine_query18apply_engine_querys3_0B7_
FNDA:1,_RNCNvNtNtCs5ZhMRgWBkZV_13ettlex_engine8commands12engine_query18apply_engine_querys4_0B7_
FNDA:2,_RNCNvNtNtCs5ZhMRgWBkZV_13ettlex_engine8commands12engine_query18apply_engine_querys5_0B7_
FNDA:1,_RNCNvNtNtCs5ZhMRgWBkZV_13ettlex_engine8commands12engine_query18apply_engine_querys6_0B7_
FNDA:2,_RNCNvNtNtCs5ZhMRgWBkZV_13ettlex_engine8commands12engine_query18apply_engine_querys7_0B7_
FNDA:0,_RNCNvNtNtCs5ZhMRgWBkZV_13ettlex_engine8commands12engine_query18apply_engine_querys8_0B7_
FNDA:2,_RNCNvNtNtCs5ZhMRgWBkZV_13ettlex_engine8commands12engine_query18apply_engine_querys9_0B7_
FNDA:1,_RNCNvNtNtCs5ZhMRgWBkZV_13ettlex_engine8commands12engine_query18apply_engine_querys_0B7_
FNDA:1,_RNCNvNtNtCs5ZhMRgWBkZV_13ettlex_engine8commands12engine_query18apply_engine_querysa_0B7_
FNDA:3,_RNCNvNtNtCs5ZhMRgWBkZV_13ettlex_engine8commands12engine_query18apply_engine_querysb_0B7_
FNDA:0,_RNCNvNtNtCs5ZhMRgWBkZV_13ettlex_engine8commands12engine_query18apply_engine_querysc_0B7_
FNDA:0,_RNCNvNtNtCs5ZhMRgWBkZV_13ettlex_engine8commands12engine_query18apply_engine_querysd_0B7_
FNDA:1,_RNCNvNtNtCs5ZhMRgWBkZV_13ettlex_engine8commands12engine_query18apply_engine_queryse_0B7_
FNDA:0,_RNCNvNtNtCs5ZhMRgWBkZV_13ettlex_engine8commands12engine_query18apply_engine_querysf_0B7_
FNDA:2,_RNCNvNtNtCs5ZhMRgWBkZV_13ettlex_engine8commands12engine_query18apply_engine_querysg_0B7_
FNDA:2,_RNCNvNtNtCs5ZhMRgWBkZV_13ettlex_engine8commands12engine_query18apply_engine_querysh_0B7_
FNDA:1,_RNCNvNtNtCs5ZhMRgWBkZV_13ettlex_engine8commands12engine_query18apply_engine_querysi_0B7_
FNDA:2,_RNCNvNtNtCs5ZhMRgWBkZV_13ettlex_engine8commands12engine_query18apply_engine_querysj_0B7_
FNDA:6,_RNCNvNtNtCs5ZhMRgWBkZV_13ettlex_engine8commands12engine_query18apply_engine_querysk_0B7_
FNDA:2,_RNCNvNtNtCs5ZhMRgWBkZV_13ettlex_engine8commands12engine_query18apply_engine_querysl_0B7_
FNDA:1,_RNCNvNtNtCs5ZhMRgWBkZV_13ettlex_engine8commands12engine_query18apply_engine_querysm_0B7_
FNDA:4,_RNCNvNtNtCs5ZhMRgWBkZV_13ettlex_engine8commands12engine_query18apply_engine_querysn_0B7_
FNDA:4,_RNCNvNtNtCs5ZhMRgWBkZV_13ettlex_engine8commands12engine_query18apply_engine_queryso_0B7_
FNDA:1,_RNCNvNtNtCs5ZhMRgWBkZV_13ettlex_engine8commands12engine_query18apply_engine_querysp_0B7_
FNDA:10,_RNCNvNtNtCs5ZhMRgWBkZV_13ettlex_engine8commands12engine_query18apply_engine_querysq_0B7_
FNDA:3,_RNCNvNtNtCs5ZhMRgWBkZV_13ettlex_engine8commands12engine_query18apply_engine_querysr_0B7_
FNDA:3,_RNCNvNtNtCs5ZhMRgWBkZV_13ettlex_engine8commands12engine_query18apply_engine_queryss_0B7_
FNDA:0,_RNCNvNtNtCs5ZhMRgWBkZV_13ettlex_engine8commands12engine_query18apply_engine_queryst_0B7_
FNDA:7,_RNCNvNtNtCs5ZhMRgWBkZV_13ettlex_engine8commands12engine_query18apply_engine_querysu_0B7_
FNDA:1,_RNCNvNtNtCs5ZhMRgWBkZV_13ettlex_engine8commands12engine_query18apply_engine_querysv_0B7_
FNDA:2,_RNCNvNtNtCs5ZhMRgWBkZV_13ettlex_engine8commands12engine_query18apply_engine_querysw_0B7_
FNDA:0,_RNCNvNtNtCs5ZhMRgWBkZV_13ettlex_engine8commands12engine_query24resolve_ambiguity_policy0B7_
FNDA:2,_RNvNtNtCs5ZhMRgWBkZV_13ettlex_engine8commands12engine_query10sha256_hex
FNDA:14,_RNvNtNtCs5ZhMRgWBkZV_13ettlex_engine8commands12engine_query11resolve_ref
FNDA:95,_RNvNtNtCs5ZhMRgWBkZV_13ettlex_engine8commands12engine_query18apply_engine_query
FNDA:1,_RNvNtNtCs5ZhMRgWBkZV_13ettlex_engine8commands12engine_query22snapshot_row_to_result
FNDA:10,_RNvNtNtCs5ZhMRgWBkZV_13ettlex_engine8commands12engine_query24resolve_ambiguity_policy
FNDA:3,_RNvNtNtCs5ZhMRgWBkZV_13ettlex_engine8commands12engine_query25approval_row_to_list_item
FNDA:0,_RNCNCNCNvNtNtCscyF6it41FpO_13ettlex_engine8commands12engine_query18apply_engine_querysb_000Bb_
FNDA:0,_RNCNCNCNvNtNtCscyF6it41FpO_13ettlex_engine8commands12engine_query18apply_engine_querysp_000Bb_
FNDA:0,_RNCNCNvNtNtCscyF6it41FpO_13ettlex_engine8commands12engine_query18apply_engine_querys0_00B9_
FNDA:0,_RNCNCNvNtNtCscyF6it41FpO_13ettlex_engine8commands12engine_query18apply_engine_querys0_0s_0B9_
FNDA:0,_RNCNCNvNtNtCscyF6it41FpO_13ettlex_engine8commands12engine_query18apply_engine_querys1_00B9_
FNDA:0,_RNCNCNvNtNtCscyF6it41FpO_13ettlex_engine8commands12engine_query18apply_engine_querys3_00B9_
FNDA:0,_RNCNCNvNtNtCscyF6it41FpO_13ettlex_engine8commands12engine_query18apply_engine_querys7_00B9_
FNDA:0,_RNCNCNvNtNtCscyF6it41FpO_13ettlex_engine8commands12engine_query18apply_engine_querys7_0s_0B9_
FNDA:0,_RNCNCNvNtNtCscyF6it41FpO_13ettlex_engine8commands12engine_query18apply_engine_querys8_00B9_
FNDA:0,_RNCNCNvNtNtCscyF6it41FpO_13ettlex_engine8commands12engine_query18apply_engine_querys_00B9_
FNDA:0,_RNCNCNvNtNtCscyF6it41FpO_13ettlex_engine8commands12engine_query18apply_engine_querys_0s0_0B9_
FNDA:0,_RNCNCNvNtNtCscyF6it41FpO_13ettlex_engine8commands12engine_query18apply_engine_querys_0s1_0B9_
FNDA:0,_RNCNCNvNtNtCscyF6it41FpO_13ettlex_engine8commands12engine_query18apply_engine_querys_0s_0B9_
FNDA:0,_RNCNCNvNtNtCscyF6it41FpO_13ettlex_engine8commands12engine_query18apply_engine_querysa_00B9_
FNDA:0,_RNCNCNvNtNtCscyF6it41FpO_13ettlex_engine8commands12engine_query18apply_engine_querysb_00B9_
FNDA:0,_RNCNCNvNtNtCscyF6it41FpO_13ettlex_engine8commands12engine_query18apply_engine_querysb_0s0_0B9_
FNDA:0,_RNCNCNvNtNtCscyF6it41FpO_13ettlex_engine8commands12engine_query18apply_engine_querysb_0s_0B9_
FNDA:0,_RNCNCNvNtNtCscyF6it41FpO_13ettlex_engine8commands12engine_query18apply_engine_querysd_00B9_
FNDA:0,_RNCNCNvNtNtCscyF6it41FpO_13ettlex_engine8commands12engine_query18apply_engine_querysd_0s1_0B9_
FNDA:0,_RNCNCNvNtNtCscyF6it41FpO_13ettlex_engine8commands12engine_query18apply_engine_queryse_00B9_
FNDA:0,_RNCNCNvNtNtCscyF6it41FpO_13ettlex_engine8commands12engine_query18apply_engine_queryse_0s0_0B9_
FNDA:0,_RNCNCNvNtNtCscyF6it41FpO_13ettlex_engine8commands12engine_query18apply_engine_queryse_0s_0B9_
FNDA:0,_RNCNCNvNtNtCscyF6it41FpO_13ettlex_engine8commands12engine_query18apply_engine_querysi_00B9_
FNDA:0,_RNCNCNvNtNtCscyF6it41FpO_13ettlex_engine8commands12engine_query18apply_engine_querysi_0s_0B9_
FNDA:0,_RNCNCNvNtNtCscyF6it41FpO_13ettlex_engine8commands12engine_query18apply_engine_querysj_00B9_
FNDA:0,_RNCNCNvNtNtCscyF6it41FpO_13ettlex_engine8commands12engine_query18apply_engine_querysj_0s_0B9_
FNDA:0,_RNCNCNvNtNtCscyF6it41FpO_13ettlex_engine8commands12engine_query18apply_engine_querysl_00B9_
FNDA:0,_RNCNCNvNtNtCscyF6it41FpO_13ettlex_engine8commands12engine_query18apply_engine_querysn_00B9_
FNDA:0,_RNCNCNvNtNtCscyF6it41FpO_13ettlex_engine8commands12engine_query18apply_engine_querysn_0s_0B9_
FNDA:0,_RNCNCNvNtNtCscyF6it41FpO_13ettlex_engine8commands12engine_query18apply_engine_queryso_00B9_
FNDA:0,_RNCNCNvNtNtCscyF6it41FpO_13ettlex_engine8commands12engine_query18apply_engine_queryso_0s0_0B9_
FNDA:0,_RNCNCNvNtNtCscyF6it41FpO_13ettlex_engine8commands12engine_query18apply_engine_queryso_0s1_0B9_
FNDA:0,_RNCNCNvNtNtCscyF6it41FpO_13ettlex_engine8commands12engine_query18apply_engine_queryso_0s_0B9_
FNDA:0,_RNCNCNvNtNtCscyF6it41FpO_13ettlex_engine8commands12engine_query18apply_engine_querysp_00B9_
FNDA:0,_RNCNCNvNtNtCscyF6it41FpO_13ettlex_engine8commands12engine_query18apply_engine_querysp_0s0_0B9_
FNDA:0,_RNCNCNvNtNtCscyF6it41FpO_13ettlex_engine8commands12engine_query18apply_engine_querysp_0s_0B9_
FNDA:0,_RNCNCNvNtNtCscyF6it41FpO_13ettlex_engine8commands12engine_query18apply_engine_querysq_00B9_
FNDA:0,_RNCNCNvNtNtCscyF6it41FpO_13ettlex_engine8commands12engine_query18apply_engine_querysr_00B9_
FNDA:0,_RNCNCNvNtNtCscyF6it41FpO_13ettlex_engine8commands12engine_query18apply_engine_queryss_00B9_
FNDA:0,_RNCNCNvNtNtCscyF6it41FpO_13ettlex_engine8commands12engine_query18apply_engine_queryst_00B9_
FNDA:0,_RNCNCNvNtNtCscyF6it41FpO_13ettlex_engine8commands12engine_query18apply_engine_querysu_00B9_
FNDA:0,_RNCNCNvNtNtCscyF6it41FpO_13ettlex_engine8commands12engine_query18apply_engine_querysu_0s_0B9_
FNDA:0,_RNCNCNvNtNtCscyF6it41FpO_13ettlex_engine8commands12engine_query18apply_engine_querysv_00B9_
FNDA:0,_RNCNCNvNtNtCscyF6it41FpO_13ettlex_engine8commands12engine_query18apply_engine_querysv_0s0_0B9_
FNDA:0,_RNCNCNvNtNtCscyF6it41FpO_13ettlex_engine8commands12engine_query18apply_engine_querysv_0s_0B9_
FNDA:0,_RNCNCNvNtNtCscyF6it41FpO_13ettlex_engine8commands12engine_query18apply_engine_querysw_00B9_
FNDA:0,_RNCNCNvNtNtCscyF6it41FpO_13ettlex_engine8commands12engine_query18apply_engine_querysw_0s_0B9_
FNDA:0,_RNCNvNtNtCscyF6it41FpO_13ettlex_engine8commands12engine_query18apply_engine_query0B7_
FNDA:0,_RNCNvNtNtCscyF6it41FpO_13ettlex_engine8commands12engine_query18apply_engine_querys0_0B7_
FNDA:0,_RNCNvNtNtCscyF6it41FpO_13ettlex_engine8commands12engine_query18apply_engine_querys1_0B7_
FNDA:0,_RNCNvNtNtCscyF6it41FpO_13ettlex_engine8commands12engine_query18apply_engine_querys2_0B7_
FNDA:0,_RNCNvNtNtCscyF6it41FpO_13ettlex_engine8commands12engine_query18apply_engine_querys3_0B7_
FNDA:0,_RNCNvNtNtCscyF6it41FpO_13ettlex_engine8commands12engine_query18apply_engine_querys4_0B7_
FNDA:0,_RNCNvNtNtCscyF6it41FpO_13ettlex_engine8commands12engine_query18apply_engine_querys5_0B7_
FNDA:0,_RNCNvNtNtCscyF6it41FpO_13ettlex_engine8commands12engine_query18apply_engine_querys6_0B7_
FNDA:0,_RNCNvNtNtCscyF6it41FpO_13ettlex_engine8commands12engine_query18apply_engine_querys7_0B7_
FNDA:0,_RNCNvNtNtCscyF6it41FpO_13ettlex_engine8commands12engine_query18apply_engine_querys8_0B7_
FNDA:0,_RNCNvNtNtCscyF6it41FpO_13ettlex_engine8commands12engine_query18apply_engine_querys9_0B7_
FNDA:0,_RNCNvNtNtCscyF6it41FpO_13ettlex_engine8commands12engine_query18apply_engine_querys_0B7_
FNDA:0,_RNCNvNtNtCscyF6it41FpO_13ettlex_engine8commands12engine_query18apply_engine_querysa_0B7_
FNDA:0,_RNCNvNtNtCscyF6it41FpO_13ettlex_engine8commands12engine_query18apply_engine_querysb_0B7_
FNDA:0,_RNCNvNtNtCscyF6it41FpO_13ettlex_engine8commands12engine_query18apply_engine_querysc_0B7_
FNDA:0,_RNCNvNtNtCscyF6it41FpO_13ettlex_engine8commands12engine_query18apply_engine_querysd_0B7_
FNDA:0,_RNCNvNtNtCscyF6it41FpO_13ettlex_engine8commands12engine_query18apply_engine_queryse_0B7_
FNDA:0,_RNCNvNtNtCscyF6it41FpO_13ettlex_engine8commands12engine_query18apply_engine_querysf_0B7_
FNDA:0,_RNCNvNtNtCscyF6it41FpO_13ettlex_engine8commands12engine_query18apply_engine_querysg_0B7_
FNDA:0,_RNCNvNtNtCscyF6it41FpO_13ettlex_engine8commands12engine_query18apply_engine_querysh_0B7_
FNDA:0,_RNCNvNtNtCscyF6it41FpO_13ettlex_engine8commands12engine_query18apply_engine_querysi_0B7_
FNDA:0,_RNCNvNtNtCscyF6it41FpO_13ettlex_engine8commands12engine_query18apply_engine_querysj_0B7_
FNDA:0,_RNCNvNtNtCscyF6it41FpO_13ettlex_engine8commands12engine_query18apply_engine_querysk_0B7_
FNDA:0,_RNCNvNtNtCscyF6it41FpO_13ettlex_engine8commands12engine_query18apply_engine_querysl_0B7_
FNDA:0,_RNCNvNtNtCscyF6it41FpO_13ettlex_engine8commands12engine_query18apply_engine_querysm_0B7_
FNDA:0,_RNCNvNtNtCscyF6it41FpO_13ettlex_engine8commands12engine_query18apply_engine_querysn_0B7_
FNDA:0,_RNCNvNtNtCscyF6it41FpO_13ettlex_engine8commands12engine_query18apply_engine_queryso_0B7_
FNDA:0,_RNCNvNtNtCscyF6it41FpO_13ettlex_engine8commands12engine_query18apply_engine_querysp_0B7_
FNDA:0,_RNCNvNtNtCscyF6it41FpO_13ettlex_engine8commands12engine_query18apply_engine_querysq_0B7_
FNDA:0,_RNCNvNtNtCscyF6it41FpO_13ettlex_engine8commands12engine_query18apply_engine_querysr_0B7_
FNDA:0,_RNCNvNtNtCscyF6it41FpO_13ettlex_engine8commands12engine_query18apply_engine_queryss_0B7_
FNDA:0,_RNCNvNtNtCscyF6it41FpO_13ettlex_engine8commands12engine_query18apply_engine_queryst_0B7_
FNDA:0,_RNCNvNtNtCscyF6it41FpO_13ettlex_engine8commands12engine_query18apply_engine_querysu_0B7_
FNDA:0,_RNCNvNtNtCscyF6it41FpO_13ettlex_engine8commands12engine_query18apply_engine_querysv_0B7_
FNDA:0,_RNCNvNtNtCscyF6it41FpO_13ettlex_engine8commands12engine_query18apply_engine_querysw_0B7_
FNDA:0,_RNCNvNtNtCscyF6it41FpO_13ettlex_engine8commands12engine_query24resolve_ambiguity_policy0B7_
FNDA:0,_RNvNtNtCscyF6it41FpO_13ettlex_engine8commands12engine_query10sha256_hex
FNDA:0,_RNvNtNtCscyF6it41FpO_13ettlex_engine8commands12engine_query11resolve_ref
FNDA:0,_RNvNtNtCscyF6it41FpO_13ettlex_engine8commands12engine_query18apply_engine_query
FNDA:0,_RNvNtNtCscyF6it41FpO_13ettlex_engine8commands12engine_query22snapshot_row_to_result
FNDA:0,_RNvNtNtCscyF6it41FpO_13ettlex_engine8commands12engine_query24resolve_ambiguity_policy
FNDA:0,_RNvNtNtCscyF6it41FpO_13ettlex_engine8commands12engine_query25approval_row_to_list_item
FNF:89
FNH:50
DA:278,14
DA:279,14
DA:280,11
DA:281,11
DA:282,9
DA:284,3
DA:286,14
DA:288,1
DA:289,1
DA:290,1
DA:291,1
DA:292,1
DA:293,1
DA:294,1
DA:295,1
DA:296,1
DA:297,1
DA:298,1
DA:299,1
DA:300,1
DA:302,3
DA:303,3
DA:304,3
DA:305,3
DA:306,3
DA:307,3
DA:308,3
DA:309,3
DA:310,3
DA:311,3
DA:314,2
DA:316,2
DA:317,2
DA:318,2
DA:319,2
DA:338,95
DA:339,95
DA:340,95
DA:341,95
DA:342,95
DA:343,95
DA:344,95
DA:346,9
DA:347,9
DA:348,9
DA:350,9
DA:351,9
DA:352,5
DA:354,5
DA:355,4
DA:357,4
DA:358,4
DA:359,4
DA:360,4
DA:361,4
DA:362,4
DA:365,9
DA:366,9
DA:367,4
DA:368,5
DA:369,5
DA:370,5
DA:373,9
DA:378,1
DA:379,1
DA:381,1
DA:382,1
DA:383,1
DA:384,1
DA:385,0
DA:386,0
DA:387,0
DA:388,0
DA:390,1
DA:391,1
DA:392,1
DA:393,1
DA:394,1
DA:395,1
DA:397,1
DA:398,1
DA:399,0
DA:400,0
DA:401,0
DA:402,0
DA:404,1
DA:405,1
DA:406,1
DA:407,1
DA:410,1
DA:411,1
DA:412,1
DA:413,0
DA:414,0
DA:415,0
DA:418,1
DA:422,7
DA:423,7
DA:424,7
DA:426,7
DA:427,7
DA:428,0
DA:429,0
DA:430,0
DA:431,0
DA:432,0
DA:433,7
DA:434,8
DA:435,7
DA:436,7
DA:437,7
DA:438,7
DA:441,7
DA:442,7
DA:443,7
DA:444,0
DA:445,0
DA:446,0
DA:449,7
DA:453,11
DA:454,11
DA:455,11
DA:457,11
DA:458,11
DA:459,11
DA:460,11
DA:461,11
DA:462,11
DA:463,11
DA:464,11
DA:465,0
DA:467,11
DA:468,11
DA:469,11
DA:472,11
DA:473,11
DA:474,11
DA:475,0
DA:476,0
DA:477,0
DA:480,11
DA:484,1
DA:485,1
DA:486,1
DA:487,1
DA:488,1
DA:489,1
DA:491,1
DA:492,1
DA:493,1
DA:494,0
DA:495,0
DA:496,0
DA:499,1
DA:503,2
DA:504,2
DA:505,2
DA:506,2
DA:507,2
DA:508,0
DA:509,0
DA:510,0
DA:511,0
DA:512,0
DA:513,2
DA:515,2
DA:516,2
DA:517,2
DA:518,0
DA:519,0
DA:520,0
DA:523,2
DA:527,1
DA:528,1
DA:529,1
DA:530,1
DA:531,1
DA:532,1
DA:534,1
DA:535,1
DA:536,1
DA:537,0
DA:538,0
DA:539,0
DA:542,1
DA:546,2
DA:547,2
DA:548,2
DA:549,2
DA:550,2
DA:551,1
DA:553,2
DA:554,2
DA:555,1
DA:556,1
DA:557,1
DA:558,1
DA:561,2
DA:565,1
DA:566,1
DA:567,1
DA:568,1
DA:569,1
DA:570,1
DA:572,1
DA:573,1
DA:574,1
DA:575,0
DA:576,0
DA:577,0
DA:580,1
DA:585,2
DA:586,2
DA:588,2
DA:589,2
DA:590,2
DA:591,2
DA:592,2
DA:594,2
DA:597,4
DA:598,4
DA:599,3
DA:600,3
DA:601,3
DA:603,4
DA:606,2
DA:607,2
DA:609,2
DA:612,1
DA:613,1
DA:615,2
DA:616,2
DA:617,0
DA:618,2
DA:620,2
DA:621,2
DA:622,2
DA:623,2
DA:625,0
DA:626,2
DA:628,2
DA:629,1
DA:630,1
DA:631,1
DA:632,1
DA:637,0
DA:638,1
DA:640,2
DA:641,1
DA:642,1
DA:643,1
DA:644,1
DA:645,2
DA:647,2
DA:648,2
DA:649,2
DA:650,0
DA:651,0
DA:652,0
DA:655,2
DA:659,0
DA:660,0
DA:661,0
DA:662,0
DA:663,0
DA:664,0
DA:665,0
DA:666,0
DA:667,0
DA:668,0
DA:669,0
DA:671,0
DA:672,0
DA:673,0
DA:674,0
DA:675,0
DA:676,0
DA:679,0
DA:684,2
DA:685,2
DA:687,2
DA:688,2
DA:689,2
DA:690,2
DA:691,2
DA:693,2
DA:694,2
DA:695,2
DA:696,0
DA:697,0
DA:698,0
DA:701,2
DA:705,1
DA:706,1
DA:707,1
DA:708,1
DA:709,1
DA:710,0
DA:711,0
DA:712,0
DA:713,0
DA:714,0
DA:715,1
DA:717,1
DA:718,1
DA:719,1
DA:720,0
DA:721,0
DA:722,0
DA:725,1
DA:729,3
DA:730,3
DA:731,3
DA:732,3
DA:733,3
DA:734,3
DA:736,0
DA:737,0
DA:738,0
DA:739,0
DA:740,0
DA:741,0
DA:743,0
DA:745,0
DA:746,3
DA:747,3
DA:748,3
DA:749,3
DA:750,0
DA:751,3
DA:752,0
DA:753,0
DA:754,3
DA:756,3
DA:757,3
DA:758,3
DA:759,0
DA:760,0
DA:761,0
DA:764,3
DA:769,0
DA:770,0
DA:771,0
DA:773,0
DA:774,0
DA:775,0
DA:776,0
DA:777,0
DA:778,0
DA:779,0
DA:780,0
DA:781,0
DA:782,0
DA:784,0
DA:785,0
DA:786,0
DA:787,0
DA:788,0
DA:789,0
DA:792,0
DA:797,0
DA:798,0
DA:799,0
DA:801,0
DA:802,0
DA:803,0
DA:804,0
DA:805,0
DA:807,0
DA:808,0
DA:809,0
DA:810,0
DA:811,0
DA:813,0
DA:816,0
DA:817,0
DA:818,0
DA:820,0
DA:821,0
DA:822,0
DA:823,0
DA:824,0
DA:825,0
DA:827,0
DA:829,0
DA:831,0
DA:832,0
DA:833,0
DA:834,0
DA:835,0
DA:836,0
DA:837,0
DA:838,0
DA:840,0
DA:842,0
DA:843,0
DA:844,0
DA:845,0
DA:846,0
DA:847,0
DA:849,0
DA:850,0
DA:851,0
DA:852,0
DA:853,0
DA:854,0
DA:857,0
DA:861,1
DA:862,1
DA:863,1
DA:864,1
DA:866,1
DA:867,0
DA:868,0
DA:869,0
DA:870,0
DA:871,0
DA:873,1
DA:874,1
DA:875,0
DA:876,0
DA:877,0
DA:879,1
DA:880,1
DA:881,1
DA:882,1
DA:884,3
DA:885,3
DA:886,3
DA:887,2
DA:888,1
DA:889,1
DA:891,3
DA:894,1
DA:895,0
DA:896,0
DA:897,0
DA:898,0
DA:900,1
DA:901,1
DA:902,1
DA:903,1
DA:904,1
DA:905,1
DA:907,1
DA:908,1
DA:909,1
DA:910,0
DA:911,0
DA:912,0
DA:914,0
DA:919,1
DA:923,0
DA:924,0
DA:925,0
DA:926,0
DA:927,0
DA:928,0
DA:930,0
DA:931,0
DA:932,0
DA:933,0
DA:934,0
DA:935,0
DA:938,0
DA:942,2
DA:943,2
DA:944,2
DA:945,2
DA:946,2
DA:947,2
DA:948,2
DA:950,2
DA:951,2
DA:952,2
DA:953,0
DA:954,0
DA:955,0
DA:958,2
DA:962,2
DA:963,2
DA:964,2
DA:965,2
DA:966,2
DA:967,2
DA:968,2
DA:969,2
DA:970,2
DA:971,2
DA:972,2
DA:973,2
DA:975,2
DA:976,2
DA:977,2
DA:978,0
DA:979,0
DA:980,0
DA:983,2
DA:987,1
DA:988,1
DA:989,1
DA:990,1
DA:992,1
DA:993,1
DA:994,1
DA:995,1
DA:996,1
DA:997,0
DA:999,1
DA:1000,1
DA:1001,0
DA:1002,0
DA:1003,0
DA:1004,0
DA:1006,1
DA:1009,1
DA:1010,0
DA:1011,0
DA:1012,0
DA:1013,0
DA:1014,0
DA:1015,0
DA:1017,0
DA:1018,0
DA:1019,0
DA:1020,0
DA:1021,0
DA:1022,0
DA:1023,0
DA:1024,0
DA:1028,1
DA:1029,1
DA:1030,0
DA:1031,1
DA:1032,1
DA:1033,1
DA:1036,1
DA:1040,2
DA:1041,2
DA:1042,2
DA:1043,2
DA:1044,2
DA:1045,0
DA:1046,0
DA:1047,0
DA:1048,0
DA:1049,0
DA:1051,2
DA:1052,2
DA:1053,0
DA:1054,0
DA:1055,0
DA:1058,2
DA:1059,2
DA:1061,2
DA:1062,2
DA:1063,2
DA:1064,2
DA:1065,2
DA:1067,2
DA:1068,2
DA:1069,2
DA:1070,0
DA:1071,0
DA:1072,0
DA:1075,2
DA:1079,6
DA:1080,6
DA:1081,6
DA:1082,6
DA:1083,6
DA:1084,1
DA:1085,1
DA:1086,1
DA:1087,1
DA:1088,5
DA:1089,5
DA:1090,5
DA:1091,5
DA:1092,5
DA:1093,5
DA:1097,6
DA:1098,6
DA:1099,5
DA:1100,1
DA:1101,1
DA:1102,1
DA:1105,6
DA:1109,2
DA:1110,2
DA:1111,2
DA:1112,2
DA:1113,2
DA:1114,1
DA:1116,1
DA:1119,2
DA:1121,1
DA:1122,1
DA:1123,1
DA:1124,1
DA:1126,0
DA:1127,0
DA:1128,0
DA:1131,1
DA:1132,1
DA:1133,1
DA:1134,1
DA:1135,1
DA:1136,1
DA:1140,2
DA:1141,2
DA:1142,1
DA:1143,1
DA:1144,1
DA:1145,1
DA:1148,2
DA:1153,1
DA:1154,1
DA:1155,1
DA:1156,1
DA:1157,0
DA:1158,0
DA:1159,0
DA:1160,1
DA:1161,1
DA:1162,1
DA:1163,1
DA:1164,1
DA:1165,1
DA:1169,1
DA:1170,1
DA:1171,1
DA:1172,0
DA:1173,0
DA:1174,0
DA:1177,1
DA:1181,4
DA:1182,4
DA:1183,4
DA:1184,4
DA:1185,4
DA:1186,4
DA:1187,4
DA:1188,4
DA:1189,4
DA:1190,4
DA:1191,107
DA:1192,107
DA:1193,107
DA:1194,107
DA:1195,4
DA:1196,4
DA:1197,3
DA:1198,3
DA:1199,4
DA:1201,4
DA:1202,4
DA:1203,4
DA:1204,0
DA:1205,0
DA:1206,0
DA:1209,4
DA:1213,4
DA:1214,4
DA:1215,4
DA:1216,4
DA:1217,4
DA:1218,2
DA:1219,2
DA:1220,2
DA:1221,2
DA:1222,2
DA:1224,2
DA:1225,0
DA:1226,0
DA:1227,0
DA:1228,0
DA:1229,0
DA:1231,2
DA:1232,1
DA:1233,1
DA:1234,1
DA:1235,1
DA:1236,1
DA:1241,0
DA:1243,1
DA:1245,1
DA:1246,1
DA:1247,0
DA:1248,0
DA:1249,0
DA:1250,0
DA:1251,0
DA:1253,1
DA:1254,1
DA:1255,1
DA:1256,1
DA:1257,1
DA:1258,1
DA:1260,4
DA:1261,4
DA:1262,1
DA:1263,3
DA:1264,3
DA:1265,3
DA:1268,4
DA:1272,1
DA:1273,1
DA:1274,1
DA:1275,1
DA:1276,1
DA:1277,1
DA:1278,0
DA:1279,0
DA:1280,0
DA:1281,0
DA:1282,0
DA:1283,0
DA:1285,0
DA:1287,0
DA:1288,1
DA:1289,1
DA:1290,1
DA:1291,1
DA:1292,0
DA:1293,1
DA:1294,1
DA:1295,1
DA:1296,0
DA:1297,0
DA:1298,1
DA:1300,1
DA:1301,1
DA:1302,1
DA:1303,0
DA:1304,0
DA:1305,0
DA:1308,1
DA:1315,0
DA:1316,0
DA:1317,0
DA:1321,10
DA:1323,10
DA:1325,10
DA:1326,10
DA:1327,10
DA:1329,10
DA:1332,10
DA:1333,10
DA:1334,10
DA:1335,10
DA:1336,9
DA:1337,9
DA:1338,9
DA:1339,10
DA:1341,10
DA:1343,10
DA:1344,0
DA:1346,7
DA:1347,4
DA:1349,3
DA:1352,3
DA:1354,0
DA:1356,3
DA:1360,10
DA:1361,10
DA:1362,10
DA:1363,10
DA:1364,10
DA:1365,10
DA:1366,10
DA:1368,10
DA:1369,10
DA:1370,10
DA:1371,0
DA:1372,0
DA:1373,0
DA:1375,0
DA:1380,10
DA:1385,3
DA:1386,3
DA:1387,3
DA:1388,3
DA:1389,0
DA:1390,0
DA:1391,0
DA:1392,0
DA:1393,3
DA:1394,3
DA:1396,3
DA:1397,3
DA:1398,3
DA:1399,0
DA:1400,0
DA:1401,0
DA:1404,3
DA:1408,3
DA:1409,3
DA:1410,3
DA:1411,3
DA:1412,3
DA:1413,0
DA:1414,0
DA:1415,0
DA:1416,0
DA:1417,3
DA:1418,1
DA:1419,1
DA:1420,1
DA:1421,1
DA:1423,3
DA:1424,3
DA:1425,1
DA:1426,2
DA:1427,2
DA:1428,2
DA:1431,3
DA:1436,0
DA:1437,0
DA:1439,0
DA:1440,0
DA:1441,0
DA:1442,0
DA:1443,0
DA:1444,0
DA:1445,0
DA:1446,0
DA:1447,0
DA:1448,0
DA:1449,0
DA:1450,0
DA:1451,0
DA:1452,0
DA:1454,0
DA:1455,0
DA:1456,0
DA:1457,0
DA:1458,0
DA:1459,0
DA:1462,0
DA:1467,7
DA:1468,7
DA:1470,7
DA:1471,7
DA:1472,7
DA:1473,7
DA:1474,0
DA:1475,0
DA:1476,0
DA:1477,0
DA:1480,7
DA:1481,1
DA:1482,1
DA:1483,1
DA:1484,1
DA:1485,1
DA:1486,1
DA:1487,6
DA:1489,2
DA:1490,6
DA:1492,2
DA:1493,2
DA:1494,2
DA:1495,2
DA:1496,2
DA:1497,2
DA:1498,2
DA:1500,7
DA:1501,7
DA:1502,2
DA:1503,5
DA:1504,5
DA:1505,5
DA:1508,7
DA:1512,1
DA:1513,1
DA:1514,1
DA:1515,1
DA:1516,1
DA:1517,1
DA:1518,1
DA:1519,0
DA:1520,0
DA:1521,0
DA:1522,0
DA:1523,1
DA:1524,1
DA:1525,1
DA:1526,1
DA:1527,0
DA:1528,0
DA:1529,0
DA:1530,0
DA:1531,1
DA:1532,1
DA:1534,1
DA:1535,1
DA:1536,1
DA:1537,0
DA:1538,0
DA:1539,0
DA:1541,0
DA:1546,1
DA:1550,2
DA:1551,2
DA:1552,2
DA:1553,2
DA:1554,2
DA:1555,2
DA:1556,2
DA:1557,2
DA:1558,2
DA:1559,2
DA:1560,2
DA:1562,2
DA:1563,2
DA:1564,0
DA:1565,0
DA:1566,0
DA:1567,0
DA:1568,0
DA:1569,2
DA:1571,2
DA:1572,2
DA:1573,2
DA:1574,0
DA:1575,0
DA:1576,0
DA:1579,2
DA:1582,95
DA:1588,10
DA:1589,10
DA:1590,10
DA:1591,10
DA:1594,10
DA:1595,10
DA:1596,0
DA:1597,10
DA:1598,10
DA:1599,10
DA:1600,10
DA:1601,10
DA:1602,10
DA:1605,10
BRF:0
BRH:0
LF:1044
LH:659
end_of_record
SF:/Users/nick/Development/EttleX/EttleX-Project/Rust/crates/ettlex-engine/src/commands/mcp_command.rs
FN:167,_RNCNvNtNtCs5ZhMRgWBkZV_13ettlex_engine8commands11mcp_command17apply_mcp_command0B7_
FN:192,_RNCNvNtNtCs5ZhMRgWBkZV_13ettlex_engine8commands11mcp_command17apply_mcp_commands0_0B7_
FN:198,_RNCNvNtNtCs5ZhMRgWBkZV_13ettlex_engine8commands11mcp_command17apply_mcp_commands1_0B7_
FN:168,_RNCNvNtNtCs5ZhMRgWBkZV_13ettlex_engine8commands11mcp_command17apply_mcp_commands_0B7_
FN:292,_RNCNvNtNtCs5ZhMRgWBkZV_13ettlex_engine8commands11mcp_command20dispatch_mcp_command0B7_
FN:372,_RNCNvNtNtCs5ZhMRgWBkZV_13ettlex_engine8commands11mcp_command20dispatch_mcp_commands0_0B7_
FN:357,_RNCNvNtNtCs5ZhMRgWBkZV_13ettlex_engine8commands11mcp_command20dispatch_mcp_commands_0B7_
FN:108,_RNvNtNtCs5ZhMRgWBkZV_13ettlex_engine8commands11mcp_command12default_true
FN:157,_RNvNtNtCs5ZhMRgWBkZV_13ettlex_engine8commands11mcp_command17apply_mcp_command
FN:211,_RNvNtNtCs5ZhMRgWBkZV_13ettlex_engine8commands11mcp_command20dispatch_mcp_command
FN:167,_RNCNvNtNtCscyF6it41FpO_13ettlex_engine8commands11mcp_command17apply_mcp_command0B7_
FN:192,_RNCNvNtNtCscyF6it41FpO_13ettlex_engine8commands11mcp_command17apply_mcp_commands0_0B7_
FN:198,_RNCNvNtNtCscyF6it41FpO_13ettlex_engine8commands11mcp_command17apply_mcp_commands1_0B7_
FN:168,_RNCNvNtNtCscyF6it41FpO_13ettlex_engine8commands11mcp_command17apply_mcp_commands_0B7_
FN:292,_RNCNvNtNtCscyF6it41FpO_13ettlex_engine8commands11mcp_command20dispatch_mcp_command0B7_
FN:372,_RNCNvNtNtCscyF6it41FpO_13ettlex_engine8commands11mcp_command20dispatch_mcp_commands0_0B7_
FN:357,_RNCNvNtNtCscyF6it41FpO_13ettlex_engine8commands11mcp_command20dispatch_mcp_commands_0B7_
FN:108,_RNvNtNtCscyF6it41FpO_13ettlex_engine8commands11mcp_command12default_true
FN:157,_RNvNtNtCscyF6it41FpO_13ettlex_engine8commands11mcp_command17apply_mcp_command
FN:211,_RNvNtNtCscyF6it41FpO_13ettlex_engine8commands11mcp_command20dispatch_mcp_command
FNDA:33,_RNCNvNtNtCs5ZhMRgWBkZV_13ettlex_engine8commands11mcp_command17apply_mcp_command0B7_
FNDA:22,_RNCNvNtNtCs5ZhMRgWBkZV_13ettlex_engine8commands11mcp_command17apply_mcp_commands0_0B7_
FNDA:0,_RNCNvNtNtCs5ZhMRgWBkZV_13ettlex_engine8commands11mcp_command17apply_mcp_commands1_0B7_
FNDA:0,_RNCNvNtNtCs5ZhMRgWBkZV_13ettlex_engine8commands11mcp_command17apply_mcp_commands_0B7_
FNDA:1,_RNCNvNtNtCs5ZhMRgWBkZV_13ettlex_engine8commands11mcp_command20dispatch_mcp_command0B7_
FNDA:1,_RNCNvNtNtCs5ZhMRgWBkZV_13ettlex_engine8commands11mcp_command20dispatch_mcp_commands0_0B7_
FNDA:0,_RNCNvNtNtCs5ZhMRgWBkZV_13ettlex_engine8commands11mcp_command20dispatch_mcp_commands_0B7_
FNDA:0,_RNvNtNtCs5ZhMRgWBkZV_13ettlex_engine8commands11mcp_command12default_true
FNDA:33,_RNvNtNtCs5ZhMRgWBkZV_13ettlex_engine8commands11mcp_command17apply_mcp_command
FNDA:32,_RNvNtNtCs5ZhMRgWBkZV_13ettlex_engine8commands11mcp_command20dispatch_mcp_command
FNDA:0,_RNCNvNtNtCscyF6it41FpO_13ettlex_engine8commands11mcp_command17apply_mcp_command0B7_
FNDA:0,_RNCNvNtNtCscyF6it41FpO_13ettlex_engine8commands11mcp_command17apply_mcp_commands0_0B7_
FNDA:0,_RNCNvNtNtCscyF6it41FpO_13ettlex_engine8commands11mcp_command17apply_mcp_commands1_0B7_
FNDA:0,_RNCNvNtNtCscyF6it41FpO_13ettlex_engine8commands11mcp_command17apply_mcp_commands_0B7_
FNDA:0,_RNCNvNtNtCscyF6it41FpO_13ettlex_engine8commands11mcp_command20dispatch_mcp_command0B7_
FNDA:0,_RNCNvNtNtCscyF6it41FpO_13ettlex_engine8commands11mcp_command20dispatch_mcp_commands0_0B7_
FNDA:0,_RNCNvNtNtCscyF6it41FpO_13ettlex_engine8commands11mcp_command20dispatch_mcp_commands_0B7_
FNDA:0,_RNvNtNtCscyF6it41FpO_13ettlex_engine8commands11mcp_command12default_true
FNDA:0,_RNvNtNtCscyF6it41FpO_13ettlex_engine8commands11mcp_command17apply_mcp_command
FNDA:0,_RNvNtNtCscyF6it41FpO_13ettlex_engine8commands11mcp_command20dispatch_mcp_command
FNF:10
FNH:6
DA:108,0
DA:109,0
DA:110,0
DA:157,33
DA:158,33
DA:159,33
DA:160,33
DA:161,33
DA:162,33
DA:163,33
DA:164,33
DA:166,33
DA:167,33
DA:168,33
DA:169,0
DA:170,0
DA:171,0
DA:172,0
DA:175,33
DA:176,1
DA:177,1
DA:178,1
DA:179,1
DA:180,1
DA:181,1
DA:182,1
DA:183,0
DA:184,32
DA:187,32
DA:190,22
DA:191,22
DA:192,22
DA:193,22
DA:194,22
DA:195,22
DA:196,22
DA:198,22
DA:199,0
DA:200,0
DA:201,0
DA:202,0
DA:204,22
DA:205,33
DA:211,32
DA:212,32
DA:213,32
DA:214,32
DA:215,32
DA:216,32
DA:217,32
DA:218,32
DA:220,13
DA:221,13
DA:222,13
DA:223,13
DA:224,13
DA:226,13
DA:227,13
DA:228,13
DA:229,13
DA:230,13
DA:231,13
DA:232,13
DA:233,13
DA:234,13
DA:235,13
DA:236,13
DA:237,10
DA:238,13
DA:239,10
DA:240,10
DA:241,10
DA:242,10
DA:243,10
DA:244,0
DA:245,0
DA:246,0
DA:247,0
DA:249,0
DA:250,0
DA:251,0
DA:255,2
DA:256,2
DA:257,2
DA:258,2
DA:259,2
DA:263,0
DA:264,0
DA:265,0
DA:266,0
DA:267,0
DA:268,0
DA:270,0
DA:271,0
DA:272,0
DA:273,0
DA:277,7
DA:278,7
DA:279,7
DA:280,7
DA:281,7
DA:284,7
DA:285,2
DA:286,2
DA:287,2
DA:288,2
DA:289,5
DA:292,5
DA:293,1
DA:294,1
DA:295,1
DA:296,1
DA:297,1
DA:300,4
DA:301,4
DA:302,4
DA:303,4
DA:304,0
DA:305,4
DA:306,4
DA:307,0
DA:308,4
DA:309,4
DA:310,0
DA:311,4
DA:314,4
DA:315,4
DA:317,4
DA:318,4
DA:319,4
DA:320,4
DA:324,3
DA:325,3
DA:326,3
DA:327,3
DA:328,3
DA:331,3
DA:332,1
DA:333,1
DA:334,1
DA:335,2
DA:338,2
DA:339,0
DA:340,0
DA:341,0
DA:342,2
DA:344,2
DA:345,2
DA:346,2
DA:347,2
DA:351,3
DA:352,3
DA:353,3
DA:356,3
DA:357,3
DA:358,0
DA:359,0
DA:360,0
DA:361,0
DA:362,3
DA:363,0
DA:364,0
DA:365,0
DA:366,3
DA:369,3
DA:370,3
DA:371,3
DA:372,3
DA:374,1
DA:375,1
DA:376,1
DA:377,1
DA:378,2
DA:380,2
DA:381,2
DA:382,2
DA:386,2
DA:387,2
DA:390,2
DA:391,2
DA:392,2
DA:393,2
DA:394,2
DA:395,2
DA:396,1
DA:399,2
DA:400,2
DA:401,2
DA:402,1
DA:405,32
BRF:0
BRH:0
LF:201
LH:153
end_of_record
SF:/Users/nick/Development/EttleX/EttleX-Project/Rust/crates/ettlex-engine/src/commands/read_tools.rs
FN:37,_RNvMNtNtCs5ZhMRgWBkZV_13ettlex_engine8commands10read_toolsNtB2_11ListOptions13decode_cursor
FN:32,_RNvMNtNtCs5ZhMRgWBkZV_13ettlex_engine8commands10read_toolsNtB2_11ListOptions15effective_limit
FN:344,_RNvNtNtCs5ZhMRgWBkZV_13ettlex_engine8commands10read_tools13base64_decode
FN:311,_RNvNtNtCs5ZhMRgWBkZV_13ettlex_engine8commands10read_tools13base64_encode
FN:58,_RINvMs_NtNtCs5ZhMRgWBkZV_13ettlex_engine8commands10read_toolsINtB5_4PageNtB5_16ApprovalListItemE13from_overshotNCNCNvNtB7_12engine_query18apply_engine_querysp_0s0_0EB9_
FN:58,_RINvMs_NtNtCs5ZhMRgWBkZV_13ettlex_engine8commands10read_toolsINtB5_4PageNtB5_16ProfileGetResultE13from_overshotNCNCNvNtB7_12engine_query18apply_engine_querysn_0s_0EB9_
FN:58,_RINvMs_NtNtCs5ZhMRgWBkZV_13ettlex_engine8commands10read_toolsINtB5_4PageNtNtNtCs4640luT8Huz_11ettlex_core5model5ettle5EttleE13from_overshotNCNCNvNtB7_12engine_query18apply_engine_querys1_00EB9_
FN:58,_RINvMs_NtNtCs5ZhMRgWBkZV_13ettlex_engine8commands10read_toolsINtB5_4PageNtNtNtCs4640luT8Huz_11ettlex_core5model8decision8DecisionE13from_overshotNCNCNvNtB7_12engine_query18apply_engine_querysb_0s0_0EB9_
FN:64,_RNCINvMs_NtNtCs5ZhMRgWBkZV_13ettlex_engine8commands10read_toolsINtB7_4PageNtB7_16ApprovalListItemE13from_overshotNCNCNvNtB9_12engine_query18apply_engine_querysp_0s0_0E0Bb_
FN:64,_RNCINvMs_NtNtCs5ZhMRgWBkZV_13ettlex_engine8commands10read_toolsINtB7_4PageNtB7_16ProfileGetResultE13from_overshotNCNCNvNtB9_12engine_query18apply_engine_querysn_0s_0E0Bb_
FN:64,_RNCINvMs_NtNtCs5ZhMRgWBkZV_13ettlex_engine8commands10read_toolsINtB7_4PageNtNtNtCs4640luT8Huz_11ettlex_core5model5ettle5EttleE13from_overshotNCNCNvNtB9_12engine_query18apply_engine_querys1_00E0Bb_
FN:64,_RNCINvMs_NtNtCs5ZhMRgWBkZV_13ettlex_engine8commands10read_toolsINtB7_4PageNtNtNtCs4640luT8Huz_11ettlex_core5model8decision8DecisionE13from_overshotNCNCNvNtB9_12engine_query18apply_engine_querysb_0s0_0E0Bb_
FN:38,_RNCNvMNtNtCs5ZhMRgWBkZV_13ettlex_engine8commands10read_toolsNtB4_11ListOptions13decode_cursor0B8_
FN:369,_RNCNvNtNtCs5ZhMRgWBkZV_13ettlex_engine8commands10read_tools13base64_decode0B7_
FN:391,_RNCNvNtNtCs5ZhMRgWBkZV_13ettlex_engine8commands10read_tools13base64_decodes_0B7_
FN:58,_RINvMs_NtNtCscyF6it41FpO_13ettlex_engine8commands10read_toolsINtB5_4PagepE13from_overshotpEB9_
FN:64,_RNCINvMs_NtNtCscyF6it41FpO_13ettlex_engine8commands10read_toolsINtB7_4PagepE13from_overshotpE0Bb_
FN:38,_RNCNvMNtNtCscyF6it41FpO_13ettlex_engine8commands10read_toolsNtB4_11ListOptions13decode_cursor0B8_
FN:369,_RNCNvNtNtCscyF6it41FpO_13ettlex_engine8commands10read_tools13base64_decode0B7_
FN:391,_RNCNvNtNtCscyF6it41FpO_13ettlex_engine8commands10read_tools13base64_decodes_0B7_
FN:37,_RNvMNtNtCscyF6it41FpO_13ettlex_engine8commands10read_toolsNtB2_11ListOptions13decode_cursor
FN:32,_RNvMNtNtCscyF6it41FpO_13ettlex_engine8commands10read_toolsNtB2_11ListOptions15effective_limit
FN:344,_RNvNtNtCscyF6it41FpO_13ettlex_engine8commands10read_tools13base64_decode
FN:311,_RNvNtNtCscyF6it41FpO_13ettlex_engine8commands10read_tools13base64_encode
FNDA:19,_RNvMNtNtCs5ZhMRgWBkZV_13ettlex_engine8commands10read_toolsNtB2_11ListOptions13decode_cursor
FNDA:19,_RNvMNtNtCs5ZhMRgWBkZV_13ettlex_engine8commands10read_toolsNtB2_11ListOptions15effective_limit
FNDA:5,_RNvNtNtCs5ZhMRgWBkZV_13ettlex_engine8commands10read_tools13base64_decode
FNDA:10,_RNvNtNtCs5ZhMRgWBkZV_13ettlex_engine8commands10read_tools13base64_encode
FNDA:1,_RINvMs_NtNtCs5ZhMRgWBkZV_13ettlex_engine8commands10read_toolsINtB5_4PageNtB5_16ApprovalListItemE13from_overshotNCNCNvNtB7_12engine_query18apply_engine_querysp_0s0_0EB9_
FNDA:4,_RINvMs_NtNtCs5ZhMRgWBkZV_13ettlex_engine8commands10read_toolsINtB5_4PageNtB5_16ProfileGetResultE13from_overshotNCNCNvNtB7_12engine_query18apply_engine_querysn_0s_0EB9_
FNDA:11,_RINvMs_NtNtCs5ZhMRgWBkZV_13ettlex_engine8commands10read_toolsINtB5_4PageNtNtNtCs4640luT8Huz_11ettlex_core5model5ettle5EttleE13from_overshotNCNCNvNtB7_12engine_query18apply_engine_querys1_00EB9_
FNDA:3,_RINvMs_NtNtCs5ZhMRgWBkZV_13ettlex_engine8commands10read_toolsINtB5_4PageNtNtNtCs4640luT8Huz_11ettlex_core5model8decision8DecisionE13from_overshotNCNCNvNtB7_12engine_query18apply_engine_querysb_0s0_0EB9_
FNDA:0,_RNCINvMs_NtNtCs5ZhMRgWBkZV_13ettlex_engine8commands10read_toolsINtB7_4PageNtB7_16ApprovalListItemE13from_overshotNCNCNvNtB9_12engine_query18apply_engine_querysp_0s0_0E0Bb_
FNDA:3,_RNCINvMs_NtNtCs5ZhMRgWBkZV_13ettlex_engine8commands10read_toolsINtB7_4PageNtB7_16ProfileGetResultE13from_overshotNCNCNvNtB9_12engine_query18apply_engine_querysn_0s_0E0Bb_
FNDA:7,_RNCINvMs_NtNtCs5ZhMRgWBkZV_13ettlex_engine8commands10read_toolsINtB7_4PageNtNtNtCs4640luT8Huz_11ettlex_core5model5ettle5EttleE13from_overshotNCNCNvNtB9_12engine_query18apply_engine_querys1_00E0Bb_
FNDA:0,_RNCINvMs_NtNtCs5ZhMRgWBkZV_13ettlex_engine8commands10read_toolsINtB7_4PageNtNtNtCs4640luT8Huz_11ettlex_core5model8decision8DecisionE13from_overshotNCNCNvNtB9_12engine_query18apply_engine_querysb_0s0_0E0Bb_
FNDA:3,_RNCNvMNtNtCs5ZhMRgWBkZV_13ettlex_engine8commands10read_toolsNtB4_11ListOptions13decode_cursor0B8_
FNDA:96,_RNCNvNtNtCs5ZhMRgWBkZV_13ettlex_engine8commands10read_tools13base64_decode0B7_
FNDA:1,_RNCNvNtNtCs5ZhMRgWBkZV_13ettlex_engine8commands10read_tools13base64_decodes_0B7_
FNDA:0,_RINvMs_NtNtCscyF6it41FpO_13ettlex_engine8commands10read_toolsINtB5_4PagepE13from_overshotpEB9_
FNDA:0,_RNCINvMs_NtNtCscyF6it41FpO_13ettlex_engine8commands10read_toolsINtB7_4PagepE13from_overshotpE0Bb_
FNDA:0,_RNCNvMNtNtCscyF6it41FpO_13ettlex_engine8commands10read_toolsNtB4_11ListOptions13decode_cursor0B8_
FNDA:0,_RNCNvNtNtCscyF6it41FpO_13ettlex_engine8commands10read_tools13base64_decode0B7_
FNDA:0,_RNCNvNtNtCscyF6it41FpO_13ettlex_engine8commands10read_tools13base64_decodes_0B7_
FNDA:0,_RNvMNtNtCscyF6it41FpO_13ettlex_engine8commands10read_toolsNtB2_11ListOptions13decode_cursor
FNDA:0,_RNvMNtNtCscyF6it41FpO_13ettlex_engine8commands10read_toolsNtB2_11ListOptions15effective_limit
FNDA:0,_RNvNtNtCscyF6it41FpO_13ettlex_engine8commands10read_tools13base64_decode
FNDA:0,_RNvNtNtCscyF6it41FpO_13ettlex_engine8commands10read_tools13base64_encode
FNF:9
FNH:9
DA:32,19
DA:33,19
DA:34,19
DA:37,19
DA:38,19
DA:39,19
DA:58,19
DA:59,19
DA:60,19
DA:61,10
DA:62,10
DA:63,19
DA:64,10
DA:66,9
DA:68,19
DA:69,19
DA:70,19
DA:71,19
DA:72,19
DA:73,19
DA:311,10
DA:312,10
DA:314,10
DA:315,54
DA:316,54
DA:317,54
DA:318,50
DA:320,4
DA:322,54
DA:323,49
DA:325,5
DA:327,54
DA:328,54
DA:329,54
DA:330,50
DA:331,50
DA:332,4
DA:333,4
DA:334,54
DA:335,49
DA:336,49
DA:337,5
DA:338,5
DA:340,10
DA:341,10
DA:344,5
DA:359,5
DA:360,5
DA:361,0
DA:362,0
DA:364,5
DA:365,24
DA:366,24
DA:367,0
DA:368,24
DA:369,96
DA:370,96
DA:371,96
DA:373,0
DA:375,96
DA:376,24
DA:377,24
DA:378,24
DA:379,24
DA:380,24
DA:381,0
DA:382,24
DA:383,24
DA:384,24
DA:385,22
DA:386,22
DA:387,24
DA:388,22
DA:389,22
DA:391,5
DA:392,5
BRF:0
BRH:0
LF:80
LH:75
end_of_record
SF:/Users/nick/Development/EttleX/EttleX-Project/Rust/crates/ettlex-engine/src/commands/snapshot.rs
FN:237,_RNCNvNtNtCs5ZhMRgWBkZV_13ettlex_engine8commands8snapshot15get_seed_digests0_0B7_
FN:234,_RNCNvNtNtCs5ZhMRgWBkZV_13ettlex_engine8commands8snapshot15get_seed_digests_0B7_
FN:186,_RNCNvNtNtCs5ZhMRgWBkZV_13ettlex_engine8commands8snapshot15resolve_profile0B7_
FN:190,_RNCNvNtNtCs5ZhMRgWBkZV_13ettlex_engine8commands8snapshot15resolve_profiles_0B7_
FN:131,_RNCNvNtNtCs5ZhMRgWBkZV_13ettlex_engine8commands8snapshot16validate_leaf_ep0B7_
FN:145,_RNCNvNtNtCs5ZhMRgWBkZV_13ettlex_engine8commands8snapshot16validate_leaf_eps_0B7_
FN:486,_RNCNvNtNtCs5ZhMRgWBkZV_13ettlex_engine8commands8snapshot20resolve_root_to_leaf0B7_
FN:470,_RNCNvNtNtCs5ZhMRgWBkZV_13ettlex_engine8commands8snapshot23resolve_root_to_leaf_ep0B7_
FN:301,_RNCNvNtNtCs5ZhMRgWBkZV_13ettlex_engine8commands8snapshot23snapshot_commit_by_leaf0B7_
FN:337,_RNCNvNtNtCs5ZhMRgWBkZV_13ettlex_engine8commands8snapshot23snapshot_commit_by_leafs0_0B7_
FN:386,_RNCNvNtNtCs5ZhMRgWBkZV_13ettlex_engine8commands8snapshot23snapshot_commit_by_leafs1_0B7_
FN:318,_RNCNvNtNtCs5ZhMRgWBkZV_13ettlex_engine8commands8snapshot23snapshot_commit_by_leafs_0B7_
FN:206,_RNCNvNtNtCs5ZhMRgWBkZV_13ettlex_engine8commands8snapshot24get_store_schema_version0B7_
FN:208,_RNCNvNtNtCs5ZhMRgWBkZV_13ettlex_engine8commands8snapshot24get_store_schema_versions_0B7_
FN:111,_RNCNvNtNtCs5ZhMRgWBkZV_13ettlex_engine8commands8snapshot30collect_leaf_ep_ids_in_subtree0B7_
FN:112,_RNCNvNtNtCs5ZhMRgWBkZV_13ettlex_engine8commands8snapshot30collect_leaf_ep_ids_in_subtrees_0B7_
FN:441,_RNCNvNtNtCs5ZhMRgWBkZV_13ettlex_engine8commands8snapshot30snapshot_commit_by_root_legacy0B7_
FN:217,_RNvNtNtCs5ZhMRgWBkZV_13ettlex_engine8commands8snapshot15get_seed_digest
FN:166,_RNvNtNtCs5ZhMRgWBkZV_13ettlex_engine8commands8snapshot15resolve_profile
FN:513,_RNvNtNtCs5ZhMRgWBkZV_13ettlex_engine8commands8snapshot15snapshot_commit
FN:128,_RNvNtNtCs5ZhMRgWBkZV_13ettlex_engine8commands8snapshot16validate_leaf_ep
FN:80,_RNvNtNtCs5ZhMRgWBkZV_13ettlex_engine8commands8snapshot18find_ancestor_root
FN:479,_RNvNtNtCs5ZhMRgWBkZV_13ettlex_engine8commands8snapshot20resolve_root_to_leaf
FN:469,_RNvNtNtCs5ZhMRgWBkZV_13ettlex_engine8commands8snapshot23resolve_root_to_leaf_ep
FN:272,_RNvNtNtCs5ZhMRgWBkZV_13ettlex_engine8commands8snapshot23snapshot_commit_by_leaf
FN:201,_RNvNtNtCs5ZhMRgWBkZV_13ettlex_engine8commands8snapshot24get_store_schema_version
FN:94,_RNvNtNtCs5ZhMRgWBkZV_13ettlex_engine8commands8snapshot30collect_leaf_ep_ids_in_subtree
FN:431,_RNvNtNtCs5ZhMRgWBkZV_13ettlex_engine8commands8snapshot30snapshot_commit_by_root_legacy
FN:237,_RNCNvNtNtCscyF6it41FpO_13ettlex_engine8commands8snapshot15get_seed_digests0_0B7_
FN:234,_RNCNvNtNtCscyF6it41FpO_13ettlex_engine8commands8snapshot15get_seed_digests_0B7_
FN:186,_RNCNvNtNtCscyF6it41FpO_13ettlex_engine8commands8snapshot15resolve_profile0B7_
FN:190,_RNCNvNtNtCscyF6it41FpO_13ettlex_engine8commands8snapshot15resolve_profiles_0B7_
FN:131,_RNCNvNtNtCscyF6it41FpO_13ettlex_engine8commands8snapshot16validate_leaf_ep0B7_
FN:145,_RNCNvNtNtCscyF6it41FpO_13ettlex_engine8commands8snapshot16validate_leaf_eps_0B7_
FN:486,_RNCNvNtNtCscyF6it41FpO_13ettlex_engine8commands8snapshot20resolve_root_to_leaf0B7_
FN:470,_RNCNvNtNtCscyF6it41FpO_13ettlex_engine8commands8snapshot23resolve_root_to_leaf_ep0B7_
FN:301,_RNCNvNtNtCscyF6it41FpO_13ettlex_engine8commands8snapshot23snapshot_commit_by_leaf0B7_
FN:337,_RNCNvNtNtCscyF6it41FpO_13ettlex_engine8commands8snapshot23snapshot_commit_by_leafs0_0B7_
FN:386,_RNCNvNtNtCscyF6it41FpO_13ettlex_engine8commands8snapshot23snapshot_commit_by_leafs1_0B7_
FN:318,_RNCNvNtNtCscyF6it41FpO_13ettlex_engine8commands8snapshot23snapshot_commit_by_leafs_0B7_
FN:206,_RNCNvNtNtCscyF6it41FpO_13ettlex_engine8commands8snapshot24get_store_schema_version0B7_
FN:208,_RNCNvNtNtCscyF6it41FpO_13ettlex_engine8commands8snapshot24get_store_schema_versions_0B7_
FN:111,_RNCNvNtNtCscyF6it41FpO_13ettlex_engine8commands8snapshot30collect_leaf_ep_ids_in_subtree0B7_
FN:112,_RNCNvNtNtCscyF6it41FpO_13ettlex_engine8commands8snapshot30collect_leaf_ep_ids_in_subtrees_0B7_
FN:441,_RNCNvNtNtCscyF6it41FpO_13ettlex_engine8commands8snapshot30snapshot_commit_by_root_legacy0B7_
FN:217,_RNvNtNtCscyF6it41FpO_13ettlex_engine8commands8snapshot15get_seed_digest
FN:166,_RNvNtNtCscyF6it41FpO_13ettlex_engine8commands8snapshot15resolve_profile
FN:513,_RNvNtNtCscyF6it41FpO_13ettlex_engine8commands8snapshot15snapshot_commit
FN:128,_RNvNtNtCscyF6it41FpO_13ettlex_engine8commands8snapshot16validate_leaf_ep
FN:80,_RNvNtNtCscyF6it41FpO_13ettlex_engine8commands8snapshot18find_ancestor_root
FN:479,_RNvNtNtCscyF6it41FpO_13ettlex_engine8commands8snapshot20resolve_root_to_leaf
FN:469,_RNvNtNtCscyF6it41FpO_13ettlex_engine8commands8snapshot23resolve_root_to_leaf_ep
FN:272,_RNvNtNtCscyF6it41FpO_13ettlex_engine8commands8snapshot23snapshot_commit_by_leaf
FN:201,_RNvNtNtCscyF6it41FpO_13ettlex_engine8commands8snapshot24get_store_schema_version
FN:94,_RNvNtNtCscyF6it41FpO_13ettlex_engine8commands8snapshot30collect_leaf_ep_ids_in_subtree
FN:431,_RNvNtNtCscyF6it41FpO_13ettlex_engine8commands8snapshot30snapshot_commit_by_root_legacy
FNDA:0,_RNCNvNtNtCs5ZhMRgWBkZV_13ettlex_engine8commands8snapshot15get_seed_digests0_0B7_
FNDA:0,_RNCNvNtNtCs5ZhMRgWBkZV_13ettlex_engine8commands8snapshot15get_seed_digests_0B7_
FNDA:13,_RNCNvNtNtCs5ZhMRgWBkZV_13ettlex_engine8commands8snapshot15resolve_profile0B7_
FNDA:2,_RNCNvNtNtCs5ZhMRgWBkZV_13ettlex_engine8commands8snapshot15resolve_profiles_0B7_
FNDA:2,_RNCNvNtNtCs5ZhMRgWBkZV_13ettlex_engine8commands8snapshot16validate_leaf_ep0B7_
FNDA:78,_RNCNvNtNtCs5ZhMRgWBkZV_13ettlex_engine8commands8snapshot16validate_leaf_eps_0B7_
FNDA:2,_RNCNvNtNtCs5ZhMRgWBkZV_13ettlex_engine8commands8snapshot20resolve_root_to_leaf0B7_
FNDA:0,_RNCNvNtNtCs5ZhMRgWBkZV_13ettlex_engine8commands8snapshot23resolve_root_to_leaf_ep0B7_
FNDA:0,_RNCNvNtNtCs5ZhMRgWBkZV_13ettlex_engine8commands8snapshot23snapshot_commit_by_leaf0B7_
FNDA:19,_RNCNvNtNtCs5ZhMRgWBkZV_13ettlex_engine8commands8snapshot23snapshot_commit_by_leafs0_0B7_
FNDA:8,_RNCNvNtNtCs5ZhMRgWBkZV_13ettlex_engine8commands8snapshot23snapshot_commit_by_leafs1_0B7_
FNDA:1,_RNCNvNtNtCs5ZhMRgWBkZV_13ettlex_engine8commands8snapshot23snapshot_commit_by_leafs_0B7_
FNDA:63,_RNCNvNtNtCs5ZhMRgWBkZV_13ettlex_engine8commands8snapshot24get_store_schema_version0B7_
FNDA:0,_RNCNvNtNtCs5ZhMRgWBkZV_13ettlex_engine8commands8snapshot24get_store_schema_versions_0B7_
FNDA:33,_RNCNvNtNtCs5ZhMRgWBkZV_13ettlex_engine8commands8snapshot30collect_leaf_ep_ids_in_subtree0B7_
FNDA:1,_RNCNvNtNtCs5ZhMRgWBkZV_13ettlex_engine8commands8snapshot30collect_leaf_ep_ids_in_subtrees_0B7_
FNDA:0,_RNCNvNtNtCs5ZhMRgWBkZV_13ettlex_engine8commands8snapshot30snapshot_commit_by_root_legacy0B7_
FNDA:63,_RNvNtNtCs5ZhMRgWBkZV_13ettlex_engine8commands8snapshot15get_seed_digest
FNDA:71,_RNvNtNtCs5ZhMRgWBkZV_13ettlex_engine8commands8snapshot15resolve_profile
FNDA:23,_RNvNtNtCs5ZhMRgWBkZV_13ettlex_engine8commands8snapshot15snapshot_commit
FNDA:76,_RNvNtNtCs5ZhMRgWBkZV_13ettlex_engine8commands8snapshot16validate_leaf_ep
FNDA:71,_RNvNtNtCs5ZhMRgWBkZV_13ettlex_engine8commands8snapshot18find_ancestor_root
FNDA:27,_RNvNtNtCs5ZhMRgWBkZV_13ettlex_engine8commands8snapshot20resolve_root_to_leaf
FNDA:4,_RNvNtNtCs5ZhMRgWBkZV_13ettlex_engine8commands8snapshot23resolve_root_to_leaf_ep
FNDA:83,_RNvNtNtCs5ZhMRgWBkZV_13ettlex_engine8commands8snapshot23snapshot_commit_by_leaf
FNDA:63,_RNvNtNtCs5ZhMRgWBkZV_13ettlex_engine8commands8snapshot24get_store_schema_version
FNDA:26,_RNvNtNtCs5ZhMRgWBkZV_13ettlex_engine8commands8snapshot30collect_leaf_ep_ids_in_subtree
FNDA:23,_RNvNtNtCs5ZhMRgWBkZV_13ettlex_engine8commands8snapshot30snapshot_commit_by_root_legacy
FNDA:0,_RNCNvNtNtCscyF6it41FpO_13ettlex_engine8commands8snapshot15get_seed_digests0_0B7_
FNDA:0,_RNCNvNtNtCscyF6it41FpO_13ettlex_engine8commands8snapshot15get_seed_digests_0B7_
FNDA:0,_RNCNvNtNtCscyF6it41FpO_13ettlex_engine8commands8snapshot15resolve_profile0B7_
FNDA:0,_RNCNvNtNtCscyF6it41FpO_13ettlex_engine8commands8snapshot15resolve_profiles_0B7_
FNDA:0,_RNCNvNtNtCscyF6it41FpO_13ettlex_engine8commands8snapshot16validate_leaf_ep0B7_
FNDA:0,_RNCNvNtNtCscyF6it41FpO_13ettlex_engine8commands8snapshot16validate_leaf_eps_0B7_
FNDA:0,_RNCNvNtNtCscyF6it41FpO_13ettlex_engine8commands8snapshot20resolve_root_to_leaf0B7_
FNDA:0,_RNCNvNtNtCscyF6it41FpO_13ettlex_engine8commands8snapshot23resolve_root_to_leaf_ep0B7_
FNDA:0,_RNCNvNtNtCscyF6it41FpO_13ettlex_engine8commands8snapshot23snapshot_commit_by_leaf0B7_
FNDA:0,_RNCNvNtNtCscyF6it41FpO_13ettlex_engine8commands8snapshot23snapshot_commit_by_leafs0_0B7_
FNDA:0,_RNCNvNtNtCscyF6it41FpO_13ettlex_engine8commands8snapshot23snapshot_commit_by_leafs1_0B7_
FNDA:0,_RNCNvNtNtCscyF6it41FpO_13ettlex_engine8commands8snapshot23snapshot_commit_by_leafs_0B7_
FNDA:0,_RNCNvNtNtCscyF6it41FpO_13ettlex_engine8commands8snapshot24get_store_schema_version0B7_
FNDA:0,_RNCNvNtNtCscyF6it41FpO_13ettlex_engine8commands8snapshot24get_store_schema_versions_0B7_
FNDA:0,_RNCNvNtNtCscyF6it41FpO_13ettlex_engine8commands8snapshot30collect_leaf_ep_ids_in_subtree0B7_
FNDA:0,_RNCNvNtNtCscyF6it41FpO_13ettlex_engine8commands8snapshot30collect_leaf_ep_ids_in_subtrees_0B7_
FNDA:0,_RNCNvNtNtCscyF6it41FpO_13ettlex_engine8commands8snapshot30snapshot_commit_by_root_legacy0B7_
FNDA:0,_RNvNtNtCscyF6it41FpO_13ettlex_engine8commands8snapshot15get_seed_digest
FNDA:0,_RNvNtNtCscyF6it41FpO_13ettlex_engine8commands8snapshot15resolve_profile
FNDA:0,_RNvNtNtCscyF6it41FpO_13ettlex_engine8commands8snapshot15snapshot_commit
FNDA:0,_RNvNtNtCscyF6it41FpO_13ettlex_engine8commands8snapshot16validate_leaf_ep
FNDA:0,_RNvNtNtCscyF6it41FpO_13ettlex_engine8commands8snapshot18find_ancestor_root
FNDA:0,_RNvNtNtCscyF6it41FpO_13ettlex_engine8commands8snapshot20resolve_root_to_leaf
FNDA:0,_RNvNtNtCscyF6it41FpO_13ettlex_engine8commands8snapshot23resolve_root_to_leaf_ep
FNDA:0,_RNvNtNtCscyF6it41FpO_13ettlex_engine8commands8snapshot23snapshot_commit_by_leaf
FNDA:0,_RNvNtNtCscyF6it41FpO_13ettlex_engine8commands8snapshot24get_store_schema_version
FNDA:0,_RNvNtNtCscyF6it41FpO_13ettlex_engine8commands8snapshot30collect_leaf_ep_ids_in_subtree
FNDA:0,_RNvNtNtCscyF6it41FpO_13ettlex_engine8commands8snapshot30snapshot_commit_by_root_legacy
FNF:28
FNH:22
DA:80,71
DA:81,71
DA:83,71
DA:84,71
DA:85,0
DA:86,71
DA:88,0
DA:91,71
DA:94,26
DA:95,26
DA:96,26
DA:97,26
DA:98,26
DA:99,26
DA:100,0
DA:102,26
DA:103,26
DA:104,26
DA:105,0
DA:106,26
DA:108,26
DA:109,26
DA:110,26
DA:111,33
DA:112,26
DA:113,26
DA:115,26
DA:116,25
DA:117,25
DA:118,25
DA:119,1
DA:120,1
DA:121,1
DA:124,26
DA:125,26
DA:128,76
DA:131,76
DA:133,2
DA:134,2
DA:135,2
DA:136,2
DA:138,0
DA:139,2
DA:142,74
DA:143,74
DA:144,74
DA:145,78
DA:147,74
DA:148,3
DA:149,3
DA:150,3
DA:151,3
DA:152,71
DA:154,71
DA:155,76
DA:166,71
DA:167,71
DA:169,71
DA:172,58
DA:173,1
DA:174,1
DA:175,1
DA:176,57
DA:178,57
DA:179,57
DA:180,57
DA:181,57
DA:183,13
DA:184,13
DA:185,13
DA:186,13
DA:187,13
DA:188,13
DA:189,13
DA:190,13
DA:191,13
DA:192,13
DA:193,13
DA:194,13
DA:195,13
DA:198,71
DA:201,63
DA:202,63
DA:203,63
DA:204,63
DA:205,63
DA:206,63
DA:208,63
DA:209,0
DA:210,0
DA:211,0
DA:212,0
DA:213,63
DA:214,63
DA:217,63
DA:218,63
DA:219,63
DA:220,63
DA:221,63
DA:224,63
DA:226,63
DA:227,63
DA:228,0
DA:230,0
DA:231,0
DA:232,0
DA:233,0
DA:234,0
DA:236,0
DA:237,0
DA:238,0
DA:239,0
DA:240,0
DA:241,0
DA:243,0
DA:244,63
DA:272,83
DA:273,83
DA:274,83
DA:275,83
DA:276,83
DA:277,83
DA:278,83
DA:279,83
DA:280,83
DA:281,83
DA:282,83
DA:285,83
DA:286,2
DA:287,2
DA:288,2
DA:289,2
DA:290,81
DA:293,81
DA:294,81
DA:295,81
DA:296,81
DA:297,81
DA:298,5
DA:301,76
DA:302,0
DA:303,0
DA:304,0
DA:305,0
DA:308,76
DA:311,71
DA:312,71
DA:315,71
DA:318,70
DA:319,1
DA:320,1
DA:322,1
DA:323,1
DA:324,1
DA:326,0
DA:328,1
DA:333,69
DA:334,69
DA:335,69
DA:336,69
DA:337,19
DA:338,19
DA:339,19
DA:340,69
DA:342,69
DA:344,5
DA:345,5
DA:347,5
DA:348,5
DA:349,5
DA:350,5
DA:351,5
DA:352,5
DA:353,5
DA:354,5
DA:355,0
DA:357,5
DA:358,4
DA:359,4
DA:360,4
DA:361,4
DA:363,1
DA:364,1
DA:365,1
DA:366,1
DA:367,1
DA:370,5
DA:371,5
DA:372,5
DA:373,5
DA:374,5
DA:375,5
DA:376,5
DA:377,5
DA:378,64
DA:381,62
DA:382,64
DA:384,62
DA:385,4
DA:386,8
DA:387,4
DA:388,4
DA:389,4
DA:390,4
DA:391,4
DA:392,4
DA:393,4
DA:394,58
DA:397,58
DA:398,58
DA:400,58
DA:401,58
DA:402,58
DA:403,58
DA:404,58
DA:405,58
DA:406,58
DA:407,58
DA:408,0
DA:411,58
DA:412,58
DA:413,58
DA:414,58
DA:415,58
DA:417,58
DA:419,54
DA:420,54
DA:421,54
DA:422,54
DA:423,54
DA:424,54
DA:425,54
DA:426,54
DA:427,83
DA:431,23
DA:432,23
DA:433,23
DA:434,23
DA:435,23
DA:436,23
DA:437,23
DA:438,23
DA:439,23
DA:440,23
DA:441,23
DA:442,0
DA:443,0
DA:444,0
DA:445,0
DA:447,23
DA:448,19
DA:449,19
DA:450,19
DA:451,19
DA:452,19
DA:453,19
DA:454,19
DA:455,19
DA:456,19
DA:458,23
DA:469,4
DA:470,4
DA:471,0
DA:472,0
DA:473,0
DA:474,0
DA:475,4
DA:476,4
DA:479,27
DA:480,27
DA:481,27
DA:482,27
DA:486,27
DA:488,2
DA:489,2
DA:490,2
DA:491,2
DA:493,0
DA:494,2
DA:496,25
DA:498,25
DA:499,2
DA:500,2
DA:501,2
DA:502,2
DA:503,21
DA:504,2
DA:505,2
DA:506,2
DA:507,2
DA:508,2
DA:510,27
DA:513,23
DA:514,23
DA:515,23
DA:516,23
DA:517,23
DA:518,23
DA:519,23
DA:520,23
DA:525,23
DA:526,23
DA:530,23
DA:531,23
DA:532,23
DA:533,23
DA:534,23
DA:535,23
DA:536,23
DA:537,23
DA:538,23
DA:539,23
DA:542,19
DA:543,19
DA:544,19
DA:545,19
DA:548,0
DA:550,19
DA:553,0
DA:554,0
DA:555,0
DA:556,0
DA:557,0
DA:559,4
DA:560,4
DA:561,4
DA:562,4
DA:565,23
BRF:0
BRH:0
LF:350
LH:296
end_of_record
SF:/Users/nick/Development/EttleX/EttleX-Project/Rust/crates/ettlex-mcp/src/auth.rs
FN:23,_RINvMNtCshAxkkYTyPaH_10ettlex_mcp4authNtB3_10AuthConfig10with_tokenpEB5_
FN:16,_RNvMNtCshAxkkYTyPaH_10ettlex_mcp4authNtB2_10AuthConfig8disabled
FN:32,_RNvMNtCshAxkkYTyPaH_10ettlex_mcp4authNtB2_10AuthConfig8validate
FN:16,_RNvMNtCshErCmUCaH2J_10ettlex_mcp4authNtB2_10AuthConfig8disabled
FN:32,_RNvMNtCshErCmUCaH2J_10ettlex_mcp4authNtB2_10AuthConfig8validate
FN:23,_RINvMNtCshErCmUCaH2J_10ettlex_mcp4authNtB3_10AuthConfig10with_tokenReECsl4lXhMZwjyP_21mcp_integration_tests
FNDA:0,_RINvMNtCshAxkkYTyPaH_10ettlex_mcp4authNtB3_10AuthConfig10with_tokenpEB5_
FNDA:0,_RNvMNtCshAxkkYTyPaH_10ettlex_mcp4authNtB2_10AuthConfig8disabled
FNDA:0,_RNvMNtCshAxkkYTyPaH_10ettlex_mcp4authNtB2_10AuthConfig8validate
FNDA:0,_RNvMNtCshErCmUCaH2J_10ettlex_mcp4authNtB2_10AuthConfig8disabled
FNDA:72,_RNvMNtCshErCmUCaH2J_10ettlex_mcp4authNtB2_10AuthConfig8validate
FNDA:46,_RINvMNtCshErCmUCaH2J_10ettlex_mcp4authNtB3_10AuthConfig10with_tokenReECsl4lXhMZwjyP_21mcp_integration_tests
FNF:3
FNH:2
DA:16,0
DA:17,0
DA:18,0
DA:19,0
DA:20,0
DA:23,46
DA:24,46
DA:25,46
DA:26,46
DA:27,46
DA:32,72
DA:33,72
DA:34,0
DA:35,72
DA:36,71
DA:37,1
DA:38,1
DA:39,1
DA:40,1
DA:43,72
BRF:0
BRH:0
LF:20
LH:14
end_of_record
SF:/Users/nick/Development/EttleX/EttleX-Project/Rust/crates/ettlex-mcp/src/canonical.rs
FN:22,_RNCNvNtCshAxkkYTyPaH_10ettlex_mcp9canonical10to_ordered0B5_
FN:17,_RNvNtCshAxkkYTyPaH_10ettlex_mcp9canonical10to_ordered
FN:12,_RNvNtCshAxkkYTyPaH_10ettlex_mcp9canonical14canonical_json
FN:17,_RNvNtCshErCmUCaH2J_10ettlex_mcp9canonical10to_ordered
FN:12,_RNvNtCshErCmUCaH2J_10ettlex_mcp9canonical14canonical_json
FN:22,_RNCNvNtCshErCmUCaH2J_10ettlex_mcp9canonical10to_ordered0B5_
FNDA:0,_RNCNvNtCshAxkkYTyPaH_10ettlex_mcp9canonical10to_ordered0B5_
FNDA:0,_RNvNtCshAxkkYTyPaH_10ettlex_mcp9canonical10to_ordered
FNDA:0,_RNvNtCshAxkkYTyPaH_10ettlex_mcp9canonical14canonical_json
FNDA:8,_RNvNtCshErCmUCaH2J_10ettlex_mcp9canonical10to_ordered
FNDA:2,_RNvNtCshErCmUCaH2J_10ettlex_mcp9canonical14canonical_json
FNDA:6,_RNCNvNtCshErCmUCaH2J_10ettlex_mcp9canonical10to_ordered0B5_
FNF:3
FNH:3
DA:12,2
DA:13,2
DA:14,2
DA:15,2
DA:17,8
DA:18,8
DA:19,2
DA:20,2
DA:21,2
DA:22,6
DA:23,2
DA:24,2
DA:26,0
DA:27,6
DA:29,8
BRF:0
BRH:0
LF:16
LH:15
end_of_record
SF:/Users/nick/Development/EttleX/EttleX-Project/Rust/crates/ettlex-mcp/src/error.rs
FN:32,_RINvMNtCshAxkkYTyPaH_10ettlex_mcp5errorNtB3_8McpError3newpEB5_
FN:59,_RNCNvNtCshAxkkYTyPaH_10ettlex_mcp5error14ex_code_to_mcp0B5_
FN:44,_RNvMNtCshAxkkYTyPaH_10ettlex_mcp5errorNtB2_8McpError13from_ex_error
FN:55,_RNvNtCshAxkkYTyPaH_10ettlex_mcp5error14ex_code_to_mcp
FN:44,_RNvMNtCshErCmUCaH2J_10ettlex_mcp5errorNtB2_8McpError13from_ex_error
FN:55,_RNvNtCshErCmUCaH2J_10ettlex_mcp5error14ex_code_to_mcp
FN:32,_RINvMNtCshErCmUCaH2J_10ettlex_mcp5errorNtB3_8McpError3newNtNtCs5bkkNO3hTYU_5alloc6string6StringEB5_
FN:32,_RINvMNtCshErCmUCaH2J_10ettlex_mcp5errorNtB3_8McpError3newReEB5_
FN:59,_RNCNvNtCshErCmUCaH2J_10ettlex_mcp5error14ex_code_to_mcp0B5_
FNDA:0,_RINvMNtCshAxkkYTyPaH_10ettlex_mcp5errorNtB3_8McpError3newpEB5_
FNDA:0,_RNCNvNtCshAxkkYTyPaH_10ettlex_mcp5error14ex_code_to_mcp0B5_
FNDA:0,_RNvMNtCshAxkkYTyPaH_10ettlex_mcp5errorNtB2_8McpError13from_ex_error
FNDA:0,_RNvNtCshAxkkYTyPaH_10ettlex_mcp5error14ex_code_to_mcp
FNDA:18,_RNvMNtCshErCmUCaH2J_10ettlex_mcp5errorNtB2_8McpError13from_ex_error
FNDA:18,_RNvNtCshErCmUCaH2J_10ettlex_mcp5error14ex_code_to_mcp
FNDA:6,_RINvMNtCshErCmUCaH2J_10ettlex_mcp5errorNtB3_8McpError3newNtNtCs5bkkNO3hTYU_5alloc6string6StringEB5_
FNDA:0,_RINvMNtCshErCmUCaH2J_10ettlex_mcp5errorNtB3_8McpError3newReEB5_
FNDA:46,_RNCNvNtCshErCmUCaH2J_10ettlex_mcp5error14ex_code_to_mcp0B5_
FNF:4
FNH:4
DA:32,6
DA:33,6
DA:34,6
DA:35,6
DA:36,6
DA:37,6
DA:44,18
DA:45,18
DA:46,18
DA:47,18
DA:48,18
DA:49,18
DA:50,18
DA:51,18
DA:55,18
DA:56,18
DA:57,18
DA:58,18
DA:59,46
DA:60,46
DA:61,46
DA:62,0
DA:63,46
DA:65,46
DA:66,18
DA:67,18
BRF:0
BRH:0
LF:27
LH:26
end_of_record
SF:/Users/nick/Development/EttleX/EttleX-Project/Rust/crates/ettlex-mcp/src/main.rs
FN:442,_RINvCsdWc5fRa8hNY_10ettlex_mcp10tool_errorNtNtCs5bkkNO3hTYU_5alloc6string6StringEB2_
FN:442,_RINvCsdWc5fRa8hNY_10ettlex_mcp10tool_errorReEB2_
FN:455,_RNCNvCsdWc5fRa8hNY_10ettlex_mcp15resolve_db_path0B3_
FN:470,_RNCNvCsdWc5fRa8hNY_10ettlex_mcp16resolve_cas_path0B3_
FN:478,_RNCNvCsdWc5fRa8hNY_10ettlex_mcp16resolve_cas_paths_0B3_
FN:408,_RNCNvCsdWc5fRa8hNY_10ettlex_mcp17handle_tools_call0B3_
FN:104,_RNCNvCsdWc5fRa8hNY_10ettlex_mcp4main0B3_
FN:113,_RNCNvCsdWc5fRa8hNY_10ettlex_mcp4mains_0B3_
FN:153,_RNvCsdWc5fRa8hNY_10ettlex_mcp13jsonrpc_error
FN:149,_RNvCsdWc5fRa8hNY_10ettlex_mcp14jsonrpc_result
FN:453,_RNvCsdWc5fRa8hNY_10ettlex_mcp15resolve_db_path
FN:128,_RNvCsdWc5fRa8hNY_10ettlex_mcp16dispatch_jsonrpc
FN:468,_RNvCsdWc5fRa8hNY_10ettlex_mcp16resolve_cas_path
FN:161,_RNvCsdWc5fRa8hNY_10ettlex_mcp17handle_initialize
FN:402,_RNvCsdWc5fRa8hNY_10ettlex_mcp17handle_tools_call
FN:178,_RNvCsdWc5fRa8hNY_10ettlex_mcp17handle_tools_list
FN:43,_RNvCsdWc5fRa8hNY_10ettlex_mcp4main
FN:390,_RNvCsdWc5fRa8hNY_10ettlex_mcp8tool_def
FN:442,_RINvCs4TuIFlLhxCx_10ettlex_mcp10tool_errorpEB2_
FN:455,_RNCNvCs4TuIFlLhxCx_10ettlex_mcp15resolve_db_path0B3_
FN:470,_RNCNvCs4TuIFlLhxCx_10ettlex_mcp16resolve_cas_path0B3_
FN:478,_RNCNvCs4TuIFlLhxCx_10ettlex_mcp16resolve_cas_paths_0B3_
FN:408,_RNCNvCs4TuIFlLhxCx_10ettlex_mcp17handle_tools_call0B3_
FN:104,_RNCNvCs4TuIFlLhxCx_10ettlex_mcp4main0B3_
FN:113,_RNCNvCs4TuIFlLhxCx_10ettlex_mcp4mains_0B3_
FN:153,_RNvCs4TuIFlLhxCx_10ettlex_mcp13jsonrpc_error
FN:149,_RNvCs4TuIFlLhxCx_10ettlex_mcp14jsonrpc_result
FN:453,_RNvCs4TuIFlLhxCx_10ettlex_mcp15resolve_db_path
FN:128,_RNvCs4TuIFlLhxCx_10ettlex_mcp16dispatch_jsonrpc
FN:468,_RNvCs4TuIFlLhxCx_10ettlex_mcp16resolve_cas_path
FN:161,_RNvCs4TuIFlLhxCx_10ettlex_mcp17handle_initialize
FN:402,_RNvCs4TuIFlLhxCx_10ettlex_mcp17handle_tools_call
FN:178,_RNvCs4TuIFlLhxCx_10ettlex_mcp17handle_tools_list
FN:43,_RNvCs4TuIFlLhxCx_10ettlex_mcp4main
FN:390,_RNvCs4TuIFlLhxCx_10ettlex_mcp8tool_def
FNDA:0,_RINvCsdWc5fRa8hNY_10ettlex_mcp10tool_errorNtNtCs5bkkNO3hTYU_5alloc6string6StringEB2_
FNDA:0,_RINvCsdWc5fRa8hNY_10ettlex_mcp10tool_errorReEB2_
FNDA:0,_RNCNvCsdWc5fRa8hNY_10ettlex_mcp15resolve_db_path0B3_
FNDA:0,_RNCNvCsdWc5fRa8hNY_10ettlex_mcp16resolve_cas_path0B3_
FNDA:0,_RNCNvCsdWc5fRa8hNY_10ettlex_mcp16resolve_cas_paths_0B3_
FNDA:0,_RNCNvCsdWc5fRa8hNY_10ettlex_mcp17handle_tools_call0B3_
FNDA:0,_RNCNvCsdWc5fRa8hNY_10ettlex_mcp4main0B3_
FNDA:0,_RNCNvCsdWc5fRa8hNY_10ettlex_mcp4mains_0B3_
FNDA:0,_RNvCsdWc5fRa8hNY_10ettlex_mcp13jsonrpc_error
FNDA:0,_RNvCsdWc5fRa8hNY_10ettlex_mcp14jsonrpc_result
FNDA:0,_RNvCsdWc5fRa8hNY_10ettlex_mcp15resolve_db_path
FNDA:0,_RNvCsdWc5fRa8hNY_10ettlex_mcp16dispatch_jsonrpc
FNDA:0,_RNvCsdWc5fRa8hNY_10ettlex_mcp16resolve_cas_path
FNDA:0,_RNvCsdWc5fRa8hNY_10ettlex_mcp17handle_initialize
FNDA:0,_RNvCsdWc5fRa8hNY_10ettlex_mcp17handle_tools_call
FNDA:0,_RNvCsdWc5fRa8hNY_10ettlex_mcp17handle_tools_list
FNDA:0,_RNvCsdWc5fRa8hNY_10ettlex_mcp4main
FNDA:0,_RNvCsdWc5fRa8hNY_10ettlex_mcp8tool_def
FNDA:0,_RINvCs4TuIFlLhxCx_10ettlex_mcp10tool_errorpEB2_
FNDA:0,_RNCNvCs4TuIFlLhxCx_10ettlex_mcp15resolve_db_path0B3_
FNDA:0,_RNCNvCs4TuIFlLhxCx_10ettlex_mcp16resolve_cas_path0B3_
FNDA:0,_RNCNvCs4TuIFlLhxCx_10ettlex_mcp16resolve_cas_paths_0B3_
FNDA:0,_RNCNvCs4TuIFlLhxCx_10ettlex_mcp17handle_tools_call0B3_
FNDA:0,_RNCNvCs4TuIFlLhxCx_10ettlex_mcp4main0B3_
FNDA:0,_RNCNvCs4TuIFlLhxCx_10ettlex_mcp4mains_0B3_
FNDA:0,_RNvCs4TuIFlLhxCx_10ettlex_mcp13jsonrpc_error
FNDA:0,_RNvCs4TuIFlLhxCx_10ettlex_mcp14jsonrpc_result
FNDA:0,_RNvCs4TuIFlLhxCx_10ettlex_mcp15resolve_db_path
FNDA:0,_RNvCs4TuIFlLhxCx_10ettlex_mcp16dispatch_jsonrpc
FNDA:0,_RNvCs4TuIFlLhxCx_10ettlex_mcp16resolve_cas_path
FNDA:0,_RNvCs4TuIFlLhxCx_10ettlex_mcp17handle_initialize
FNDA:0,_RNvCs4TuIFlLhxCx_10ettlex_mcp17handle_tools_call
FNDA:0,_RNvCs4TuIFlLhxCx_10ettlex_mcp17handle_tools_list
FNDA:0,_RNvCs4TuIFlLhxCx_10ettlex_mcp4main
FNDA:0,_RNvCs4TuIFlLhxCx_10ettlex_mcp8tool_def
FNF:17
FNH:0
DA:43,0
DA:44,0
DA:45,0
DA:46,0
DA:49,0
DA:50,0
DA:51,0
DA:52,0
DA:53,0
DA:58,0
DA:61,0
DA:62,0
DA:63,0
DA:64,0
DA:66,0
DA:67,0
DA:70,0
DA:71,0
DA:72,0
DA:74,0
DA:75,0
DA:76,0
DA:77,0
DA:78,0
DA:79,0
DA:83,0
DA:84,0
DA:85,0
DA:87,0
DA:88,0
DA:89,0
DA:90,0
DA:91,0
DA:92,0
DA:93,0
DA:95,0
DA:96,0
DA:97,0
DA:102,0
DA:103,0
DA:104,0
DA:105,0
DA:107,0
DA:108,0
DA:110,0
DA:111,0
DA:112,0
DA:113,0
DA:114,0
DA:115,0
DA:116,0
DA:118,0
DA:119,0
DA:120,0
DA:122,0
DA:128,0
DA:129,0
DA:130,0
DA:131,0
DA:132,0
DA:133,0
DA:134,0
DA:135,0
DA:136,0
DA:137,0
DA:138,0
DA:139,0
DA:140,0
DA:141,0
DA:142,0
DA:145,0
DA:147,0
DA:149,0
DA:150,0
DA:151,0
DA:153,0
DA:154,0
DA:155,0
DA:161,0
DA:162,0
DA:163,0
DA:164,0
DA:165,0
DA:167,0
DA:168,0
DA:169,0
DA:172,0
DA:178,0
DA:179,0
DA:180,0
DA:181,0
DA:182,0
DA:183,0
DA:184,0
DA:185,0
DA:186,0
DA:187,0
DA:188,0
DA:189,0
DA:191,0
DA:192,0
DA:193,0
DA:198,0
DA:199,0
DA:200,0
DA:201,0
DA:202,0
DA:203,0
DA:204,0
DA:205,0
DA:209,0
DA:210,0
DA:211,0
DA:212,0
DA:213,0
DA:214,0
DA:215,0
DA:216,0
DA:220,0
DA:221,0
DA:222,0
DA:223,0
DA:224,0
DA:225,0
DA:226,0
DA:227,0
DA:231,0
DA:232,0
DA:233,0
DA:234,0
DA:235,0
DA:236,0
DA:237,0
DA:238,0
DA:242,0
DA:243,0
DA:244,0
DA:245,0
DA:246,0
DA:247,0
DA:248,0
DA:249,0
DA:253,0
DA:254,0
DA:255,0
DA:256,0
DA:257,0
DA:258,0
DA:259,0
DA:260,0
DA:264,0
DA:265,0
DA:266,0
DA:267,0
DA:268,0
DA:269,0
DA:270,0
DA:271,0
DA:275,0
DA:276,0
DA:277,0
DA:278,0
DA:279,0
DA:280,0
DA:281,0
DA:282,0
DA:286,0
DA:287,0
DA:288,0
DA:289,0
DA:290,0
DA:291,0
DA:292,0
DA:293,0
DA:294,0
DA:298,0
DA:299,0
DA:300,0
DA:301,0
DA:302,0
DA:303,0
DA:304,0
DA:305,0
DA:309,0
DA:310,0
DA:311,0
DA:312,0
DA:313,0
DA:314,0
DA:315,0
DA:316,0
DA:320,0
DA:321,0
DA:322,0
DA:323,0
DA:324,0
DA:325,0
DA:326,0
DA:327,0
DA:328,0
DA:332,0
DA:333,0
DA:334,0
DA:335,0
DA:336,0
DA:337,0
DA:338,0
DA:339,0
DA:343,0
DA:344,0
DA:345,0
DA:346,0
DA:347,0
DA:348,0
DA:349,0
DA:350,0
DA:354,0
DA:355,0
DA:356,0
DA:357,0
DA:359,0
DA:360,0
DA:361,0
DA:362,0
DA:363,0
DA:364,0
DA:365,0
DA:366,0
DA:370,0
DA:371,0
DA:372,0
DA:373,0
DA:374,0
DA:375,0
DA:376,0
DA:377,0
DA:378,0
DA:379,0
DA:380,0
DA:381,0
DA:387,0
DA:388,0
DA:390,0
DA:391,0
DA:392,0
DA:393,0
DA:394,0
DA:396,0
DA:402,0
DA:403,0
DA:404,0
DA:405,0
DA:406,0
DA:407,0
DA:408,0
DA:409,0
DA:411,0
DA:414,0
DA:415,0
DA:416,0
DA:417,0
DA:419,0
DA:420,0
DA:421,0
DA:422,0
DA:423,0
DA:424,0
DA:425,0
DA:426,0
DA:428,0
DA:430,0
DA:431,0
DA:432,0
DA:433,0
DA:434,0
DA:435,0
DA:438,0
DA:440,0
DA:442,0
DA:443,0
DA:444,0
DA:445,0
DA:447,0
DA:453,0
DA:455,0
DA:456,0
DA:457,0
DA:458,0
DA:459,0
DA:461,0
DA:462,0
DA:463,0
DA:465,0
DA:466,0
DA:468,0
DA:470,0
DA:471,0
DA:472,0
DA:473,0
DA:474,0
DA:476,0
DA:477,0
DA:478,0
DA:479,0
DA:480,0
BRF:0
BRH:0
LF:311
LH:0
end_of_record
SF:/Users/nick/Development/EttleX/EttleX-Project/Rust/crates/ettlex-mcp/src/server.rs
FN:73,_RNvMNtCshAxkkYTyPaH_10ettlex_mcp6serverNtB2_9McpServer14dispatch_inner
FN:48,_RNvMNtCshAxkkYTyPaH_10ettlex_mcp6serverNtB2_9McpServer3new
FN:56,_RNvMNtCshAxkkYTyPaH_10ettlex_mcp6serverNtB2_9McpServer8dispatch
FN:73,_RNvMNtCshErCmUCaH2J_10ettlex_mcp6serverNtB2_9McpServer14dispatch_inner
FN:48,_RNvMNtCshErCmUCaH2J_10ettlex_mcp6serverNtB2_9McpServer3new
FN:56,_RNvMNtCshErCmUCaH2J_10ettlex_mcp6serverNtB2_9McpServer8dispatch
FNDA:0,_RNvMNtCshAxkkYTyPaH_10ettlex_mcp6serverNtB2_9McpServer14dispatch_inner
FNDA:0,_RNvMNtCshAxkkYTyPaH_10ettlex_mcp6serverNtB2_9McpServer3new
FNDA:0,_RNvMNtCshAxkkYTyPaH_10ettlex_mcp6serverNtB2_9McpServer8dispatch
FNDA:73,_RNvMNtCshErCmUCaH2J_10ettlex_mcp6serverNtB2_9McpServer14dispatch_inner
FNDA:46,_RNvMNtCshErCmUCaH2J_10ettlex_mcp6serverNtB2_9McpServer3new
FNDA:73,_RNvMNtCshErCmUCaH2J_10ettlex_mcp6serverNtB2_9McpServer8dispatch
FNF:3
FNH:3
DA:48,46
DA:49,46
DA:50,46
DA:51,46
DA:52,46
DA:53,46
DA:56,73
DA:57,73
DA:58,73
DA:59,73
DA:60,73
DA:61,73
DA:62,73
DA:63,73
DA:64,73
DA:66,73
DA:67,73
DA:68,73
DA:69,73
DA:70,73
DA:71,73
DA:73,73
DA:74,73
DA:75,73
DA:76,73
DA:77,73
DA:78,73
DA:79,73
DA:80,73
DA:82,73
DA:83,1
DA:84,1
DA:85,1
DA:86,1
DA:87,1
DA:88,1
DA:89,1
DA:90,72
DA:93,72
DA:94,1
DA:95,71
DA:98,71
DA:99,71
DA:101,71
DA:104,43
DA:105,38
DA:106,31
DA:109,30
DA:112,29
DA:113,27
DA:114,27
DA:115,2
DA:117,25
DA:118,1
DA:120,24
DA:123,21
DA:124,19
DA:125,17
DA:126,3
DA:130,14
DA:131,10
DA:132,8
DA:133,1
DA:137,7
DA:140,6
DA:141,5
DA:145,1
DA:146,1
DA:147,1
DA:148,1
DA:150,73
BRF:0
BRH:0
LF:71
LH:71
end_of_record
SF:/Users/nick/Development/EttleX/EttleX-Project/Rust/crates/ettlex-mcp/src/tools/apply.rs
FN:15,_RNvNtNtCshAxkkYTyPaH_10ettlex_mcp5tools5apply12handle_apply
FN:82,_RNvNtNtCshAxkkYTyPaH_10ettlex_mcp5tools5apply26mcp_command_result_to_json
FN:15,_RNvNtNtCshErCmUCaH2J_10ettlex_mcp5tools5apply12handle_apply
FN:82,_RNvNtNtCshErCmUCaH2J_10ettlex_mcp5tools5apply26mcp_command_result_to_json
FNDA:0,_RNvNtNtCshAxkkYTyPaH_10ettlex_mcp5tools5apply12handle_apply
FNDA:0,_RNvNtNtCshAxkkYTyPaH_10ettlex_mcp5tools5apply26mcp_command_result_to_json
FNDA:29,_RNvNtNtCshErCmUCaH2J_10ettlex_mcp5tools5apply12handle_apply
FNDA:18,_RNvNtNtCshErCmUCaH2J_10ettlex_mcp5tools5apply26mcp_command_result_to_json
FNF:2
FNH:2
DA:15,29
DA:16,29
DA:17,29
DA:18,29
DA:19,29
DA:20,29
DA:21,29
DA:23,29
DA:24,1
DA:25,1
DA:27,0
DA:28,0
DA:29,0
DA:30,0
DA:33,28
DA:35,0
DA:36,0
DA:37,0
DA:38,0
DA:43,29
DA:44,29
DA:45,0
DA:48,29
DA:49,27
DA:50,2
DA:51,2
DA:53,2
DA:54,1
DA:56,1
DA:58,2
DA:63,27
DA:64,27
DA:65,27
DA:66,27
DA:67,27
DA:68,27
DA:69,27
DA:70,27
DA:71,18
DA:72,18
DA:73,18
DA:74,18
DA:75,18
DA:76,18
DA:78,9
DA:80,29
DA:82,18
DA:83,18
DA:85,10
DA:86,10
DA:87,10
DA:88,10
DA:89,10
DA:90,10
DA:92,0
DA:93,0
DA:94,0
DA:96,2
DA:97,2
DA:98,2
DA:100,0
DA:101,0
DA:102,0
DA:104,2
DA:105,2
DA:106,2
DA:108,0
DA:109,2
DA:110,1
DA:111,1
DA:113,18
BRF:0
BRH:0
LF:71
LH:55
end_of_record
SF:/Users/nick/Development/EttleX/EttleX-Project/Rust/crates/ettlex-mcp/src/tools/approval.rs
FN:14,_RNvNtNtCshAxkkYTyPaH_10ettlex_mcp5tools8approval19handle_approval_get
FN:14,_RNvNtNtCshErCmUCaH2J_10ettlex_mcp5tools8approval19handle_approval_get
FNDA:0,_RNvNtNtCshAxkkYTyPaH_10ettlex_mcp5tools8approval19handle_approval_get
FNDA:1,_RNvNtNtCshErCmUCaH2J_10ettlex_mcp5tools8approval19handle_approval_get
FNF:1
FNH:1
DA:14,1
DA:15,1
DA:16,1
DA:17,1
DA:18,1
DA:19,1
DA:20,1
DA:21,1
DA:23,0
DA:24,0
DA:25,0
DA:26,0
DA:30,1
DA:31,1
DA:32,1
DA:33,1
DA:34,1
DA:35,1
DA:36,0
DA:38,0
DA:39,0
DA:40,0
DA:41,0
DA:42,0
DA:43,0
DA:44,0
DA:46,0
DA:49,1
DA:51,1
BRF:0
BRH:0
LF:29
LH:16
end_of_record
SF:/Users/nick/Development/EttleX/EttleX-Project/Rust/crates/ettlex-mcp/src/tools/ep.rs
FN:14,_RNvNtNtCshAxkkYTyPaH_10ettlex_mcp5tools2ep13handle_ep_get
FN:14,_RNvNtNtCshErCmUCaH2J_10ettlex_mcp5tools2ep13handle_ep_get
FNDA:0,_RNvNtNtCshAxkkYTyPaH_10ettlex_mcp5tools2ep13handle_ep_get
FNDA:1,_RNvNtNtCshErCmUCaH2J_10ettlex_mcp5tools2ep13handle_ep_get
FNF:1
FNH:1
DA:14,1
DA:15,1
DA:16,1
DA:17,1
DA:18,1
DA:19,1
DA:20,1
DA:21,1
DA:22,0
DA:25,1
DA:26,1
DA:27,1
DA:28,1
DA:29,1
DA:30,1
DA:31,1
DA:33,1
DA:34,1
DA:35,1
DA:36,1
DA:37,1
DA:38,1
DA:39,1
DA:40,1
DA:41,1
DA:42,1
DA:43,1
DA:45,0
DA:48,0
DA:50,1
BRF:0
BRH:0
LF:30
LH:27
end_of_record
SF:/Users/nick/Development/EttleX/EttleX-Project/Rust/crates/ettlex-mcp/src/tools/ettle.rs
FN:78,_RNCNvNtNtCshAxkkYTyPaH_10ettlex_mcp5tools5ettle17handle_ettle_list0B7_
FN:126,_RNCNvNtNtCshAxkkYTyPaH_10ettlex_mcp5tools5ettle21handle_ettle_list_eps0B7_
FN:148,_RNvNtNtCshAxkkYTyPaH_10ettlex_mcp5tools5ettle15parse_list_opts
FN:15,_RNvNtNtCshAxkkYTyPaH_10ettlex_mcp5tools5ettle16handle_ettle_get
FN:55,_RNvNtNtCshAxkkYTyPaH_10ettlex_mcp5tools5ettle17handle_ettle_list
FN:102,_RNvNtNtCshAxkkYTyPaH_10ettlex_mcp5tools5ettle21handle_ettle_list_eps
FN:78,_RNCNvNtNtCshErCmUCaH2J_10ettlex_mcp5tools5ettle17handle_ettle_list0B7_
FN:126,_RNCNvNtNtCshErCmUCaH2J_10ettlex_mcp5tools5ettle21handle_ettle_list_eps0B7_
FN:148,_RNvNtNtCshErCmUCaH2J_10ettlex_mcp5tools5ettle15parse_list_opts
FN:15,_RNvNtNtCshErCmUCaH2J_10ettlex_mcp5tools5ettle16handle_ettle_get
FN:55,_RNvNtNtCshErCmUCaH2J_10ettlex_mcp5tools5ettle17handle_ettle_list
FN:102,_RNvNtNtCshErCmUCaH2J_10ettlex_mcp5tools5ettle21handle_ettle_list_eps
FNDA:0,_RNCNvNtNtCshAxkkYTyPaH_10ettlex_mcp5tools5ettle17handle_ettle_list0B7_
FNDA:0,_RNCNvNtNtCshAxkkYTyPaH_10ettlex_mcp5tools5ettle21handle_ettle_list_eps0B7_
FNDA:0,_RNvNtNtCshAxkkYTyPaH_10ettlex_mcp5tools5ettle15parse_list_opts
FNDA:0,_RNvNtNtCshAxkkYTyPaH_10ettlex_mcp5tools5ettle16handle_ettle_get
FNDA:0,_RNvNtNtCshAxkkYTyPaH_10ettlex_mcp5tools5ettle17handle_ettle_list
FNDA:0,_RNvNtNtCshAxkkYTyPaH_10ettlex_mcp5tools5ettle21handle_ettle_list_eps
FNDA:401,_RNCNvNtNtCshErCmUCaH2J_10ettlex_mcp5tools5ettle17handle_ettle_list0B7_
FNDA:10,_RNCNvNtNtCshErCmUCaH2J_10ettlex_mcp5tools5ettle21handle_ettle_list_eps0B7_
FNDA:13,_RNvNtNtCshErCmUCaH2J_10ettlex_mcp5tools5ettle15parse_list_opts
FNDA:5,_RNvNtNtCshErCmUCaH2J_10ettlex_mcp5tools5ettle16handle_ettle_get
FNDA:7,_RNvNtNtCshErCmUCaH2J_10ettlex_mcp5tools5ettle17handle_ettle_list
FNDA:1,_RNvNtNtCshErCmUCaH2J_10ettlex_mcp5tools5ettle21handle_ettle_list_eps
FNF:6
FNH:6
DA:15,5
DA:16,5
DA:17,5
DA:18,5
DA:19,5
DA:20,5
DA:21,5
DA:22,5
DA:24,0
DA:28,5
DA:29,5
DA:30,5
DA:31,5
DA:32,5
DA:33,5
DA:34,5
DA:36,5
DA:37,5
DA:38,5
DA:39,5
DA:40,5
DA:41,5
DA:42,5
DA:43,5
DA:45,0
DA:48,0
DA:50,5
DA:55,7
DA:56,7
DA:57,7
DA:58,7
DA:59,7
DA:60,7
DA:61,7
DA:62,6
DA:63,1
DA:66,6
DA:67,6
DA:68,6
DA:69,6
DA:70,6
DA:71,6
DA:72,6
DA:74,6
DA:75,6
DA:76,6
DA:77,6
DA:78,401
DA:79,401
DA:80,401
DA:81,401
DA:82,401
DA:84,401
DA:85,6
DA:86,6
DA:87,6
DA:88,4
DA:89,4
DA:90,6
DA:92,0
DA:95,0
DA:97,7
DA:102,1
DA:103,1
DA:104,1
DA:105,1
DA:106,1
DA:107,1
DA:108,1
DA:109,1
DA:111,0
DA:115,1
DA:116,1
DA:117,1
DA:118,1
DA:119,1
DA:120,1
DA:121,1
DA:123,1
DA:124,1
DA:125,1
DA:126,10
DA:127,10
DA:128,10
DA:129,10
DA:130,10
DA:131,10
DA:133,10
DA:134,1
DA:135,1
DA:137,0
DA:140,0
DA:142,1
DA:148,13
DA:149,13
DA:150,4
DA:151,9
DA:153,0
DA:154,0
DA:155,0
DA:156,0
DA:161,13
DA:162,2
DA:164,2
DA:165,1
DA:166,1
DA:167,1
DA:168,1
DA:169,1
DA:170,1
DA:172,11
DA:174,0
DA:175,0
DA:176,0
DA:177,0
DA:181,12
DA:182,12
DA:183,12
DA:184,12
DA:185,12
DA:186,13
BRF:0
BRH:0
LF:123
LH:107
end_of_record
SF:/Users/nick/Development/EttleX/EttleX-Project/Rust/crates/ettlex-mcp/src/tools/policy.rs
FN:67,_RNCNvNtNtCshAxkkYTyPaH_10ettlex_mcp5tools6policy18handle_policy_list0B7_
FN:77,_RNCNvNtNtCshAxkkYTyPaH_10ettlex_mcp5tools6policy18handle_policy_lists_0B7_
FN:15,_RNvNtNtCshAxkkYTyPaH_10ettlex_mcp5tools6policy17handle_policy_get
FN:55,_RNvNtNtCshAxkkYTyPaH_10ettlex_mcp5tools6policy18handle_policy_list
FN:91,_RNvNtNtCshAxkkYTyPaH_10ettlex_mcp5tools6policy33handle_policy_project_for_handoff
FN:15,_RNvNtNtCshErCmUCaH2J_10ettlex_mcp5tools6policy17handle_policy_get
FN:55,_RNvNtNtCshErCmUCaH2J_10ettlex_mcp5tools6policy18handle_policy_list
FN:91,_RNvNtNtCshErCmUCaH2J_10ettlex_mcp5tools6policy33handle_policy_project_for_handoff
FN:67,_RNCNvNtNtCshErCmUCaH2J_10ettlex_mcp5tools6policy18handle_policy_list0B7_
FN:77,_RNCNvNtNtCshErCmUCaH2J_10ettlex_mcp5tools6policy18handle_policy_lists_0B7_
FNDA:0,_RNCNvNtNtCshAxkkYTyPaH_10ettlex_mcp5tools6policy18handle_policy_list0B7_
FNDA:0,_RNCNvNtNtCshAxkkYTyPaH_10ettlex_mcp5tools6policy18handle_policy_lists_0B7_
FNDA:0,_RNvNtNtCshAxkkYTyPaH_10ettlex_mcp5tools6policy17handle_policy_get
FNDA:0,_RNvNtNtCshAxkkYTyPaH_10ettlex_mcp5tools6policy18handle_policy_list
FNDA:0,_RNvNtNtCshAxkkYTyPaH_10ettlex_mcp5tools6policy33handle_policy_project_for_handoff
FNDA:2,_RNvNtNtCshErCmUCaH2J_10ettlex_mcp5tools6policy17handle_policy_get
FNDA:2,_RNvNtNtCshErCmUCaH2J_10ettlex_mcp5tools6policy18handle_policy_list
FNDA:3,_RNvNtNtCshErCmUCaH2J_10ettlex_mcp5tools6policy33handle_policy_project_for_handoff
FNDA:1,_RNCNvNtNtCshErCmUCaH2J_10ettlex_mcp5tools6policy18handle_policy_list0B7_
FNDA:0,_RNCNvNtNtCshErCmUCaH2J_10ettlex_mcp5tools6policy18handle_policy_lists_0B7_
FNF:5
FNH:4
DA:15,2
DA:16,2
DA:17,2
DA:18,2
DA:19,2
DA:20,2
DA:21,2
DA:22,2
DA:24,0
DA:25,0
DA:26,0
DA:27,0
DA:31,2
DA:32,2
DA:33,2
DA:34,2
DA:35,2
DA:36,2
DA:37,0
DA:39,0
DA:40,0
DA:41,0
DA:42,0
DA:43,0
DA:45,0
DA:48,2
DA:50,2
DA:55,2
DA:56,2
DA:57,2
DA:58,2
DA:59,2
DA:60,2
DA:61,2
DA:62,0
DA:63,2
DA:64,2
DA:65,2
DA:66,2
DA:67,2
DA:68,2
DA:70,2
DA:71,2
DA:73,2
DA:74,2
DA:75,2
DA:76,2
DA:77,2
DA:78,2
DA:79,2
DA:81,0
DA:84,0
DA:86,2
DA:91,3
DA:92,3
DA:93,3
DA:94,3
DA:95,3
DA:96,3
DA:97,3
DA:98,3
DA:100,0
DA:101,0
DA:102,0
DA:103,0
DA:106,3
DA:107,3
DA:108,3
DA:109,3
DA:111,3
DA:112,3
DA:113,3
DA:114,3
DA:115,3
DA:116,3
DA:117,3
DA:118,3
DA:119,3
DA:120,0
DA:122,0
DA:123,0
DA:124,0
DA:125,0
DA:126,0
DA:127,0
DA:128,0
DA:130,0
DA:133,3
DA:135,3
BRF:0
BRH:0
LF:91
LH:63
end_of_record
SF:/Users/nick/Development/EttleX/EttleX-Project/Rust/crates/ettlex-mcp/src/tools/predicate.rs
FN:33,_RNCNvNtNtCshAxkkYTyPaH_10ettlex_mcp5tools9predicate24handle_predicate_preview0B7_
FN:14,_RNvNtNtCshAxkkYTyPaH_10ettlex_mcp5tools9predicate24handle_predicate_preview
FN:14,_RNvNtNtCshErCmUCaH2J_10ettlex_mcp5tools9predicate24handle_predicate_preview
FN:33,_RNCNvNtNtCshErCmUCaH2J_10ettlex_mcp5tools9predicate24handle_predicate_preview0B7_
FNDA:0,_RNCNvNtNtCshAxkkYTyPaH_10ettlex_mcp5tools9predicate24handle_predicate_preview0B7_
FNDA:0,_RNvNtNtCshAxkkYTyPaH_10ettlex_mcp5tools9predicate24handle_predicate_preview
FNDA:5,_RNvNtNtCshErCmUCaH2J_10ettlex_mcp5tools9predicate24handle_predicate_preview
FNDA:4,_RNCNvNtNtCshErCmUCaH2J_10ettlex_mcp5tools9predicate24handle_predicate_preview0B7_
FNF:2
FNH:2
DA:14,5
DA:15,5
DA:16,5
DA:17,5
DA:18,5
DA:19,5
DA:20,5
DA:21,5
DA:22,5
DA:23,5
DA:25,5
DA:26,5
DA:27,0
DA:30,5
DA:31,5
DA:32,5
DA:33,5
DA:34,5
DA:35,0
DA:37,0
DA:38,0
DA:39,0
DA:40,0
DA:44,5
DA:45,5
DA:46,5
DA:47,5
DA:48,5
DA:49,5
DA:50,5
DA:51,5
DA:52,5
DA:53,5
DA:54,5
DA:57,5
DA:58,5
DA:59,0
DA:60,3
DA:61,2
DA:62,0
DA:64,5
DA:65,5
DA:66,5
DA:67,5
DA:68,5
DA:70,0
DA:73,0
DA:75,5
BRF:0
BRH:0
LF:49
LH:39
end_of_record
SF:/Users/nick/Development/EttleX/EttleX-Project/Rust/crates/ettlex-mcp/src/tools/profile.rs
FN:80,_RNCNvNtNtCshAxkkYTyPaH_10ettlex_mcp5tools7profile19handle_profile_list0B7_
FN:16,_RNvNtNtCshAxkkYTyPaH_10ettlex_mcp5tools7profile18handle_profile_get
FN:57,_RNvNtNtCshAxkkYTyPaH_10ettlex_mcp5tools7profile19handle_profile_list
FN:103,_RNvNtNtCshAxkkYTyPaH_10ettlex_mcp5tools7profile26handle_profile_get_default
FN:132,_RNvNtNtCshAxkkYTyPaH_10ettlex_mcp5tools7profile9__use_opts
FN:16,_RNvNtNtCshErCmUCaH2J_10ettlex_mcp5tools7profile18handle_profile_get
FN:57,_RNvNtNtCshErCmUCaH2J_10ettlex_mcp5tools7profile19handle_profile_list
FN:103,_RNvNtNtCshErCmUCaH2J_10ettlex_mcp5tools7profile26handle_profile_get_default
FN:80,_RNCNvNtNtCshErCmUCaH2J_10ettlex_mcp5tools7profile19handle_profile_list0B7_
FNDA:0,_RNCNvNtNtCshAxkkYTyPaH_10ettlex_mcp5tools7profile19handle_profile_list0B7_
FNDA:0,_RNvNtNtCshAxkkYTyPaH_10ettlex_mcp5tools7profile18handle_profile_get
FNDA:0,_RNvNtNtCshAxkkYTyPaH_10ettlex_mcp5tools7profile19handle_profile_list
FNDA:0,_RNvNtNtCshAxkkYTyPaH_10ettlex_mcp5tools7profile26handle_profile_get_default
FNDA:0,_RNvNtNtCshAxkkYTyPaH_10ettlex_mcp5tools7profile9__use_opts
FNDA:4,_RNvNtNtCshErCmUCaH2J_10ettlex_mcp5tools7profile18handle_profile_get
FNDA:2,_RNvNtNtCshErCmUCaH2J_10ettlex_mcp5tools7profile19handle_profile_list
FNDA:1,_RNvNtNtCshErCmUCaH2J_10ettlex_mcp5tools7profile26handle_profile_get_default
FNDA:100,_RNCNvNtNtCshErCmUCaH2J_10ettlex_mcp5tools7profile19handle_profile_list0B7_
FNF:5
FNH:4
DA:16,4
DA:17,4
DA:18,4
DA:19,4
DA:20,4
DA:21,4
DA:22,4
DA:23,4
DA:25,0
DA:26,0
DA:27,0
DA:28,0
DA:32,4
DA:33,4
DA:34,4
DA:35,4
DA:36,4
DA:37,4
DA:38,3
DA:40,3
DA:41,3
DA:42,3
DA:43,3
DA:44,3
DA:45,3
DA:47,0
DA:50,1
DA:52,4
DA:57,2
DA:58,2
DA:59,2
DA:60,2
DA:61,2
DA:62,2
DA:63,2
DA:64,2
DA:65,0
DA:68,2
DA:69,2
DA:70,2
DA:71,2
DA:72,2
DA:73,2
DA:74,2
DA:76,2
DA:77,2
DA:78,2
DA:79,2
DA:80,100
DA:81,100
DA:82,100
DA:83,100
DA:85,100
DA:86,2
DA:87,2
DA:88,2
DA:89,1
DA:90,1
DA:91,2
DA:93,0
DA:96,0
DA:98,2
DA:103,1
DA:104,1
DA:105,1
DA:106,1
DA:107,1
DA:108,1
DA:109,1
DA:110,1
DA:111,1
DA:112,1
DA:113,1
DA:114,1
DA:115,1
DA:116,1
DA:118,1
DA:119,1
DA:120,1
DA:121,1
DA:122,1
DA:123,1
DA:125,0
DA:128,0
DA:130,1
DA:132,0
BRF:0
BRH:0
LF:87
LH:76
end_of_record
SF:/Users/nick/Development/EttleX/EttleX-Project/Rust/crates/ettlex-mcp/src/tools/snapshot.rs
FN:33,_RNCNvNtNtCshAxkkYTyPaH_10ettlex_mcp5tools8snapshot20handle_snapshot_list0B7_
FN:49,_RNCNvNtNtCshAxkkYTyPaH_10ettlex_mcp5tools8snapshot20handle_snapshot_lists_0B7_
FN:253,_RNvNtNtCshAxkkYTyPaH_10ettlex_mcp5tools8snapshot14__use_list_opts
FN:78,_RNvNtNtCshAxkkYTyPaH_10ettlex_mcp5tools8snapshot19handle_snapshot_get
FN:204,_RNvNtNtCshAxkkYTyPaH_10ettlex_mcp5tools8snapshot20handle_snapshot_diff
FN:16,_RNvNtNtCshAxkkYTyPaH_10ettlex_mcp5tools8snapshot20handle_snapshot_list
FN:123,_RNvNtNtCshAxkkYTyPaH_10ettlex_mcp5tools8snapshot24handle_snapshot_get_head
FN:162,_RNvNtNtCshAxkkYTyPaH_10ettlex_mcp5tools8snapshot28handle_snapshot_get_manifest
FN:33,_RNCNvNtNtCshErCmUCaH2J_10ettlex_mcp5tools8snapshot20handle_snapshot_list0B7_
FN:49,_RNCNvNtNtCshErCmUCaH2J_10ettlex_mcp5tools8snapshot20handle_snapshot_lists_0B7_
FN:78,_RNvNtNtCshErCmUCaH2J_10ettlex_mcp5tools8snapshot19handle_snapshot_get
FN:204,_RNvNtNtCshErCmUCaH2J_10ettlex_mcp5tools8snapshot20handle_snapshot_diff
FN:16,_RNvNtNtCshErCmUCaH2J_10ettlex_mcp5tools8snapshot20handle_snapshot_list
FN:123,_RNvNtNtCshErCmUCaH2J_10ettlex_mcp5tools8snapshot24handle_snapshot_get_head
FN:162,_RNvNtNtCshErCmUCaH2J_10ettlex_mcp5tools8snapshot28handle_snapshot_get_manifest
FNDA:0,_RNCNvNtNtCshAxkkYTyPaH_10ettlex_mcp5tools8snapshot20handle_snapshot_list0B7_
FNDA:0,_RNCNvNtNtCshAxkkYTyPaH_10ettlex_mcp5tools8snapshot20handle_snapshot_lists_0B7_
FNDA:0,_RNvNtNtCshAxkkYTyPaH_10ettlex_mcp5tools8snapshot14__use_list_opts
FNDA:0,_RNvNtNtCshAxkkYTyPaH_10ettlex_mcp5tools8snapshot19handle_snapshot_get
FNDA:0,_RNvNtNtCshAxkkYTyPaH_10ettlex_mcp5tools8snapshot20handle_snapshot_diff
FNDA:0,_RNvNtNtCshAxkkYTyPaH_10ettlex_mcp5tools8snapshot20handle_snapshot_list
FNDA:0,_RNvNtNtCshAxkkYTyPaH_10ettlex_mcp5tools8snapshot24handle_snapshot_get_head
FNDA:0,_RNvNtNtCshAxkkYTyPaH_10ettlex_mcp5tools8snapshot28handle_snapshot_get_manifest
FNDA:0,_RNCNvNtNtCshErCmUCaH2J_10ettlex_mcp5tools8snapshot20handle_snapshot_list0B7_
FNDA:1,_RNCNvNtNtCshErCmUCaH2J_10ettlex_mcp5tools8snapshot20handle_snapshot_lists_0B7_
FNDA:0,_RNvNtNtCshErCmUCaH2J_10ettlex_mcp5tools8snapshot19handle_snapshot_get
FNDA:3,_RNvNtNtCshErCmUCaH2J_10ettlex_mcp5tools8snapshot20handle_snapshot_diff
FNDA:2,_RNvNtNtCshErCmUCaH2J_10ettlex_mcp5tools8snapshot20handle_snapshot_list
FNDA:2,_RNvNtNtCshErCmUCaH2J_10ettlex_mcp5tools8snapshot24handle_snapshot_get_head
FNDA:1,_RNvNtNtCshErCmUCaH2J_10ettlex_mcp5tools8snapshot28handle_snapshot_get_manifest
FNF:8
FNH:5
DA:16,2
DA:17,2
DA:18,2
DA:19,2
DA:20,2
DA:21,2
DA:22,2
DA:23,2
DA:24,2
DA:25,2
DA:26,2
DA:27,0
DA:28,2
DA:30,2
DA:31,2
DA:32,2
DA:33,2
DA:35,2
DA:36,2
DA:37,2
DA:38,2
DA:39,2
DA:40,2
DA:41,2
DA:43,2
DA:44,2
DA:45,2
DA:46,2
DA:47,2
DA:48,2
DA:49,2
DA:50,1
DA:51,1
DA:52,1
DA:53,1
DA:54,1
DA:55,1
DA:57,1
DA:58,2
DA:59,2
DA:60,2
DA:61,0
DA:62,0
DA:63,0
DA:64,0
DA:65,2
DA:66,2
DA:68,0
DA:71,0
DA:73,2
DA:78,0
DA:79,0
DA:80,0
DA:81,0
DA:82,0
DA:83,0
DA:84,0
DA:85,0
DA:87,0
DA:88,0
DA:89,0
DA:90,0
DA:94,0
DA:95,0
DA:96,0
DA:97,0
DA:98,0
DA:99,0
DA:100,0
DA:102,0
DA:103,0
DA:104,0
DA:105,0
DA:106,0
DA:107,0
DA:108,0
DA:109,0
DA:110,0
DA:111,0
DA:113,0
DA:116,0
DA:118,0
DA:123,2
DA:124,2
DA:125,2
DA:126,2
DA:127,2
DA:128,2
DA:129,2
DA:130,2
DA:132,0
DA:136,2
DA:137,2
DA:138,2
DA:139,2
DA:140,2
DA:141,2
DA:142,2
DA:143,2
DA:144,2
DA:146,2
DA:147,2
DA:148,2
DA:149,0
DA:152,0
DA:155,0
DA:157,2
DA:162,1
DA:163,1
DA:164,1
DA:165,1
DA:166,1
DA:167,1
DA:168,1
DA:169,1
DA:171,0
DA:172,0
DA:173,0
DA:174,0
DA:178,1
DA:179,1
DA:180,1
DA:181,1
DA:182,1
DA:183,1
DA:184,1
DA:186,1
DA:187,1
DA:188,1
DA:189,1
DA:190,1
DA:191,1
DA:192,1
DA:194,0
DA:197,0
DA:199,1
DA:204,3
DA:205,3
DA:206,3
DA:207,3
DA:208,3
DA:209,3
DA:210,3
DA:211,3
DA:213,0
DA:214,0
DA:215,0
DA:216,0
DA:219,3
DA:220,3
DA:222,0
DA:223,0
DA:224,0
DA:225,0
DA:229,3
DA:230,3
DA:231,3
DA:232,3
DA:234,3
DA:235,1
DA:237,1
DA:238,1
DA:239,1
DA:240,1
DA:241,1
DA:242,1
DA:243,1
DA:245,0
DA:248,2
DA:250,3
DA:253,0
BRF:0
BRH:0
LF:173
LH:113
end_of_record
SF:/Users/nick/Development/EttleX/EttleX-Project/Rust/crates/ettlex-projection/src/lib.rs
FN:3,_RNvCshVxtivJt42B_17ettlex_projection5hello
FNDA:0,_RNvCshVxtivJt42B_17ettlex_projection5hello
FNF:1
FNH:0
DA:3,0
DA:4,0
DA:5,0
BRF:0
BRH:0
LF:3
LH:0
end_of_record
SF:/Users/nick/Development/EttleX/EttleX-Project/Rust/crates/ettlex-store/src/cas/atomic.rs
FN:17,_RNCNvNtNtCs3PiHhja6dWM_12ettlex_store3cas6atomic12atomic_write0B7_
FN:27,_RNCNvNtNtCs3PiHhja6dWM_12ettlex_store3cas6atomic12atomic_writes0_0B7_
FN:24,_RNCNvNtNtCs3PiHhja6dWM_12ettlex_store3cas6atomic12atomic_writes_0B7_
FN:14,_RNvNtNtCs3PiHhja6dWM_12ettlex_store3cas6atomic12atomic_write
FN:14,_RNvNtNtCsiIWUB9x025h_12ettlex_store3cas6atomic12atomic_write
FN:73,_RNCNCNvNtNtNtCsiIWUB9x025h_12ettlex_store3cas6atomic5testss_29test_no_tmp_files_after_writes_00Bb_
FN:69,_RNCNvNtNtNtCsiIWUB9x025h_12ettlex_store3cas6atomic5testss_29test_no_tmp_files_after_write0B9_
FN:70,_RNCNvNtNtNtCsiIWUB9x025h_12ettlex_store3cas6atomic5testss_29test_no_tmp_files_after_writes_0B9_
FN:17,_RNCNvNtNtCsiIWUB9x025h_12ettlex_store3cas6atomic12atomic_write0B7_
FN:27,_RNCNvNtNtCsiIWUB9x025h_12ettlex_store3cas6atomic12atomic_writes0_0B7_
FN:24,_RNCNvNtNtCsiIWUB9x025h_12ettlex_store3cas6atomic12atomic_writes_0B7_
FN:38,_RNvNtNtNtCsiIWUB9x025h_12ettlex_store3cas6atomic5testss_17test_atomic_write
FN:60,_RNvNtNtNtCsiIWUB9x025h_12ettlex_store3cas6atomic5testss_29test_no_tmp_files_after_write
FN:49,_RNvNtNtNtCsiIWUB9x025h_12ettlex_store3cas6atomic5testss_32test_atomic_write_creates_parent
FNDA:1,_RNCNvNtNtCs3PiHhja6dWM_12ettlex_store3cas6atomic12atomic_write0B7_
FNDA:0,_RNCNvNtNtCs3PiHhja6dWM_12ettlex_store3cas6atomic12atomic_writes0_0B7_
FNDA:0,_RNCNvNtNtCs3PiHhja6dWM_12ettlex_store3cas6atomic12atomic_writes_0B7_
FNDA:66,_RNvNtNtCs3PiHhja6dWM_12ettlex_store3cas6atomic12atomic_write
FNDA:6,_RNvNtNtCsiIWUB9x025h_12ettlex_store3cas6atomic12atomic_write
FNDA:1,_RNCNCNvNtNtNtCsiIWUB9x025h_12ettlex_store3cas6atomic5testss_29test_no_tmp_files_after_writes_00Bb_
FNDA:1,_RNCNvNtNtNtCsiIWUB9x025h_12ettlex_store3cas6atomic5testss_29test_no_tmp_files_after_write0B9_
FNDA:1,_RNCNvNtNtNtCsiIWUB9x025h_12ettlex_store3cas6atomic5testss_29test_no_tmp_files_after_writes_0B9_
FNDA:0,_RNCNvNtNtCsiIWUB9x025h_12ettlex_store3cas6atomic12atomic_write0B7_
FNDA:0,_RNCNvNtNtCsiIWUB9x025h_12ettlex_store3cas6atomic12atomic_writes0_0B7_
FNDA:0,_RNCNvNtNtCsiIWUB9x025h_12ettlex_store3cas6atomic12atomic_writes_0B7_
FNDA:1,_RNvNtNtNtCsiIWUB9x025h_12ettlex_store3cas6atomic5testss_17test_atomic_write
FNDA:1,_RNvNtNtNtCsiIWUB9x025h_12ettlex_store3cas6atomic5testss_29test_no_tmp_files_after_write
FNDA:1,_RNvNtNtNtCsiIWUB9x025h_12ettlex_store3cas6atomic5testss_32test_atomic_write_creates_parent
FNF:10
FNH:8
DA:14,72
DA:16,72
DA:17,72
DA:18,0
DA:21,71
DA:24,71
DA:27,71
DA:29,71
DA:30,72
DA:38,1
DA:39,1
DA:40,1
DA:42,1
DA:44,1
DA:45,1
DA:46,1
DA:49,1
DA:50,1
DA:51,1
DA:53,1
DA:55,1
DA:56,1
DA:57,1
DA:60,1
DA:61,1
DA:62,1
DA:64,1
DA:67,1
DA:68,1
DA:69,1
DA:70,1
DA:71,1
DA:72,1
DA:73,1
DA:74,1
DA:75,1
DA:76,1
DA:78,1
DA:79,1
BRF:0
BRH:0
LF:45
LH:42
end_of_record
SF:/Users/nick/Development/EttleX/EttleX-Project/Rust/crates/ettlex-store/src/cas/fs_store.rs
FN:21,_RINvMNtNtCs3PiHhja6dWM_12ettlex_store3cas8fs_storeNtB3_7FsStore3newNtNtCs3rJPW0F9RIs_3std4path7PathBufECselWHORvKXC2_35action_read_tools_integration_tests
FN:21,_RINvMNtNtCs3PiHhja6dWM_12ettlex_store3cas8fs_storeNtB3_7FsStore3newpEB7_
FN:68,_RNCNvMNtNtCs3PiHhja6dWM_12ettlex_store3cas8fs_storeNtB4_7FsStore4read0B8_
FN:41,_RNCNvMNtNtCs3PiHhja6dWM_12ettlex_store3cas8fs_storeNtB4_7FsStore5write0B8_
FN:77,_RNvMNtNtCs3PiHhja6dWM_12ettlex_store3cas8fs_storeNtB2_7FsStore14compute_digest
FN:61,_RNvMNtNtCs3PiHhja6dWM_12ettlex_store3cas8fs_storeNtB2_7FsStore4read
FN:31,_RNvMNtNtCs3PiHhja6dWM_12ettlex_store3cas8fs_storeNtB2_7FsStore5write
FN:21,_RINvMNtNtCs3PiHhja6dWM_12ettlex_store3cas8fs_storeNtB3_7FsStore3newRNtNtCs3rJPW0F9RIs_3std4path4PathECs8IruohoZlNH_8cas_test
FN:21,_RINvMNtNtCs3PiHhja6dWM_12ettlex_store3cas8fs_storeNtB3_7FsStore3newRNtNtCs5bkkNO3hTYU_5alloc6string6StringECslWgGk6K9LsO_10ettlex_cli
FN:21,_RINvMNtNtCs3PiHhja6dWM_12ettlex_store3cas8fs_storeNtB3_7FsStore3newNtNtCs3rJPW0F9RIs_3std4path7PathBufECs5mjXk99A2ia_22ep_update_engine_tests
FN:21,_RINvMNtNtCs3PiHhja6dWM_12ettlex_store3cas8fs_storeNtB3_7FsStore3newNtNtCs3rJPW0F9RIs_3std4path7PathBufECsdWc5fRa8hNY_10ettlex_mcp
FN:90,_RNvNtNtNtCsiIWUB9x025h_12ettlex_store3cas8fs_store5tests14setup_test_cas
FN:119,_RNvNtNtNtCsiIWUB9x025h_12ettlex_store3cas8fs_store5testss_17test_read_missing
FN:129,_RNvNtNtNtCsiIWUB9x025h_12ettlex_store3cas8fs_store5testss_21test_digest_is_sha256
FN:108,_RNvNtNtNtCsiIWUB9x025h_12ettlex_store3cas8fs_store5testss_21test_idempotent_write
FN:97,_RNvNtNtNtCsiIWUB9x025h_12ettlex_store3cas8fs_store5testss_25test_write_read_roundtrip
FN:21,_RINvMNtNtCsiIWUB9x025h_12ettlex_store3cas8fs_storeNtB3_7FsStore3newRNtNtCs3rJPW0F9RIs_3std4path4PathEB7_
FN:68,_RNCNvMNtNtCsiIWUB9x025h_12ettlex_store3cas8fs_storeNtB4_7FsStore4read0B8_
FN:41,_RNCNvMNtNtCsiIWUB9x025h_12ettlex_store3cas8fs_storeNtB4_7FsStore5write0B8_
FN:77,_RNvMNtNtCsiIWUB9x025h_12ettlex_store3cas8fs_storeNtB2_7FsStore14compute_digest
FN:61,_RNvMNtNtCsiIWUB9x025h_12ettlex_store3cas8fs_storeNtB2_7FsStore4read
FN:31,_RNvMNtNtCsiIWUB9x025h_12ettlex_store3cas8fs_storeNtB2_7FsStore5write
FN:21,_RINvMNtNtCs3PiHhja6dWM_12ettlex_store3cas8fs_storeNtB3_7FsStore3newNtNtCs3rJPW0F9RIs_3std4path7PathBufECs7BKgy4l3hmR_19mcp_ep_update_tests
FN:21,_RINvMNtNtCs3PiHhja6dWM_12ettlex_store3cas8fs_storeNtB3_7FsStore3newNtNtCs3rJPW0F9RIs_3std4path7PathBufECs2pQ5uxapYil_24mcp_ep_update_tool_tests
FN:21,_RINvMNtNtCs3PiHhja6dWM_12ettlex_store3cas8fs_storeNtB3_7FsStore3newNtNtCs3rJPW0F9RIs_3std4path7PathBufECsl4lXhMZwjyP_21mcp_integration_tests
FN:21,_RINvMNtNtCs3PiHhja6dWM_12ettlex_store3cas8fs_storeNtB3_7FsStore3newNtNtCs3rJPW0F9RIs_3std4path7PathBufECs8tJCzDfKziF_21policy_provider_tests
FN:21,_RINvMNtNtCs3PiHhja6dWM_12ettlex_store3cas8fs_storeNtB3_7FsStore3newNtNtCs3rJPW0F9RIs_3std4path7PathBufECsaZ74NHY9448_23predicate_preview_tests
FN:21,_RINvMNtNtCs3PiHhja6dWM_12ettlex_store3cas8fs_storeNtB3_7FsStore3newNtNtCs3rJPW0F9RIs_3std4path7PathBufECsdACotez5s5S_28profile_approval_query_tests
FN:21,_RINvMNtNtCs3PiHhja6dWM_12ettlex_store3cas8fs_storeNtB3_7FsStore3newNtNtCs3rJPW0F9RIs_3std4path7PathBufECseaWmx2SWznI_29snapshot_commit_by_leaf_tests
FN:21,_RINvMNtNtCs3PiHhja6dWM_12ettlex_store3cas8fs_storeNtB3_7FsStore3newNtNtCs3rJPW0F9RIs_3std4path7PathBufECsi5HmbPmUzm6_33snapshot_commit_determinism_tests
FN:21,_RINvMNtNtCs3PiHhja6dWM_12ettlex_store3cas8fs_storeNtB3_7FsStore3newNtNtCs3rJPW0F9RIs_3std4path7PathBufECsg3wpPf8naXl_33snapshot_commit_idempotency_tests
FN:21,_RINvMNtNtCs3PiHhja6dWM_12ettlex_store3cas8fs_storeNtB3_7FsStore3newNtNtCs3rJPW0F9RIs_3std4path7PathBufECsizNGdqAigcd_39snapshot_commit_legacy_resolution_tests
FN:21,_RINvMNtNtCs3PiHhja6dWM_12ettlex_store3cas8fs_storeNtB3_7FsStore3newNtNtCs3rJPW0F9RIs_3std4path7PathBufECsmPjZQKmFog_28snapshot_commit_policy_tests
FN:21,_RINvMNtNtCs3PiHhja6dWM_12ettlex_store3cas8fs_storeNtB3_7FsStore3newRNtNtCs3rJPW0F9RIs_3std4path7PathBufECsmPjZQKmFog_28snapshot_commit_policy_tests
FN:21,_RINvMNtNtCs3PiHhja6dWM_12ettlex_store3cas8fs_storeNtB3_7FsStore3newNtNtCs3rJPW0F9RIs_3std4path7PathBufECs24CyZ90iLOn_21snapshot_commit_tests
FN:21,_RINvMNtNtCs3PiHhja6dWM_12ettlex_store3cas8fs_storeNtB3_7FsStore3newNtNtCs3rJPW0F9RIs_3std4path7PathBufECsdE7B2uw0WWK_31snapshot_diff_integration_tests
FN:21,_RINvMNtNtCs3PiHhja6dWM_12ettlex_store3cas8fs_storeNtB3_7FsStore3newNtNtCs3rJPW0F9RIs_3std4path7PathBufECs82JSItoQmqK_22snapshot_persist_tests
FNDA:17,_RINvMNtNtCs3PiHhja6dWM_12ettlex_store3cas8fs_storeNtB3_7FsStore3newNtNtCs3rJPW0F9RIs_3std4path7PathBufECselWHORvKXC2_35action_read_tools_integration_tests
FNDA:0,_RINvMNtNtCs3PiHhja6dWM_12ettlex_store3cas8fs_storeNtB3_7FsStore3newpEB7_
FNDA:0,_RNCNvMNtNtCs3PiHhja6dWM_12ettlex_store3cas8fs_storeNtB4_7FsStore4read0B8_
FNDA:0,_RNCNvMNtNtCs3PiHhja6dWM_12ettlex_store3cas8fs_storeNtB4_7FsStore5write0B8_
FNDA:69,_RNvMNtNtCs3PiHhja6dWM_12ettlex_store3cas8fs_storeNtB2_7FsStore14compute_digest
FNDA:32,_RNvMNtNtCs3PiHhja6dWM_12ettlex_store3cas8fs_storeNtB2_7FsStore4read
FNDA:69,_RNvMNtNtCs3PiHhja6dWM_12ettlex_store3cas8fs_storeNtB2_7FsStore5write
FNDA:5,_RINvMNtNtCs3PiHhja6dWM_12ettlex_store3cas8fs_storeNtB3_7FsStore3newRNtNtCs3rJPW0F9RIs_3std4path4PathECs8IruohoZlNH_8cas_test
FNDA:3,_RINvMNtNtCs3PiHhja6dWM_12ettlex_store3cas8fs_storeNtB3_7FsStore3newRNtNtCs5bkkNO3hTYU_5alloc6string6StringECslWgGk6K9LsO_10ettlex_cli
FNDA:2,_RINvMNtNtCs3PiHhja6dWM_12ettlex_store3cas8fs_storeNtB3_7FsStore3newNtNtCs3rJPW0F9RIs_3std4path7PathBufECs5mjXk99A2ia_22ep_update_engine_tests
FNDA:0,_RINvMNtNtCs3PiHhja6dWM_12ettlex_store3cas8fs_storeNtB3_7FsStore3newNtNtCs3rJPW0F9RIs_3std4path7PathBufECsdWc5fRa8hNY_10ettlex_mcp
FNDA:4,_RNvNtNtNtCsiIWUB9x025h_12ettlex_store3cas8fs_store5tests14setup_test_cas
FNDA:1,_RNvNtNtNtCsiIWUB9x025h_12ettlex_store3cas8fs_store5testss_17test_read_missing
FNDA:1,_RNvNtNtNtCsiIWUB9x025h_12ettlex_store3cas8fs_store5testss_21test_digest_is_sha256
FNDA:1,_RNvNtNtNtCsiIWUB9x025h_12ettlex_store3cas8fs_store5testss_21test_idempotent_write
FNDA:1,_RNvNtNtNtCsiIWUB9x025h_12ettlex_store3cas8fs_store5testss_25test_write_read_roundtrip
FNDA:4,_RINvMNtNtCsiIWUB9x025h_12ettlex_store3cas8fs_storeNtB3_7FsStore3newRNtNtCs3rJPW0F9RIs_3std4path4PathEB7_
FNDA:0,_RNCNvMNtNtCsiIWUB9x025h_12ettlex_store3cas8fs_storeNtB4_7FsStore4read0B8_
FNDA:0,_RNCNvMNtNtCsiIWUB9x025h_12ettlex_store3cas8fs_storeNtB4_7FsStore5write0B8_
FNDA:4,_RNvMNtNtCsiIWUB9x025h_12ettlex_store3cas8fs_storeNtB2_7FsStore14compute_digest
FNDA:2,_RNvMNtNtCsiIWUB9x025h_12ettlex_store3cas8fs_storeNtB2_7FsStore4read
FNDA:4,_RNvMNtNtCsiIWUB9x025h_12ettlex_store3cas8fs_storeNtB2_7FsStore5write
FNDA:3,_RINvMNtNtCs3PiHhja6dWM_12ettlex_store3cas8fs_storeNtB3_7FsStore3newNtNtCs3rJPW0F9RIs_3std4path7PathBufECs7BKgy4l3hmR_19mcp_ep_update_tests
FNDA:1,_RINvMNtNtCs3PiHhja6dWM_12ettlex_store3cas8fs_storeNtB3_7FsStore3newNtNtCs3rJPW0F9RIs_3std4path7PathBufECs2pQ5uxapYil_24mcp_ep_update_tool_tests
FNDA:46,_RINvMNtNtCs3PiHhja6dWM_12ettlex_store3cas8fs_storeNtB3_7FsStore3newNtNtCs3rJPW0F9RIs_3std4path7PathBufECsl4lXhMZwjyP_21mcp_integration_tests
FNDA:10,_RINvMNtNtCs3PiHhja6dWM_12ettlex_store3cas8fs_storeNtB3_7FsStore3newNtNtCs3rJPW0F9RIs_3std4path7PathBufECs8tJCzDfKziF_21policy_provider_tests
FNDA:4,_RINvMNtNtCs3PiHhja6dWM_12ettlex_store3cas8fs_storeNtB3_7FsStore3newNtNtCs3rJPW0F9RIs_3std4path7PathBufECsaZ74NHY9448_23predicate_preview_tests
FNDA:8,_RINvMNtNtCs3PiHhja6dWM_12ettlex_store3cas8fs_storeNtB3_7FsStore3newNtNtCs3rJPW0F9RIs_3std4path7PathBufECsdACotez5s5S_28profile_approval_query_tests
FNDA:3,_RINvMNtNtCs3PiHhja6dWM_12ettlex_store3cas8fs_storeNtB3_7FsStore3newNtNtCs3rJPW0F9RIs_3std4path7PathBufECseaWmx2SWznI_29snapshot_commit_by_leaf_tests
FNDA:3,_RINvMNtNtCs3PiHhja6dWM_12ettlex_store3cas8fs_storeNtB3_7FsStore3newNtNtCs3rJPW0F9RIs_3std4path7PathBufECsi5HmbPmUzm6_33snapshot_commit_determinism_tests
FNDA:4,_RINvMNtNtCs3PiHhja6dWM_12ettlex_store3cas8fs_storeNtB3_7FsStore3newNtNtCs3rJPW0F9RIs_3std4path7PathBufECsg3wpPf8naXl_33snapshot_commit_idempotency_tests
FNDA:3,_RINvMNtNtCs3PiHhja6dWM_12ettlex_store3cas8fs_storeNtB3_7FsStore3newNtNtCs3rJPW0F9RIs_3std4path7PathBufECsizNGdqAigcd_39snapshot_commit_legacy_resolution_tests
FNDA:23,_RINvMNtNtCs3PiHhja6dWM_12ettlex_store3cas8fs_storeNtB3_7FsStore3newNtNtCs3rJPW0F9RIs_3std4path7PathBufECsmPjZQKmFog_28snapshot_commit_policy_tests
FNDA:1,_RINvMNtNtCs3PiHhja6dWM_12ettlex_store3cas8fs_storeNtB3_7FsStore3newRNtNtCs3rJPW0F9RIs_3std4path7PathBufECsmPjZQKmFog_28snapshot_commit_policy_tests
FNDA:11,_RINvMNtNtCs3PiHhja6dWM_12ettlex_store3cas8fs_storeNtB3_7FsStore3newNtNtCs3rJPW0F9RIs_3std4path7PathBufECs24CyZ90iLOn_21snapshot_commit_tests
FNDA:5,_RINvMNtNtCs3PiHhja6dWM_12ettlex_store3cas8fs_storeNtB3_7FsStore3newNtNtCs3rJPW0F9RIs_3std4path7PathBufECsdE7B2uw0WWK_31snapshot_diff_integration_tests
FNDA:8,_RINvMNtNtCs3PiHhja6dWM_12ettlex_store3cas8fs_storeNtB3_7FsStore3newNtNtCs3rJPW0F9RIs_3std4path7PathBufECs82JSItoQmqK_22snapshot_persist_tests
FNF:11
FNH:9
DA:21,164
DA:22,164
DA:23,164
DA:31,73
DA:33,73
DA:36,73
DA:39,73
DA:41,4
DA:43,4
DA:45,4
DA:48,0
DA:50,69
DA:53,69
DA:55,68
DA:56,73
DA:61,34
DA:63,34
DA:65,103
DA:66,103
DA:67,103
DA:68,27
DA:69,76
DA:73,7
DA:74,34
DA:77,73
DA:78,73
DA:79,73
DA:80,73
DA:81,73
DA:82,73
DA:90,4
DA:91,4
DA:92,4
DA:93,4
DA:94,4
DA:97,1
DA:98,1
DA:100,1
DA:101,1
DA:103,1
DA:104,1
DA:105,1
DA:108,1
DA:109,1
DA:111,1
DA:112,1
DA:113,1
DA:115,1
DA:116,1
DA:119,1
DA:120,1
DA:122,1
DA:123,1
DA:125,1
DA:126,1
DA:129,1
DA:130,1
DA:132,1
DA:133,1
DA:135,1
DA:136,1
BRF:0
BRH:0
LF:63
LH:60
end_of_record
SF:/Users/nick/Development/EttleX/EttleX-Project/Rust/crates/ettlex-store/src/cas/sharding.rs
FN:12,_RNvNtNtCs3PiHhja6dWM_12ettlex_store3cas8sharding10shard_path
FN:24,_RNvNtNtNtCsiIWUB9x025h_12ettlex_store3cas8sharding5testss_15test_shard_path
FN:33,_RNvNtNtNtCsiIWUB9x025h_12ettlex_store3cas8sharding5testss_27test_shard_path_full_digest
FN:12,_RNvNtNtCsiIWUB9x025h_12ettlex_store3cas8sharding10shard_path
FNDA:167,_RNvNtNtCs3PiHhja6dWM_12ettlex_store3cas8sharding10shard_path
FNDA:1,_RNvNtNtNtCsiIWUB9x025h_12ettlex_store3cas8sharding5testss_15test_shard_path
FNDA:1,_RNvNtNtNtCsiIWUB9x025h_12ettlex_store3cas8sharding5testss_27test_shard_path_full_digest
FNDA:11,_RNvNtNtCsiIWUB9x025h_12ettlex_store3cas8sharding10shard_path
FNF:3
FNH:3
DA:12,178
DA:14,178
DA:16,178
DA:17,178
DA:24,1
DA:25,1
DA:26,1
DA:27,1
DA:29,1
DA:30,1
DA:33,1
DA:34,1
DA:35,1
DA:36,1
DA:38,1
DA:39,1
DA:40,1
BRF:0
BRH:0
LF:17
LH:17
end_of_record
SF:/Users/nick/Development/EttleX/EttleX-Project/Rust/crates/ettlex-store/src/db.rs
FN:12,_RINvNtCs3PiHhja6dWM_12ettlex_store2db4openpEB4_
FN:12,_RINvNtCsiIWUB9x025h_12ettlex_store2db4openpEB4_
FN:17,_RNvNtCsiIWUB9x025h_12ettlex_store2db14open_in_memory
FN:22,_RNvNtCsiIWUB9x025h_12ettlex_store2db9configure
FNDA:0,_RINvNtCs3PiHhja6dWM_12ettlex_store2db4openpEB4_
FNDA:0,_RINvNtCsiIWUB9x025h_12ettlex_store2db4openpEB4_
FNDA:0,_RNvNtCsiIWUB9x025h_12ettlex_store2db14open_in_memory
FNDA:0,_RNvNtCsiIWUB9x025h_12ettlex_store2db9configure
FNF:3
FNH:0
DA:12,0
DA:13,0
DA:14,0
DA:17,0
DA:18,0
DA:19,0
DA:22,0
DA:24,0
DA:25,0
DA:28,0
DA:29,0
DA:31,0
DA:32,0
BRF:0
BRH:0
LF:13
LH:0
end_of_record
SF:/Users/nick/Development/EttleX/EttleX-Project/Rust/crates/ettlex-store/src/errors.rs
FN:35,_RNvNtCs3PiHhja6dWM_12ettlex_store6errors11cas_missing
FN:28,_RNvNtCs3PiHhja6dWM_12ettlex_store6errors13cas_collision
FN:49,_RNvNtCs3PiHhja6dWM_12ettlex_store6errors13from_rusqlite
FN:11,_RNvNtCs3PiHhja6dWM_12ettlex_store6errors15migration_error
FN:42,_RNvNtCs3PiHhja6dWM_12ettlex_store6errors15seed_validation
FN:18,_RNvNtCs3PiHhja6dWM_12ettlex_store6errors17checksum_mismatch
FN:56,_RNvNtCs3PiHhja6dWM_12ettlex_store6errors8io_error
FN:35,_RNvNtCsiIWUB9x025h_12ettlex_store6errors11cas_missing
FN:28,_RNvNtCsiIWUB9x025h_12ettlex_store6errors13cas_collision
FN:49,_RNvNtCsiIWUB9x025h_12ettlex_store6errors13from_rusqlite
FN:11,_RNvNtCsiIWUB9x025h_12ettlex_store6errors15migration_error
FN:42,_RNvNtCsiIWUB9x025h_12ettlex_store6errors15seed_validation
FN:18,_RNvNtCsiIWUB9x025h_12ettlex_store6errors17checksum_mismatch
FN:56,_RNvNtCsiIWUB9x025h_12ettlex_store6errors8io_error
FN:103,_RNvNtNtCsiIWUB9x025h_12ettlex_store6errors5testss_18test_io_error_kind
FN:85,_RNvNtNtCsiIWUB9x025h_12ettlex_store6errors5testss_21test_cas_missing_kind
FN:79,_RNvNtNtCsiIWUB9x025h_12ettlex_store6errors5testss_23test_cas_collision_kind
FN:97,_RNvNtNtCsiIWUB9x025h_12ettlex_store6errors5testss_23test_from_rusqlite_kind
FN:67,_RNvNtNtCsiIWUB9x025h_12ettlex_store6errors5testss_25test_migration_error_kind
FN:91,_RNvNtNtCsiIWUB9x025h_12ettlex_store6errors5testss_25test_seed_validation_kind
FN:73,_RNvNtNtCsiIWUB9x025h_12ettlex_store6errors5testss_27test_checksum_mismatch_kind
FNDA:6,_RNvNtCs3PiHhja6dWM_12ettlex_store6errors11cas_missing
FNDA:0,_RNvNtCs3PiHhja6dWM_12ettlex_store6errors13cas_collision
FNDA:2,_RNvNtCs3PiHhja6dWM_12ettlex_store6errors13from_rusqlite
FNDA:0,_RNvNtCs3PiHhja6dWM_12ettlex_store6errors15migration_error
FNDA:2,_RNvNtCs3PiHhja6dWM_12ettlex_store6errors15seed_validation
FNDA:0,_RNvNtCs3PiHhja6dWM_12ettlex_store6errors17checksum_mismatch
FNDA:1,_RNvNtCs3PiHhja6dWM_12ettlex_store6errors8io_error
FNDA:2,_RNvNtCsiIWUB9x025h_12ettlex_store6errors11cas_missing
FNDA:1,_RNvNtCsiIWUB9x025h_12ettlex_store6errors13cas_collision
FNDA:1,_RNvNtCsiIWUB9x025h_12ettlex_store6errors13from_rusqlite
FNDA:1,_RNvNtCsiIWUB9x025h_12ettlex_store6errors15migration_error
FNDA:5,_RNvNtCsiIWUB9x025h_12ettlex_store6errors15seed_validation
FNDA:1,_RNvNtCsiIWUB9x025h_12ettlex_store6errors17checksum_mismatch
FNDA:1,_RNvNtCsiIWUB9x025h_12ettlex_store6errors8io_error
FNDA:1,_RNvNtNtCsiIWUB9x025h_12ettlex_store6errors5testss_18test_io_error_kind
FNDA:1,_RNvNtNtCsiIWUB9x025h_12ettlex_store6errors5testss_21test_cas_missing_kind
FNDA:1,_RNvNtNtCsiIWUB9x025h_12ettlex_store6errors5testss_23test_cas_collision_kind
FNDA:1,_RNvNtNtCsiIWUB9x025h_12ettlex_store6errors5testss_23test_from_rusqlite_kind
FNDA:1,_RNvNtNtCsiIWUB9x025h_12ettlex_store6errors5testss_25test_migration_error_kind
FNDA:1,_RNvNtNtCsiIWUB9x025h_12ettlex_store6errors5testss_25test_seed_validation_kind
FNDA:1,_RNvNtNtCsiIWUB9x025h_12ettlex_store6errors5testss_27test_checksum_mismatch_kind
FNF:14
FNH:14
DA:11,1
DA:12,1
DA:13,1
DA:14,1
DA:15,1
DA:18,1
DA:19,1
DA:20,1
DA:21,1
DA:25,1
DA:28,1
DA:29,1
DA:30,1
DA:31,1
DA:32,1
DA:35,8
DA:36,8
DA:37,8
DA:38,8
DA:39,8
DA:42,7
DA:43,7
DA:44,7
DA:45,7
DA:46,7
DA:49,3
DA:50,3
DA:51,3
DA:52,3
DA:53,3
DA:56,2
DA:57,2
DA:58,2
DA:59,2
DA:60,2
DA:67,1
DA:68,1
DA:69,1
DA:70,1
DA:73,1
DA:74,1
DA:75,1
DA:76,1
DA:79,1
DA:80,1
DA:81,1
DA:82,1
DA:85,1
DA:86,1
DA:87,1
DA:88,1
DA:91,1
DA:92,1
DA:93,1
DA:94,1
DA:97,1
DA:98,1
DA:99,1
DA:100,1
DA:103,1
DA:104,1
DA:105,1
DA:106,1
DA:107,1
BRF:0
BRH:0
LF:64
LH:64
end_of_record
SF:/Users/nick/Development/EttleX/EttleX-Project/Rust/crates/ettlex-store/src/file_policy_provider.rs
FN:58,_RINvMNtCs3PiHhja6dWM_12ettlex_store20file_policy_providerNtB3_18FilePolicyProvider3newpEB5_
FN:83,_RNCNvMNtCs3PiHhja6dWM_12ettlex_store20file_policy_providerNtB4_18FilePolicyProvider16read_policy_text0B6_
FN:88,_RNCNvMNtCs3PiHhja6dWM_12ettlex_store20file_policy_providerNtB4_18FilePolicyProvider16read_policy_texts_0B6_
FN:217,_RNCNvXs_NtCs3PiHhja6dWM_12ettlex_store20file_policy_providerNtB6_18FilePolicyProviderNtNtCs4640luT8Huz_11ettlex_core15policy_provider14PolicyProvider11policy_list0B8_
FN:237,_RNCNvXs_NtCs3PiHhja6dWM_12ettlex_store20file_policy_providerNtB6_18FilePolicyProviderNtNtCs4640luT8Huz_11ettlex_core15policy_provider14PolicyProvider11policy_lists0_0B8_
FN:221,_RNCNvXs_NtCs3PiHhja6dWM_12ettlex_store20file_policy_providerNtB6_18FilePolicyProviderNtNtCs4640luT8Huz_11ettlex_core15policy_provider14PolicyProvider11policy_lists_0B8_
FN:71,_RNvMNtCsiIWUB9x025h_12ettlex_store20file_policy_providerNtB2_18FilePolicyProvider11policy_path
FN:66,_RNvMNtCsiIWUB9x025h_12ettlex_store20file_policy_providerNtB2_18FilePolicyProvider14with_max_bytes
FN:76,_RNvMNtCsiIWUB9x025h_12ettlex_store20file_policy_providerNtB2_18FilePolicyProvider16read_policy_text
FN:210,_RNvXs_NtCsiIWUB9x025h_12ettlex_store20file_policy_providerNtB4_18FilePolicyProviderNtNtCs4640luT8Huz_11ettlex_core15policy_provider14PolicyProvider11policy_list
FN:116,_RNvXs_NtCsiIWUB9x025h_12ettlex_store20file_policy_providerNtB4_18FilePolicyProviderNtNtCs4640luT8Huz_11ettlex_core15policy_provider14PolicyProvider11policy_read
FN:98,_RNvXs_NtCsiIWUB9x025h_12ettlex_store20file_policy_providerNtB4_18FilePolicyProviderNtNtCs4640luT8Huz_11ettlex_core15policy_provider14PolicyProvider12policy_check
FN:121,_RNvXs_NtCsiIWUB9x025h_12ettlex_store20file_policy_providerNtB4_18FilePolicyProviderNtNtCs4640luT8Huz_11ettlex_core15policy_provider14PolicyProvider13policy_export
FN:342,_RNCNvNtNtCsiIWUB9x025h_12ettlex_store20file_policy_provider5testss_22test_s10_list_policies0B7_
FN:58,_RINvMNtCsiIWUB9x025h_12ettlex_store20file_policy_providerNtB3_18FilePolicyProvider3newRNtNtCs3rJPW0F9RIs_3std4path4PathEB5_
FN:58,_RINvMNtCsiIWUB9x025h_12ettlex_store20file_policy_providerNtB3_18FilePolicyProvider3newRNtNtCs3rJPW0F9RIs_3std4path7PathBufEB5_
FN:83,_RNCNvMNtCsiIWUB9x025h_12ettlex_store20file_policy_providerNtB4_18FilePolicyProvider16read_policy_text0B6_
FN:88,_RNCNvMNtCsiIWUB9x025h_12ettlex_store20file_policy_providerNtB4_18FilePolicyProvider16read_policy_texts_0B6_
FN:217,_RNCNvXs_NtCsiIWUB9x025h_12ettlex_store20file_policy_providerNtB6_18FilePolicyProviderNtNtCs4640luT8Huz_11ettlex_core15policy_provider14PolicyProvider11policy_list0B8_
FN:237,_RNCNvXs_NtCsiIWUB9x025h_12ettlex_store20file_policy_providerNtB6_18FilePolicyProviderNtNtCs4640luT8Huz_11ettlex_core15policy_provider14PolicyProvider11policy_lists0_0B8_
FN:221,_RNCNvXs_NtCsiIWUB9x025h_12ettlex_store20file_policy_providerNtB6_18FilePolicyProviderNtNtCs4640luT8Huz_11ettlex_core15policy_provider14PolicyProvider11policy_lists_0B8_
FN:252,_RNvNtNtCsiIWUB9x025h_12ettlex_store20file_policy_provider5tests12write_policy
FN:248,_RNvNtNtCsiIWUB9x025h_12ettlex_store20file_policy_provider5tests13make_provider
FN:389,_RNvNtNtCsiIWUB9x025h_12ettlex_store20file_policy_provider5testss_20test_policy_check_ok
FN:437,_RNvNtNtCsiIWUB9x025h_12ettlex_store20file_policy_provider5testss_22test_no_handoff_blocks
FN:333,_RNvNtNtCsiIWUB9x025h_12ettlex_store20file_policy_provider5testss_22test_s10_list_policies
FN:423,_RNvNtNtCsiIWUB9x025h_12ettlex_store20file_policy_provider5testss_24test_unknown_export_kind
FN:347,_RNvNtNtCsiIWUB9x025h_12ettlex_store20file_policy_provider5testss_25test_s11_read_policy_text
FN:357,_RNvNtNtCsiIWUB9x025h_12ettlex_store20file_policy_provider5testss_25test_s14_export_too_large
FN:398,_RNvNtNtCsiIWUB9x025h_12ettlex_store20file_policy_provider5testss_27test_policy_check_not_found
FN:377,_RNvNtNtCsiIWUB9x025h_12ettlex_store20file_policy_provider5testss_27test_s15_policy_parse_error
FN:279,_RNvNtNtCsiIWUB9x025h_12ettlex_store20file_policy_provider5testss_28test_s7_export_deterministic
FN:409,_RNvNtNtCsiIWUB9x025h_12ettlex_store20file_policy_provider5testss_30test_nested_start_inside_block
FN:294,_RNvNtNtCsiIWUB9x025h_12ettlex_store20file_policy_provider5testss_32test_s8_export_malformed_markers
FN:310,_RNvNtNtCsiIWUB9x025h_12ettlex_store20file_policy_provider5testss_33test_s8b_export_end_without_start
FN:322,_RNvNtNtCsiIWUB9x025h_12ettlex_store20file_policy_provider5testss_33test_s9_export_unknown_policy_ref
FN:258,_RNvNtNtCsiIWUB9x025h_12ettlex_store20file_policy_provider5testss_35test_s6_export_includes_obligations
FN:453,_RNvNtNtCsiIWUB9x025h_12ettlex_store20file_policy_provider5testss_43test_codegen_handoff_policy_has_obligations
FN:198,_RNvXs_NtCsiIWUB9x025h_12ettlex_store20file_policy_providerNtB4_18FilePolicyProviderNtNtCs4640luT8Huz_11ettlex_core15policy_provider14PolicyProvider26policy_project_for_handoff
FN:58,_RINvMNtCs3PiHhja6dWM_12ettlex_store20file_policy_providerNtB3_18FilePolicyProvider3newRNtNtCs3rJPW0F9RIs_3std4path4PathECs8tJCzDfKziF_21policy_provider_tests
FN:58,_RINvMNtCs3PiHhja6dWM_12ettlex_store20file_policy_providerNtB3_18FilePolicyProvider3newRNtNtCs3rJPW0F9RIs_3std4path7PathBufECs8tJCzDfKziF_21policy_provider_tests
FN:71,_RNvMNtCs3PiHhja6dWM_12ettlex_store20file_policy_providerNtB2_18FilePolicyProvider11policy_path
FN:66,_RNvMNtCs3PiHhja6dWM_12ettlex_store20file_policy_providerNtB2_18FilePolicyProvider14with_max_bytes
FN:76,_RNvMNtCs3PiHhja6dWM_12ettlex_store20file_policy_providerNtB2_18FilePolicyProvider16read_policy_text
FN:210,_RNvXs_NtCs3PiHhja6dWM_12ettlex_store20file_policy_providerNtB4_18FilePolicyProviderNtNtCs4640luT8Huz_11ettlex_core15policy_provider14PolicyProvider11policy_list
FN:116,_RNvXs_NtCs3PiHhja6dWM_12ettlex_store20file_policy_providerNtB4_18FilePolicyProviderNtNtCs4640luT8Huz_11ettlex_core15policy_provider14PolicyProvider11policy_read
FN:98,_RNvXs_NtCs3PiHhja6dWM_12ettlex_store20file_policy_providerNtB4_18FilePolicyProviderNtNtCs4640luT8Huz_11ettlex_core15policy_provider14PolicyProvider12policy_check
FN:121,_RNvXs_NtCs3PiHhja6dWM_12ettlex_store20file_policy_providerNtB4_18FilePolicyProviderNtNtCs4640luT8Huz_11ettlex_core15policy_provider14PolicyProvider13policy_export
FN:198,_RNvXs_NtCs3PiHhja6dWM_12ettlex_store20file_policy_providerNtB4_18FilePolicyProviderNtNtCs4640luT8Huz_11ettlex_core15policy_provider14PolicyProvider26policy_project_for_handoff
FNDA:0,_RINvMNtCs3PiHhja6dWM_12ettlex_store20file_policy_providerNtB3_18FilePolicyProvider3newpEB5_
FNDA:0,_RNCNvMNtCs3PiHhja6dWM_12ettlex_store20file_policy_providerNtB4_18FilePolicyProvider16read_policy_text0B6_
FNDA:1,_RNCNvMNtCs3PiHhja6dWM_12ettlex_store20file_policy_providerNtB4_18FilePolicyProvider16read_policy_texts_0B6_
FNDA:0,_RNCNvXs_NtCs3PiHhja6dWM_12ettlex_store20file_policy_providerNtB6_18FilePolicyProviderNtNtCs4640luT8Huz_11ettlex_core15policy_provider14PolicyProvider11policy_list0B8_
FNDA:2,_RNCNvXs_NtCs3PiHhja6dWM_12ettlex_store20file_policy_providerNtB6_18FilePolicyProviderNtNtCs4640luT8Huz_11ettlex_core15policy_provider14PolicyProvider11policy_lists0_0B8_
FNDA:3,_RNCNvXs_NtCs3PiHhja6dWM_12ettlex_store20file_policy_providerNtB6_18FilePolicyProviderNtNtCs4640luT8Huz_11ettlex_core15policy_provider14PolicyProvider11policy_lists_0B8_
FNDA:14,_RNvMNtCsiIWUB9x025h_12ettlex_store20file_policy_providerNtB2_18FilePolicyProvider11policy_path
FNDA:1,_RNvMNtCsiIWUB9x025h_12ettlex_store20file_policy_providerNtB2_18FilePolicyProvider14with_max_bytes
FNDA:12,_RNvMNtCsiIWUB9x025h_12ettlex_store20file_policy_providerNtB2_18FilePolicyProvider16read_policy_text
FNDA:1,_RNvXs_NtCsiIWUB9x025h_12ettlex_store20file_policy_providerNtB4_18FilePolicyProviderNtNtCs4640luT8Huz_11ettlex_core15policy_provider14PolicyProvider11policy_list
FNDA:2,_RNvXs_NtCsiIWUB9x025h_12ettlex_store20file_policy_providerNtB4_18FilePolicyProviderNtNtCs4640luT8Huz_11ettlex_core15policy_provider14PolicyProvider11policy_read
FNDA:2,_RNvXs_NtCsiIWUB9x025h_12ettlex_store20file_policy_providerNtB4_18FilePolicyProviderNtNtCs4640luT8Huz_11ettlex_core15policy_provider14PolicyProvider12policy_check
FNDA:11,_RNvXs_NtCsiIWUB9x025h_12ettlex_store20file_policy_providerNtB4_18FilePolicyProviderNtNtCs4640luT8Huz_11ettlex_core15policy_provider14PolicyProvider13policy_export
FNDA:2,_RNCNvNtNtCsiIWUB9x025h_12ettlex_store20file_policy_provider5testss_22test_s10_list_policies0B7_
FNDA:14,_RINvMNtCsiIWUB9x025h_12ettlex_store20file_policy_providerNtB3_18FilePolicyProvider3newRNtNtCs3rJPW0F9RIs_3std4path4PathEB5_
FNDA:1,_RINvMNtCsiIWUB9x025h_12ettlex_store20file_policy_providerNtB3_18FilePolicyProvider3newRNtNtCs3rJPW0F9RIs_3std4path7PathBufEB5_
FNDA:0,_RNCNvMNtCsiIWUB9x025h_12ettlex_store20file_policy_providerNtB4_18FilePolicyProvider16read_policy_text0B6_
FNDA:1,_RNCNvMNtCsiIWUB9x025h_12ettlex_store20file_policy_providerNtB4_18FilePolicyProvider16read_policy_texts_0B6_
FNDA:0,_RNCNvXs_NtCsiIWUB9x025h_12ettlex_store20file_policy_providerNtB6_18FilePolicyProviderNtNtCs4640luT8Huz_11ettlex_core15policy_provider14PolicyProvider11policy_list0B8_
FNDA:1,_RNCNvXs_NtCsiIWUB9x025h_12ettlex_store20file_policy_providerNtB6_18FilePolicyProviderNtNtCs4640luT8Huz_11ettlex_core15policy_provider14PolicyProvider11policy_lists0_0B8_
FNDA:2,_RNCNvXs_NtCsiIWUB9x025h_12ettlex_store20file_policy_providerNtB6_18FilePolicyProviderNtNtCs4640luT8Huz_11ettlex_core15policy_provider14PolicyProvider11policy_lists_0B8_
FNDA:12,_RNvNtNtCsiIWUB9x025h_12ettlex_store20file_policy_provider5tests12write_policy
FNDA:13,_RNvNtNtCsiIWUB9x025h_12ettlex_store20file_policy_provider5tests13make_provider
FNDA:1,_RNvNtNtCsiIWUB9x025h_12ettlex_store20file_policy_provider5testss_20test_policy_check_ok
FNDA:1,_RNvNtNtCsiIWUB9x025h_12ettlex_store20file_policy_provider5testss_22test_no_handoff_blocks
FNDA:1,_RNvNtNtCsiIWUB9x025h_12ettlex_store20file_policy_provider5testss_22test_s10_list_policies
FNDA:1,_RNvNtNtCsiIWUB9x025h_12ettlex_store20file_policy_provider5testss_24test_unknown_export_kind
FNDA:1,_RNvNtNtCsiIWUB9x025h_12ettlex_store20file_policy_provider5testss_25test_s11_read_policy_text
FNDA:1,_RNvNtNtCsiIWUB9x025h_12ettlex_store20file_policy_provider5testss_25test_s14_export_too_large
FNDA:1,_RNvNtNtCsiIWUB9x025h_12ettlex_store20file_policy_provider5testss_27test_policy_check_not_found
FNDA:1,_RNvNtNtCsiIWUB9x025h_12ettlex_store20file_policy_provider5testss_27test_s15_policy_parse_error
FNDA:1,_RNvNtNtCsiIWUB9x025h_12ettlex_store20file_policy_provider5testss_28test_s7_export_deterministic
FNDA:1,_RNvNtNtCsiIWUB9x025h_12ettlex_store20file_policy_provider5testss_30test_nested_start_inside_block
FNDA:1,_RNvNtNtCsiIWUB9x025h_12ettlex_store20file_policy_provider5testss_32test_s8_export_malformed_markers
FNDA:1,_RNvNtNtCsiIWUB9x025h_12ettlex_store20file_policy_provider5testss_33test_s8b_export_end_without_start
FNDA:1,_RNvNtNtCsiIWUB9x025h_12ettlex_store20file_policy_provider5testss_33test_s9_export_unknown_policy_ref
FNDA:1,_RNvNtNtCsiIWUB9x025h_12ettlex_store20file_policy_provider5testss_35test_s6_export_includes_obligations
FNDA:1,_RNvNtNtCsiIWUB9x025h_12ettlex_store20file_policy_provider5testss_43test_codegen_handoff_policy_has_obligations
FNDA:0,_RNvXs_NtCsiIWUB9x025h_12ettlex_store20file_policy_providerNtB4_18FilePolicyProviderNtNtCs4640luT8Huz_11ettlex_core15policy_provider14PolicyProvider26policy_project_for_handoff
FNDA:10,_RINvMNtCs3PiHhja6dWM_12ettlex_store20file_policy_providerNtB3_18FilePolicyProvider3newRNtNtCs3rJPW0F9RIs_3std4path4PathECs8tJCzDfKziF_21policy_provider_tests
FNDA:1,_RINvMNtCs3PiHhja6dWM_12ettlex_store20file_policy_providerNtB3_18FilePolicyProvider3newRNtNtCs3rJPW0F9RIs_3std4path7PathBufECs8tJCzDfKziF_21policy_provider_tests
FNDA:11,_RNvMNtCs3PiHhja6dWM_12ettlex_store20file_policy_providerNtB2_18FilePolicyProvider11policy_path
FNDA:1,_RNvMNtCs3PiHhja6dWM_12ettlex_store20file_policy_providerNtB2_18FilePolicyProvider14with_max_bytes
FNDA:11,_RNvMNtCs3PiHhja6dWM_12ettlex_store20file_policy_providerNtB2_18FilePolicyProvider16read_policy_text
FNDA:1,_RNvXs_NtCs3PiHhja6dWM_12ettlex_store20file_policy_providerNtB4_18FilePolicyProviderNtNtCs4640luT8Huz_11ettlex_core15policy_provider14PolicyProvider11policy_list
FNDA:2,_RNvXs_NtCs3PiHhja6dWM_12ettlex_store20file_policy_providerNtB4_18FilePolicyProviderNtNtCs4640luT8Huz_11ettlex_core15policy_provider14PolicyProvider11policy_read
FNDA:0,_RNvXs_NtCs3PiHhja6dWM_12ettlex_store20file_policy_providerNtB4_18FilePolicyProviderNtNtCs4640luT8Huz_11ettlex_core15policy_provider14PolicyProvider12policy_check
FNDA:9,_RNvXs_NtCs3PiHhja6dWM_12ettlex_store20file_policy_providerNtB4_18FilePolicyProviderNtNtCs4640luT8Huz_11ettlex_core15policy_provider14PolicyProvider13policy_export
FNDA:3,_RNvXs_NtCs3PiHhja6dWM_12ettlex_store20file_policy_providerNtB4_18FilePolicyProviderNtNtCs4640luT8Huz_11ettlex_core15policy_provider14PolicyProvider26policy_project_for_handoff
FNF:32
FNH:30
DA:58,26
DA:59,26
DA:60,26
DA:61,26
DA:62,26
DA:63,26
DA:66,2
DA:67,2
DA:68,2
DA:69,2
DA:71,25
DA:72,25
DA:73,25
DA:76,23
DA:77,23
DA:78,23
DA:79,3
DA:80,3
DA:81,3
DA:82,20
DA:83,20
DA:84,0
DA:85,0
DA:86,0
DA:87,0
DA:88,20
DA:89,2
DA:90,2
DA:91,2
DA:92,2
DA:93,23
DA:98,2
DA:99,2
DA:100,2
DA:101,2
DA:102,2
DA:103,2
DA:104,2
DA:106,2
DA:107,2
DA:108,1
DA:109,1
DA:110,1
DA:111,1
DA:112,1
DA:113,2
DA:116,4
DA:117,4
DA:118,4
DA:121,20
DA:122,20
DA:123,1
DA:124,1
DA:125,1
DA:126,19
DA:128,19
DA:131,16
DA:132,16
DA:133,16
DA:136,42
DA:139,13
DA:140,1
DA:141,1
DA:142,1
DA:143,12
DA:144,12
DA:146,29
DA:147,29
DA:148,29
DA:150,2
DA:151,2
DA:152,2
DA:153,2
DA:154,2
DA:156,27
DA:158,27
DA:159,27
DA:160,1
DA:161,1
DA:162,1
DA:163,1
DA:164,1
DA:165,26
DA:166,26
DA:167,15
DA:168,15
DA:169,26
DA:170,26
DA:171,26
DA:178,12
DA:179,1
DA:180,1
DA:181,1
DA:182,11
DA:184,11
DA:185,2
DA:186,2
DA:187,2
DA:188,2
DA:189,2
DA:190,2
DA:191,2
DA:192,9
DA:194,9
DA:195,20
DA:198,3
DA:199,3
DA:200,3
DA:201,3
DA:202,3
DA:205,3
DA:206,2
DA:207,3
DA:210,2
DA:211,2
DA:212,2
DA:213,0
DA:214,2
DA:216,2
DA:217,2
DA:218,0
DA:219,0
DA:220,0
DA:221,5
DA:222,5
DA:223,5
DA:224,5
DA:225,5
DA:226,5
DA:227,5
DA:228,5
DA:229,5
DA:231,0
DA:233,5
DA:234,2
DA:237,3
DA:238,2
DA:239,2
DA:248,13
DA:249,13
DA:250,13
DA:252,12
DA:253,12
DA:254,12
DA:258,1
DA:259,1
DA:260,1
DA:261,1
DA:262,1
DA:263,1
DA:265,1
DA:266,1
DA:267,1
DA:268,1
DA:271,1
DA:272,1
DA:275,1
DA:279,1
DA:280,1
DA:281,1
DA:282,1
DA:283,1
DA:284,1
DA:286,1
DA:287,1
DA:288,1
DA:289,1
DA:290,1
DA:294,1
DA:295,1
DA:296,1
DA:297,1
DA:298,1
DA:299,1
DA:301,1
DA:302,1
DA:303,1
DA:304,1
DA:305,1
DA:306,1
DA:310,1
DA:311,1
DA:312,1
DA:313,1
DA:314,1
DA:315,1
DA:316,1
DA:317,1
DA:318,1
DA:322,1
DA:323,1
DA:324,1
DA:325,1
DA:326,1
DA:327,1
DA:328,1
DA:329,1
DA:333,1
DA:334,1
DA:335,1
DA:336,1
DA:337,1
DA:338,1
DA:339,1
DA:340,1
DA:341,1
DA:342,2
DA:343,1
DA:347,1
DA:348,1
DA:349,1
DA:350,1
DA:351,1
DA:352,1
DA:353,1
DA:357,1
DA:358,1
DA:359,1
DA:360,1
DA:361,1
DA:362,1
DA:363,1
DA:364,1
DA:365,1
DA:366,1
DA:368,1
DA:369,1
DA:370,1
DA:371,1
DA:372,1
DA:373,1
DA:377,1
DA:378,1
DA:380,1
DA:381,1
DA:382,1
DA:383,1
DA:384,1
DA:385,1
DA:389,1
DA:390,1
DA:391,1
DA:392,1
DA:393,1
DA:394,1
DA:398,1
DA:399,1
DA:400,1
DA:401,1
DA:402,1
DA:403,1
DA:404,1
DA:405,1
DA:409,1
DA:410,1
DA:411,1
DA:412,1
DA:413,1
DA:414,1
DA:416,1
DA:417,1
DA:418,1
DA:419,1
DA:423,1
DA:424,1
DA:425,1
DA:426,1
DA:427,1
DA:428,1
DA:430,1
DA:431,1
DA:432,1
DA:433,1
DA:437,1
DA:438,1
DA:439,1
DA:440,1
DA:441,1
DA:442,1
DA:444,1
DA:445,1
DA:446,1
DA:447,1
DA:448,1
DA:449,1
DA:453,1
DA:455,1
DA:456,1
DA:457,1
DA:458,1
DA:459,1
DA:460,1
DA:461,1
DA:462,0
DA:463,1
DA:464,1
DA:465,1
DA:466,1
DA:467,1
DA:471,1
DA:473,1
DA:474,1
DA:475,1
DA:476,1
DA:477,1
DA:478,1
DA:479,1
BRF:0
BRH:0
LF:315
LH:301
end_of_record
SF:/Users/nick/Development/EttleX/EttleX-Project/Rust/crates/ettlex-store/src/migrations/checksums.rs
FN:8,_RNvNtNtCs3PiHhja6dWM_12ettlex_store10migrations9checksums16compute_checksum
FN:8,_RNvNtNtCsiIWUB9x025h_12ettlex_store10migrations9checksums16compute_checksum
FN:20,_RNvNtNtNtCsiIWUB9x025h_12ettlex_store10migrations9checksums5testss_21test_compute_checksum
FN:27,_RNvNtNtNtCsiIWUB9x025h_12ettlex_store10migrations9checksums5testss_27test_checksum_deterministic
FNDA:2178,_RNvNtNtCs3PiHhja6dWM_12ettlex_store10migrations9checksums16compute_checksum
FNDA:410,_RNvNtNtCsiIWUB9x025h_12ettlex_store10migrations9checksums16compute_checksum
FNDA:1,_RNvNtNtNtCsiIWUB9x025h_12ettlex_store10migrations9checksums5testss_21test_compute_checksum
FNDA:1,_RNvNtNtNtCsiIWUB9x025h_12ettlex_store10migrations9checksums5testss_27test_checksum_deterministic
FNF:3
FNH:3
DA:8,2588
DA:9,2588
DA:10,2588
DA:11,2588
DA:12,2588
DA:13,2588
DA:20,1
DA:21,1
DA:22,1
DA:23,1
DA:24,1
DA:27,1
DA:28,1
DA:29,1
DA:30,1
DA:31,1
DA:32,1
BRF:0
BRH:0
LF:17
LH:17
end_of_record
SF:/Users/nick/Development/EttleX/EttleX-Project/Rust/crates/ettlex-store/src/migrations/embedded.rs
FN:12,_RNvNtNtCs3PiHhja6dWM_12ettlex_store10migrations8embedded14get_migrations
FN:12,_RNvNtNtCsiIWUB9x025h_12ettlex_store10migrations8embedded14get_migrations
FNDA:202,_RNvNtNtCs3PiHhja6dWM_12ettlex_store10migrations8embedded14get_migrations
FNDA:38,_RNvNtNtCsiIWUB9x025h_12ettlex_store10migrations8embedded14get_migrations
FNF:1
FNH:1
DA:12,240
DA:13,240
DA:14,240
DA:15,240
DA:16,240
DA:17,240
DA:18,240
DA:19,240
DA:20,240
DA:21,240
DA:22,240
DA:23,240
DA:24,240
DA:25,240
DA:26,240
DA:27,240
DA:28,240
DA:29,240
DA:30,240
DA:31,240
DA:32,240
DA:33,240
DA:34,240
DA:35,240
DA:36,240
DA:37,240
DA:38,240
DA:39,240
DA:40,240
DA:41,240
DA:42,240
DA:43,240
DA:44,240
DA:45,240
DA:46,240
DA:47,240
DA:48,240
DA:49,240
DA:50,240
DA:51,240
DA:52,240
DA:53,240
DA:54,240
DA:55,240
DA:56,240
DA:57,240
DA:59,240
BRF:0
BRH:0
LF:47
LH:47
end_of_record
SF:/Users/nick/Development/EttleX/EttleX-Project/Rust/crates/ettlex-store/src/migrations/runner.rs
FN:92,_RNvNtNtCs3PiHhja6dWM_12ettlex_store10migrations6runner15apply_migration
FN:13,_RNvNtNtCs3PiHhja6dWM_12ettlex_store10migrations6runner16apply_migrations
FN:35,_RNvNtNtCs3PiHhja6dWM_12ettlex_store10migrations6runner27backfill_ep_content_digests
FN:76,_RNvNtNtCs3PiHhja6dWM_12ettlex_store10migrations6runner27create_schema_version_table
FN:115,_RNCNvNtNtCs3PiHhja6dWM_12ettlex_store10migrations6runner15apply_migrations_0B7_
FN:43,_RNCNvNtNtCs3PiHhja6dWM_12ettlex_store10migrations6runner27backfill_ep_content_digests0B7_
FN:115,_RNCNvNtNtCsiIWUB9x025h_12ettlex_store10migrations6runner15apply_migrations_0B7_
FN:43,_RNCNvNtNtCsiIWUB9x025h_12ettlex_store10migrations6runner27backfill_ep_content_digests0B7_
FN:92,_RNvNtNtCsiIWUB9x025h_12ettlex_store10migrations6runner15apply_migration
FN:13,_RNvNtNtCsiIWUB9x025h_12ettlex_store10migrations6runner16apply_migrations
FN:35,_RNvNtNtCsiIWUB9x025h_12ettlex_store10migrations6runner27backfill_ep_content_digests
FN:76,_RNvNtNtCsiIWUB9x025h_12ettlex_store10migrations6runner27create_schema_version_table
FN:143,_RNvNtNtNtCsiIWUB9x025h_12ettlex_store10migrations6runner5testss_16test_idempotency
FN:136,_RNvNtNtNtCsiIWUB9x025h_12ettlex_store10migrations6runner5testss_21test_apply_migrations
FNDA:2222,_RNvNtNtCs3PiHhja6dWM_12ettlex_store10migrations6runner15apply_migration
FNDA:202,_RNvNtNtCs3PiHhja6dWM_12ettlex_store10migrations6runner16apply_migrations
FNDA:202,_RNvNtNtCs3PiHhja6dWM_12ettlex_store10migrations6runner27backfill_ep_content_digests
FNDA:202,_RNvNtNtCs3PiHhja6dWM_12ettlex_store10migrations6runner27create_schema_version_table
FNDA:0,_RNCNvNtNtCs3PiHhja6dWM_12ettlex_store10migrations6runner15apply_migrations_0B7_
FNDA:3,_RNCNvNtNtCs3PiHhja6dWM_12ettlex_store10migrations6runner27backfill_ep_content_digests0B7_
FNDA:0,_RNCNvNtNtCsiIWUB9x025h_12ettlex_store10migrations6runner15apply_migrations_0B7_
FNDA:0,_RNCNvNtNtCsiIWUB9x025h_12ettlex_store10migrations6runner27backfill_ep_content_digests0B7_
FNDA:418,_RNvNtNtCsiIWUB9x025h_12ettlex_store10migrations6runner15apply_migration
FNDA:38,_RNvNtNtCsiIWUB9x025h_12ettlex_store10migrations6runner16apply_migrations
FNDA:38,_RNvNtNtCsiIWUB9x025h_12ettlex_store10migrations6runner27backfill_ep_content_digests
FNDA:38,_RNvNtNtCsiIWUB9x025h_12ettlex_store10migrations6runner27create_schema_version_table
FNDA:1,_RNvNtNtNtCsiIWUB9x025h_12ettlex_store10migrations6runner5testss_16test_idempotency
FNDA:1,_RNvNtNtNtCsiIWUB9x025h_12ettlex_store10migrations6runner5testss_21test_apply_migrations
FNF:8
FNH:7
DA:13,240
DA:15,240
DA:18,240
DA:21,2640
DA:22,2640
DA:26,240
DA:28,240
DA:29,240
DA:35,240
DA:39,240
DA:40,240
DA:41,240
DA:42,240
DA:43,240
DA:44,240
DA:45,240
DA:46,240
DA:47,240
DA:49,240
DA:50,3
DA:51,3
DA:52,3
DA:53,3
DA:54,3
DA:56,3
DA:57,3
DA:58,3
DA:59,3
DA:60,3
DA:61,3
DA:62,3
DA:63,3
DA:65,3
DA:66,3
DA:67,3
DA:69,3
DA:72,240
DA:73,240
DA:76,240
DA:77,240
DA:78,240
DA:79,240
DA:80,240
DA:81,240
DA:82,240
DA:83,240
DA:84,240
DA:86,240
DA:88,240
DA:89,240
DA:92,2640
DA:94,2640
DA:95,2640
DA:96,2640
DA:97,2640
DA:100,2640
DA:102,2640
DA:104,55
DA:105,2585
DA:108,2585
DA:111,2585
DA:114,2585
DA:115,2585
DA:118,2585
DA:119,2585
DA:120,2585
DA:121,2585
DA:122,2585
DA:123,2585
DA:126,2585
DA:128,2585
DA:129,2640
DA:136,1
DA:137,1
DA:138,1
DA:139,1
DA:140,1
DA:143,1
DA:144,1
DA:145,1
DA:146,1
DA:147,1
DA:148,1
BRF:0
BRH:0
LF:85
LH:84
end_of_record
SF:/Users/nick/Development/EttleX/EttleX-Project/Rust/crates/ettlex-store/src/profile.rs
FN:97,_RNvMs0_NtCs3PiHhja6dWM_12ettlex_store7profileNtB5_20SqliteApprovalRouter12new_with_cas
FN:84,_RNvMs0_NtCs3PiHhja6dWM_12ettlex_store7profileNtB5_20SqliteApprovalRouter3new
FN:321,_RNvNtCs3PiHhja6dWM_12ettlex_store7profile14create_profile
FN:208,_RNvNtCs3PiHhja6dWM_12ettlex_store7profile17load_profile_full
FN:430,_RNvNtCs3PiHhja6dWM_12ettlex_store7profile18fetch_approval_row
FN:381,_RNvNtCs3PiHhja6dWM_12ettlex_store7profile19set_default_profile
FN:242,_RNvNtCs3PiHhja6dWM_12ettlex_store7profile20load_default_profile
FN:33,_RNvNtCs3PiHhja6dWM_12ettlex_store7profile20load_profile_payload
FN:590,_RNvNtCs3PiHhja6dWM_12ettlex_store7profile22approval_row_no_digest
FN:276,_RNvNtCs3PiHhja6dWM_12ettlex_store7profile23list_profiles_paginated
FN:578,_RNvNtCs3PiHhja6dWM_12ettlex_store7profile24approval_row_with_digest
FN:179,_RNvNtCs3PiHhja6dWM_12ettlex_store7profile28get_approval_semantic_digest
FN:486,_RNvNtCs3PiHhja6dWM_12ettlex_store7profile28list_approval_rows_paginated
FN:541,_RNvNtCs3PiHhja6dWM_12ettlex_store7profile29query_approval_rows_no_digest
FN:504,_RNvNtCs3PiHhja6dWM_12ettlex_store7profile31query_approval_rows_with_digest
FN:198,_RNvNtCs3PiHhja6dWM_12ettlex_store7profile8sha2_hex
FN:107,_RNvXs1_NtCs3PiHhja6dWM_12ettlex_store7profileNtB5_20SqliteApprovalRouterNtNtCs4640luT8Huz_11ettlex_core15approval_router14ApprovalRouter22route_approval_request
FN:326,_RNCNvNtCs3PiHhja6dWM_12ettlex_store7profile14create_profile0B5_
FN:340,_RNCNvNtCs3PiHhja6dWM_12ettlex_store7profile14create_profiles0_0B5_
FN:361,_RNCNvNtCs3PiHhja6dWM_12ettlex_store7profile14create_profiles1_0B5_
FN:368,_RNCNvNtCs3PiHhja6dWM_12ettlex_store7profile14create_profiles2_0B5_
FN:337,_RNCNvNtCs3PiHhja6dWM_12ettlex_store7profile14create_profiles_0B5_
FN:216,_RNCNvNtCs3PiHhja6dWM_12ettlex_store7profile17load_profile_full0B5_
FN:228,_RNCNvNtCs3PiHhja6dWM_12ettlex_store7profile17load_profile_fulls0_0B5_
FN:219,_RNCNvNtCs3PiHhja6dWM_12ettlex_store7profile17load_profile_fulls_0B5_
FN:439,_RNCNvNtCs3PiHhja6dWM_12ettlex_store7profile18fetch_approval_row0B5_
FN:463,_RNCNvNtCs3PiHhja6dWM_12ettlex_store7profile18fetch_approval_rows_0B5_
FN:387,_RNCNvNtCs3PiHhja6dWM_12ettlex_store7profile19set_default_profile0B5_
FN:390,_RNCNvNtCs3PiHhja6dWM_12ettlex_store7profile19set_default_profiles0_0B5_
FN:407,_RNCNvNtCs3PiHhja6dWM_12ettlex_store7profile19set_default_profiles1_0B5_
FN:418,_RNCNvNtCs3PiHhja6dWM_12ettlex_store7profile19set_default_profiles2_0B5_
FN:389,_RNCNvNtCs3PiHhja6dWM_12ettlex_store7profile19set_default_profiles_0B5_
FN:249,_RNCNvNtCs3PiHhja6dWM_12ettlex_store7profile20load_default_profile0B5_
FN:261,_RNCNvNtCs3PiHhja6dWM_12ettlex_store7profile20load_default_profiles0_0B5_
FN:252,_RNCNvNtCs3PiHhja6dWM_12ettlex_store7profile20load_default_profiles_0B5_
FN:41,_RNCNvNtCs3PiHhja6dWM_12ettlex_store7profile20load_profile_payload0B5_
FN:53,_RNCNvNtCs3PiHhja6dWM_12ettlex_store7profile20load_profile_payloads0_0B5_
FN:44,_RNCNvNtCs3PiHhja6dWM_12ettlex_store7profile20load_profile_payloads_0B5_
FN:290,_RNCNvNtCs3PiHhja6dWM_12ettlex_store7profile23list_profiles_paginated0B5_
FN:308,_RNCNvNtCs3PiHhja6dWM_12ettlex_store7profile23list_profiles_paginateds0_0B5_
FN:301,_RNCNvNtCs3PiHhja6dWM_12ettlex_store7profile23list_profiles_paginateds_0B5_
FN:187,_RNCNvNtCs3PiHhja6dWM_12ettlex_store7profile28get_approval_semantic_digest0B5_
FN:190,_RNCNvNtCs3PiHhja6dWM_12ettlex_store7profile28get_approval_semantic_digests_0B5_
FN:115,_RNCNvXs1_NtCs3PiHhja6dWM_12ettlex_store7profileNtB7_20SqliteApprovalRouterNtNtCs4640luT8Huz_11ettlex_core15approval_router14ApprovalRouter22route_approval_request0B9_
FN:144,_RNCNvXs1_NtCs3PiHhja6dWM_12ettlex_store7profileNtB7_20SqliteApprovalRouterNtNtCs4640luT8Huz_11ettlex_core15approval_router14ApprovalRouter22route_approval_requests0_0B9_
FN:168,_RNCNvXs1_NtCs3PiHhja6dWM_12ettlex_store7profileNtB7_20SqliteApprovalRouterNtNtCs4640luT8Huz_11ettlex_core15approval_router14ApprovalRouter22route_approval_requests1_0B9_
FN:140,_RNCNvXs1_NtCs3PiHhja6dWM_12ettlex_store7profileNtB7_20SqliteApprovalRouterNtNtCs4640luT8Huz_11ettlex_core15approval_router14ApprovalRouter22route_approval_requests_0B9_
FN:613,_RNvNtNtCsiIWUB9x025h_12ettlex_store7profile5tests14insert_profile
FN:622,_RNvNtNtCsiIWUB9x025h_12ettlex_store7profile5tests15insert_approval
FN:607,_RNvNtNtCsiIWUB9x025h_12ettlex_store7profile5tests5setup
FN:636,_RNvNtNtCsiIWUB9x025h_12ettlex_store7profile5testss_28test_load_profile_full_found
FN:709,_RNvNtNtCsiIWUB9x025h_12ettlex_store7profile5testss_29test_fetch_approval_row_found
FN:668,_RNvNtNtCsiIWUB9x025h_12ettlex_store7profile5testss_30test_load_default_profile_none
FN:657,_RNvNtNtCsiIWUB9x025h_12ettlex_store7profile5testss_31test_load_default_profile_found
FN:648,_RNvNtNtCsiIWUB9x025h_12ettlex_store7profile5testss_32test_load_profile_full_not_found
FN:722,_RNvNtNtCsiIWUB9x025h_12ettlex_store7profile5testss_33test_fetch_approval_row_not_found
FN:678,_RNvNtNtCsiIWUB9x025h_12ettlex_store7profile5testss_34test_list_profiles_paginated_basic
FN:731,_RNvNtNtCsiIWUB9x025h_12ettlex_store7profile5testss_39test_list_approval_rows_paginated_basic
FN:740,_RNvNtNtCsiIWUB9x025h_12ettlex_store7profile5testss_40test_list_approval_rows_paginated_cursor
FN:690,_RNvNtNtCsiIWUB9x025h_12ettlex_store7profile5testss_40test_list_profiles_paginated_with_cursor
FN:769,_RNvNtNtCsiIWUB9x025h_12ettlex_store7profile5testss_43test_query_approval_rows_no_digest_fallback
FN:780,_RNvNtNtCsiIWUB9x025h_12ettlex_store7profile5testss_46test_query_approval_rows_no_digest_with_cursor
FN:685,_RNCNvNtNtCsiIWUB9x025h_12ettlex_store7profile5testss_34test_list_profiles_paginated_basic0B7_
FN:759,_RNCNvNtNtCsiIWUB9x025h_12ettlex_store7profile5testss_40test_list_approval_rows_paginated_cursor0B7_
FN:760,_RNCNvNtNtCsiIWUB9x025h_12ettlex_store7profile5testss_40test_list_approval_rows_paginated_cursors_0B7_
FN:697,_RNCNvNtNtCsiIWUB9x025h_12ettlex_store7profile5testss_40test_list_profiles_paginated_with_cursor0B7_
FN:702,_RNCNvNtNtCsiIWUB9x025h_12ettlex_store7profile5testss_40test_list_profiles_paginated_with_cursors_0B7_
FN:216,_RNCNvNtCsiIWUB9x025h_12ettlex_store7profile17load_profile_full0B5_
FN:228,_RNCNvNtCsiIWUB9x025h_12ettlex_store7profile17load_profile_fulls0_0B5_
FN:219,_RNCNvNtCsiIWUB9x025h_12ettlex_store7profile17load_profile_fulls_0B5_
FN:439,_RNCNvNtCsiIWUB9x025h_12ettlex_store7profile18fetch_approval_row0B5_
FN:463,_RNCNvNtCsiIWUB9x025h_12ettlex_store7profile18fetch_approval_rows_0B5_
FN:249,_RNCNvNtCsiIWUB9x025h_12ettlex_store7profile20load_default_profile0B5_
FN:261,_RNCNvNtCsiIWUB9x025h_12ettlex_store7profile20load_default_profiles0_0B5_
FN:252,_RNCNvNtCsiIWUB9x025h_12ettlex_store7profile20load_default_profiles_0B5_
FN:290,_RNCNvNtCsiIWUB9x025h_12ettlex_store7profile23list_profiles_paginated0B5_
FN:308,_RNCNvNtCsiIWUB9x025h_12ettlex_store7profile23list_profiles_paginateds0_0B5_
FN:301,_RNCNvNtCsiIWUB9x025h_12ettlex_store7profile23list_profiles_paginateds_0B5_
FN:326,_RNCNvNtCsiIWUB9x025h_12ettlex_store7profile14create_profile0B5_
FN:340,_RNCNvNtCsiIWUB9x025h_12ettlex_store7profile14create_profiles0_0B5_
FN:361,_RNCNvNtCsiIWUB9x025h_12ettlex_store7profile14create_profiles1_0B5_
FN:368,_RNCNvNtCsiIWUB9x025h_12ettlex_store7profile14create_profiles2_0B5_
FN:337,_RNCNvNtCsiIWUB9x025h_12ettlex_store7profile14create_profiles_0B5_
FN:387,_RNCNvNtCsiIWUB9x025h_12ettlex_store7profile19set_default_profile0B5_
FN:390,_RNCNvNtCsiIWUB9x025h_12ettlex_store7profile19set_default_profiles0_0B5_
FN:407,_RNCNvNtCsiIWUB9x025h_12ettlex_store7profile19set_default_profiles1_0B5_
FN:418,_RNCNvNtCsiIWUB9x025h_12ettlex_store7profile19set_default_profiles2_0B5_
FN:389,_RNCNvNtCsiIWUB9x025h_12ettlex_store7profile19set_default_profiles_0B5_
FN:41,_RNCNvNtCsiIWUB9x025h_12ettlex_store7profile20load_profile_payload0B5_
FN:53,_RNCNvNtCsiIWUB9x025h_12ettlex_store7profile20load_profile_payloads0_0B5_
FN:44,_RNCNvNtCsiIWUB9x025h_12ettlex_store7profile20load_profile_payloads_0B5_
FN:187,_RNCNvNtCsiIWUB9x025h_12ettlex_store7profile28get_approval_semantic_digest0B5_
FN:190,_RNCNvNtCsiIWUB9x025h_12ettlex_store7profile28get_approval_semantic_digests_0B5_
FN:115,_RNCNvXs1_NtCsiIWUB9x025h_12ettlex_store7profileNtB7_20SqliteApprovalRouterNtNtCs4640luT8Huz_11ettlex_core15approval_router14ApprovalRouter22route_approval_request0B9_
FN:144,_RNCNvXs1_NtCsiIWUB9x025h_12ettlex_store7profileNtB7_20SqliteApprovalRouterNtNtCs4640luT8Huz_11ettlex_core15approval_router14ApprovalRouter22route_approval_requests0_0B9_
FN:168,_RNCNvXs1_NtCsiIWUB9x025h_12ettlex_store7profileNtB7_20SqliteApprovalRouterNtNtCs4640luT8Huz_11ettlex_core15approval_router14ApprovalRouter22route_approval_requests1_0B9_
FN:140,_RNCNvXs1_NtCsiIWUB9x025h_12ettlex_store7profileNtB7_20SqliteApprovalRouterNtNtCs4640luT8Huz_11ettlex_core15approval_router14ApprovalRouter22route_approval_requests_0B9_
FN:97,_RNvMs0_NtCsiIWUB9x025h_12ettlex_store7profileNtB5_20SqliteApprovalRouter12new_with_cas
FN:84,_RNvMs0_NtCsiIWUB9x025h_12ettlex_store7profileNtB5_20SqliteApprovalRouter3new
FN:321,_RNvNtCsiIWUB9x025h_12ettlex_store7profile14create_profile
FN:381,_RNvNtCsiIWUB9x025h_12ettlex_store7profile19set_default_profile
FN:33,_RNvNtCsiIWUB9x025h_12ettlex_store7profile20load_profile_payload
FN:179,_RNvNtCsiIWUB9x025h_12ettlex_store7profile28get_approval_semantic_digest
FN:107,_RNvXs1_NtCsiIWUB9x025h_12ettlex_store7profileNtB5_20SqliteApprovalRouterNtNtCs4640luT8Huz_11ettlex_core15approval_router14ApprovalRouter22route_approval_request
FN:208,_RNvNtCsiIWUB9x025h_12ettlex_store7profile17load_profile_full
FN:430,_RNvNtCsiIWUB9x025h_12ettlex_store7profile18fetch_approval_row
FN:242,_RNvNtCsiIWUB9x025h_12ettlex_store7profile20load_default_profile
FN:590,_RNvNtCsiIWUB9x025h_12ettlex_store7profile22approval_row_no_digest
FN:276,_RNvNtCsiIWUB9x025h_12ettlex_store7profile23list_profiles_paginated
FN:578,_RNvNtCsiIWUB9x025h_12ettlex_store7profile24approval_row_with_digest
FN:486,_RNvNtCsiIWUB9x025h_12ettlex_store7profile28list_approval_rows_paginated
FN:541,_RNvNtCsiIWUB9x025h_12ettlex_store7profile29query_approval_rows_no_digest
FN:504,_RNvNtCsiIWUB9x025h_12ettlex_store7profile31query_approval_rows_with_digest
FN:198,_RNvNtCsiIWUB9x025h_12ettlex_store7profile8sha2_hex
FNDA:4,_RNvMs0_NtCs3PiHhja6dWM_12ettlex_store7profileNtB5_20SqliteApprovalRouter12new_with_cas
FNDA:5,_RNvMs0_NtCs3PiHhja6dWM_12ettlex_store7profileNtB5_20SqliteApprovalRouter3new
FNDA:2,_RNvNtCs3PiHhja6dWM_12ettlex_store7profile14create_profile
FNDA:8,_RNvNtCs3PiHhja6dWM_12ettlex_store7profile17load_profile_full
FNDA:4,_RNvNtCs3PiHhja6dWM_12ettlex_store7profile18fetch_approval_row
FNDA:2,_RNvNtCs3PiHhja6dWM_12ettlex_store7profile19set_default_profile
FNDA:2,_RNvNtCs3PiHhja6dWM_12ettlex_store7profile20load_default_profile
FNDA:81,_RNvNtCs3PiHhja6dWM_12ettlex_store7profile20load_profile_payload
FNDA:0,_RNvNtCs3PiHhja6dWM_12ettlex_store7profile22approval_row_no_digest
FNDA:4,_RNvNtCs3PiHhja6dWM_12ettlex_store7profile23list_profiles_paginated
FNDA:3,_RNvNtCs3PiHhja6dWM_12ettlex_store7profile24approval_row_with_digest
FNDA:2,_RNvNtCs3PiHhja6dWM_12ettlex_store7profile28get_approval_semantic_digest
FNDA:1,_RNvNtCs3PiHhja6dWM_12ettlex_store7profile28list_approval_rows_paginated
FNDA:0,_RNvNtCs3PiHhja6dWM_12ettlex_store7profile29query_approval_rows_no_digest
FNDA:1,_RNvNtCs3PiHhja6dWM_12ettlex_store7profile31query_approval_rows_with_digest
FNDA:122,_RNvNtCs3PiHhja6dWM_12ettlex_store7profile8sha2_hex
FNDA:8,_RNvXs1_NtCs3PiHhja6dWM_12ettlex_store7profileNtB5_20SqliteApprovalRouterNtNtCs4640luT8Huz_11ettlex_core15approval_router14ApprovalRouter22route_approval_request
FNDA:0,_RNCNvNtCs3PiHhja6dWM_12ettlex_store7profile14create_profile0B5_
FNDA:0,_RNCNvNtCs3PiHhja6dWM_12ettlex_store7profile14create_profiles0_0B5_
FNDA:1,_RNCNvNtCs3PiHhja6dWM_12ettlex_store7profile14create_profiles1_0B5_
FNDA:0,_RNCNvNtCs3PiHhja6dWM_12ettlex_store7profile14create_profiles2_0B5_
FNDA:1,_RNCNvNtCs3PiHhja6dWM_12ettlex_store7profile14create_profiles_0B5_
FNDA:5,_RNCNvNtCs3PiHhja6dWM_12ettlex_store7profile17load_profile_full0B5_
FNDA:0,_RNCNvNtCs3PiHhja6dWM_12ettlex_store7profile17load_profile_fulls0_0B5_
FNDA:0,_RNCNvNtCs3PiHhja6dWM_12ettlex_store7profile17load_profile_fulls_0B5_
FNDA:2,_RNCNvNtCs3PiHhja6dWM_12ettlex_store7profile18fetch_approval_row0B5_
FNDA:0,_RNCNvNtCs3PiHhja6dWM_12ettlex_store7profile18fetch_approval_rows_0B5_
FNDA:2,_RNCNvNtCs3PiHhja6dWM_12ettlex_store7profile19set_default_profile0B5_
FNDA:0,_RNCNvNtCs3PiHhja6dWM_12ettlex_store7profile19set_default_profiles0_0B5_
FNDA:0,_RNCNvNtCs3PiHhja6dWM_12ettlex_store7profile19set_default_profiles1_0B5_
FNDA:0,_RNCNvNtCs3PiHhja6dWM_12ettlex_store7profile19set_default_profiles2_0B5_
FNDA:2,_RNCNvNtCs3PiHhja6dWM_12ettlex_store7profile19set_default_profiles_0B5_
FNDA:2,_RNCNvNtCs3PiHhja6dWM_12ettlex_store7profile20load_default_profile0B5_
FNDA:0,_RNCNvNtCs3PiHhja6dWM_12ettlex_store7profile20load_default_profiles0_0B5_
FNDA:0,_RNCNvNtCs3PiHhja6dWM_12ettlex_store7profile20load_default_profiles_0B5_
FNDA:23,_RNCNvNtCs3PiHhja6dWM_12ettlex_store7profile20load_profile_payload0B5_
FNDA:0,_RNCNvNtCs3PiHhja6dWM_12ettlex_store7profile20load_profile_payloads0_0B5_
FNDA:0,_RNCNvNtCs3PiHhja6dWM_12ettlex_store7profile20load_profile_payloads_0B5_
FNDA:3,_RNCNvNtCs3PiHhja6dWM_12ettlex_store7profile23list_profiles_paginated0B5_
FNDA:107,_RNCNvNtCs3PiHhja6dWM_12ettlex_store7profile23list_profiles_paginateds0_0B5_
FNDA:104,_RNCNvNtCs3PiHhja6dWM_12ettlex_store7profile23list_profiles_paginateds_0B5_
FNDA:2,_RNCNvNtCs3PiHhja6dWM_12ettlex_store7profile28get_approval_semantic_digest0B5_
FNDA:0,_RNCNvNtCs3PiHhja6dWM_12ettlex_store7profile28get_approval_semantic_digests_0B5_
FNDA:0,_RNCNvXs1_NtCs3PiHhja6dWM_12ettlex_store7profileNtB7_20SqliteApprovalRouterNtNtCs4640luT8Huz_11ettlex_core15approval_router14ApprovalRouter22route_approval_request0B9_
FNDA:0,_RNCNvXs1_NtCs3PiHhja6dWM_12ettlex_store7profileNtB7_20SqliteApprovalRouterNtNtCs4640luT8Huz_11ettlex_core15approval_router14ApprovalRouter22route_approval_requests0_0B9_
FNDA:0,_RNCNvXs1_NtCs3PiHhja6dWM_12ettlex_store7profileNtB7_20SqliteApprovalRouterNtNtCs4640luT8Huz_11ettlex_core15approval_router14ApprovalRouter22route_approval_requests1_0B9_
FNDA:0,_RNCNvXs1_NtCs3PiHhja6dWM_12ettlex_store7profileNtB7_20SqliteApprovalRouterNtNtCs4640luT8Huz_11ettlex_core15approval_router14ApprovalRouter22route_approval_requests_0B9_
FNDA:11,_RNvNtNtCsiIWUB9x025h_12ettlex_store7profile5tests14insert_profile
FNDA:4,_RNvNtNtCsiIWUB9x025h_12ettlex_store7profile5tests15insert_approval
FNDA:12,_RNvNtNtCsiIWUB9x025h_12ettlex_store7profile5tests5setup
FNDA:1,_RNvNtNtCsiIWUB9x025h_12ettlex_store7profile5testss_28test_load_profile_full_found
FNDA:1,_RNvNtNtCsiIWUB9x025h_12ettlex_store7profile5testss_29test_fetch_approval_row_found
FNDA:1,_RNvNtNtCsiIWUB9x025h_12ettlex_store7profile5testss_30test_load_default_profile_none
FNDA:1,_RNvNtNtCsiIWUB9x025h_12ettlex_store7profile5testss_31test_load_default_profile_found
FNDA:1,_RNvNtNtCsiIWUB9x025h_12ettlex_store7profile5testss_32test_load_profile_full_not_found
FNDA:1,_RNvNtNtCsiIWUB9x025h_12ettlex_store7profile5testss_33test_fetch_approval_row_not_found
FNDA:1,_RNvNtNtCsiIWUB9x025h_12ettlex_store7profile5testss_34test_list_profiles_paginated_basic
FNDA:1,_RNvNtNtCsiIWUB9x025h_12ettlex_store7profile5testss_39test_list_approval_rows_paginated_basic
FNDA:1,_RNvNtNtCsiIWUB9x025h_12ettlex_store7profile5testss_40test_list_approval_rows_paginated_cursor
FNDA:1,_RNvNtNtCsiIWUB9x025h_12ettlex_store7profile5testss_40test_list_profiles_paginated_with_cursor
FNDA:1,_RNvNtNtCsiIWUB9x025h_12ettlex_store7profile5testss_43test_query_approval_rows_no_digest_fallback
FNDA:1,_RNvNtNtCsiIWUB9x025h_12ettlex_store7profile5testss_46test_query_approval_rows_no_digest_with_cursor
FNDA:3,_RNCNvNtNtCsiIWUB9x025h_12ettlex_store7profile5testss_34test_list_profiles_paginated_basic0B7_
FNDA:2,_RNCNvNtNtCsiIWUB9x025h_12ettlex_store7profile5testss_40test_list_approval_rows_paginated_cursor0B7_
FNDA:2,_RNCNvNtNtCsiIWUB9x025h_12ettlex_store7profile5testss_40test_list_approval_rows_paginated_cursors_0B7_
FNDA:1,_RNCNvNtNtCsiIWUB9x025h_12ettlex_store7profile5testss_40test_list_profiles_paginated_with_cursor0B7_
FNDA:4,_RNCNvNtNtCsiIWUB9x025h_12ettlex_store7profile5testss_40test_list_profiles_paginated_with_cursors_0B7_
FNDA:1,_RNCNvNtCsiIWUB9x025h_12ettlex_store7profile17load_profile_full0B5_
FNDA:0,_RNCNvNtCsiIWUB9x025h_12ettlex_store7profile17load_profile_fulls0_0B5_
FNDA:0,_RNCNvNtCsiIWUB9x025h_12ettlex_store7profile17load_profile_fulls_0B5_
FNDA:1,_RNCNvNtCsiIWUB9x025h_12ettlex_store7profile18fetch_approval_row0B5_
FNDA:0,_RNCNvNtCsiIWUB9x025h_12ettlex_store7profile18fetch_approval_rows_0B5_
FNDA:1,_RNCNvNtCsiIWUB9x025h_12ettlex_store7profile20load_default_profile0B5_
FNDA:0,_RNCNvNtCsiIWUB9x025h_12ettlex_store7profile20load_default_profiles0_0B5_
FNDA:0,_RNCNvNtCsiIWUB9x025h_12ettlex_store7profile20load_default_profiles_0B5_
FNDA:2,_RNCNvNtCsiIWUB9x025h_12ettlex_store7profile23list_profiles_paginated0B5_
FNDA:7,_RNCNvNtCsiIWUB9x025h_12ettlex_store7profile23list_profiles_paginateds0_0B5_
FNDA:5,_RNCNvNtCsiIWUB9x025h_12ettlex_store7profile23list_profiles_paginateds_0B5_
FNDA:0,_RNCNvNtCsiIWUB9x025h_12ettlex_store7profile14create_profile0B5_
FNDA:0,_RNCNvNtCsiIWUB9x025h_12ettlex_store7profile14create_profiles0_0B5_
FNDA:0,_RNCNvNtCsiIWUB9x025h_12ettlex_store7profile14create_profiles1_0B5_
FNDA:0,_RNCNvNtCsiIWUB9x025h_12ettlex_store7profile14create_profiles2_0B5_
FNDA:0,_RNCNvNtCsiIWUB9x025h_12ettlex_store7profile14create_profiles_0B5_
FNDA:0,_RNCNvNtCsiIWUB9x025h_12ettlex_store7profile19set_default_profile0B5_
FNDA:0,_RNCNvNtCsiIWUB9x025h_12ettlex_store7profile19set_default_profiles0_0B5_
FNDA:0,_RNCNvNtCsiIWUB9x025h_12ettlex_store7profile19set_default_profiles1_0B5_
FNDA:0,_RNCNvNtCsiIWUB9x025h_12ettlex_store7profile19set_default_profiles2_0B5_
FNDA:0,_RNCNvNtCsiIWUB9x025h_12ettlex_store7profile19set_default_profiles_0B5_
FNDA:0,_RNCNvNtCsiIWUB9x025h_12ettlex_store7profile20load_profile_payload0B5_
FNDA:0,_RNCNvNtCsiIWUB9x025h_12ettlex_store7profile20load_profile_payloads0_0B5_
FNDA:0,_RNCNvNtCsiIWUB9x025h_12ettlex_store7profile20load_profile_payloads_0B5_
FNDA:0,_RNCNvNtCsiIWUB9x025h_12ettlex_store7profile28get_approval_semantic_digest0B5_
FNDA:0,_RNCNvNtCsiIWUB9x025h_12ettlex_store7profile28get_approval_semantic_digests_0B5_
FNDA:0,_RNCNvXs1_NtCsiIWUB9x025h_12ettlex_store7profileNtB7_20SqliteApprovalRouterNtNtCs4640luT8Huz_11ettlex_core15approval_router14ApprovalRouter22route_approval_request0B9_
FNDA:0,_RNCNvXs1_NtCsiIWUB9x025h_12ettlex_store7profileNtB7_20SqliteApprovalRouterNtNtCs4640luT8Huz_11ettlex_core15approval_router14ApprovalRouter22route_approval_requests0_0B9_
FNDA:0,_RNCNvXs1_NtCsiIWUB9x025h_12ettlex_store7profileNtB7_20SqliteApprovalRouterNtNtCs4640luT8Huz_11ettlex_core15approval_router14ApprovalRouter22route_approval_requests1_0B9_
FNDA:0,_RNCNvXs1_NtCsiIWUB9x025h_12ettlex_store7profileNtB7_20SqliteApprovalRouterNtNtCs4640luT8Huz_11ettlex_core15approval_router14ApprovalRouter22route_approval_requests_0B9_
FNDA:0,_RNvMs0_NtCsiIWUB9x025h_12ettlex_store7profileNtB5_20SqliteApprovalRouter12new_with_cas
FNDA:0,_RNvMs0_NtCsiIWUB9x025h_12ettlex_store7profileNtB5_20SqliteApprovalRouter3new
FNDA:0,_RNvNtCsiIWUB9x025h_12ettlex_store7profile14create_profile
FNDA:0,_RNvNtCsiIWUB9x025h_12ettlex_store7profile19set_default_profile
FNDA:0,_RNvNtCsiIWUB9x025h_12ettlex_store7profile20load_profile_payload
FNDA:0,_RNvNtCsiIWUB9x025h_12ettlex_store7profile28get_approval_semantic_digest
FNDA:0,_RNvXs1_NtCsiIWUB9x025h_12ettlex_store7profileNtB5_20SqliteApprovalRouterNtNtCs4640luT8Huz_11ettlex_core15approval_router14ApprovalRouter22route_approval_request
FNDA:2,_RNvNtCsiIWUB9x025h_12ettlex_store7profile17load_profile_full
FNDA:2,_RNvNtCsiIWUB9x025h_12ettlex_store7profile18fetch_approval_row
FNDA:2,_RNvNtCsiIWUB9x025h_12ettlex_store7profile20load_default_profile
FNDA:5,_RNvNtCsiIWUB9x025h_12ettlex_store7profile22approval_row_no_digest
FNDA:3,_RNvNtCsiIWUB9x025h_12ettlex_store7profile23list_profiles_paginated
FNDA:6,_RNvNtCsiIWUB9x025h_12ettlex_store7profile24approval_row_with_digest
FNDA:3,_RNvNtCsiIWUB9x025h_12ettlex_store7profile28list_approval_rows_paginated
FNDA:3,_RNvNtCsiIWUB9x025h_12ettlex_store7profile29query_approval_rows_no_digest
FNDA:3,_RNvNtCsiIWUB9x025h_12ettlex_store7profile31query_approval_rows_with_digest
FNDA:9,_RNvNtCsiIWUB9x025h_12ettlex_store7profile8sha2_hex
FNF:67
FNH:49
DA:33,81
DA:34,81
DA:35,81
DA:36,81
DA:37,81
DA:38,81
DA:39,81
DA:40,81
DA:41,23
DA:43,81
DA:44,81
DA:45,0
DA:46,0
DA:47,0
DA:48,0
DA:50,81
DA:51,58
DA:52,23
DA:53,23
DA:54,0
DA:55,0
DA:56,0
DA:57,0
DA:58,23
DA:61,81
DA:84,5
DA:85,5
DA:86,5
DA:87,5
DA:88,5
DA:89,5
DA:90,5
DA:97,4
DA:98,4
DA:99,4
DA:100,4
DA:101,4
DA:102,4
DA:103,4
DA:107,8
DA:108,8
DA:109,8
DA:110,8
DA:111,8
DA:112,8
DA:114,8
DA:115,8
DA:116,0
DA:117,0
DA:118,0
DA:121,8
DA:122,8
DA:123,8
DA:124,8
DA:126,8
DA:127,8
DA:128,8
DA:129,8
DA:132,8
DA:133,4
DA:134,4
DA:135,4
DA:136,4
DA:137,4
DA:138,4
DA:140,4
DA:141,0
DA:142,0
DA:143,0
DA:144,4
DA:145,0
DA:146,0
DA:147,0
DA:148,0
DA:149,4
DA:151,4
DA:154,8
DA:155,8
DA:156,8
DA:157,8
DA:158,8
DA:159,8
DA:168,8
DA:169,0
DA:170,0
DA:171,0
DA:172,0
DA:174,8
DA:175,8
DA:179,2
DA:180,2
DA:181,2
DA:182,2
DA:183,2
DA:184,2
DA:185,2
DA:186,2
DA:187,2
DA:189,2
DA:190,2
DA:191,0
DA:192,0
DA:193,0
DA:194,0
DA:195,2
DA:196,2
DA:198,131
DA:200,131
DA:201,131
DA:202,131
DA:203,131
DA:208,10
DA:209,10
DA:210,10
DA:211,10
DA:212,10
DA:213,10
DA:214,10
DA:215,10
DA:216,6
DA:218,10
DA:219,10
DA:220,0
DA:221,0
DA:222,0
DA:223,0
DA:225,10
DA:226,4
DA:227,6
DA:228,6
DA:229,0
DA:230,0
DA:231,0
DA:232,0
DA:233,6
DA:234,6
DA:237,10
DA:242,4
DA:243,4
DA:244,4
DA:245,4
DA:246,4
DA:247,4
DA:248,4
DA:249,3
DA:251,4
DA:252,4
DA:253,0
DA:254,0
DA:255,0
DA:256,0
DA:258,4
DA:259,1
DA:260,3
DA:261,3
DA:262,0
DA:263,0
DA:264,0
DA:265,0
DA:266,3
DA:267,3
DA:270,4
DA:276,7
DA:277,7
DA:278,7
DA:279,7
DA:280,7
DA:281,7
DA:282,2
DA:288,2
DA:289,2
DA:290,5
DA:291,2
DA:292,2
DA:293,2
DA:295,5
DA:299,5
DA:300,5
DA:301,109
DA:302,5
DA:303,5
DA:304,5
DA:307,7
DA:308,114
DA:309,114
DA:310,114
DA:311,114
DA:312,114
DA:313,114
DA:314,7
DA:315,7
DA:321,2
DA:322,2
DA:323,2
DA:324,2
DA:325,2
DA:326,2
DA:327,0
DA:328,0
DA:329,0
DA:330,0
DA:333,2
DA:334,2
DA:335,2
DA:336,2
DA:337,1
DA:339,2
DA:340,2
DA:341,0
DA:342,0
DA:343,0
DA:344,0
DA:346,2
DA:348,1
DA:349,1
DA:350,1
DA:351,1
DA:352,0
DA:353,1
DA:354,1
DA:355,1
DA:356,1
DA:357,1
DA:359,1
DA:360,1
DA:361,1
DA:362,1
DA:364,1
DA:365,1
DA:366,1
DA:368,1
DA:369,0
DA:370,0
DA:371,0
DA:372,0
DA:374,1
DA:375,2
DA:381,2
DA:383,2
DA:384,2
DA:385,2
DA:386,2
DA:387,2
DA:389,2
DA:390,2
DA:391,0
DA:392,0
DA:393,0
DA:394,0
DA:396,2
DA:397,1
DA:398,1
DA:399,1
DA:400,1
DA:403,1
DA:404,1
DA:405,1
DA:407,1
DA:408,0
DA:409,0
DA:410,0
DA:411,0
DA:414,1
DA:415,1
DA:416,1
DA:418,1
DA:419,0
DA:420,0
DA:421,0
DA:422,0
DA:424,1
DA:425,2
DA:430,6
DA:432,6
DA:433,6
DA:434,6
DA:435,6
DA:436,6
DA:437,6
DA:438,6
DA:439,3
DA:441,3
DA:442,3
DA:443,3
DA:444,3
DA:445,3
DA:446,3
DA:447,3
DA:449,3
DA:451,6
DA:453,0
DA:454,6
DA:457,0
DA:458,0
DA:459,0
DA:460,0
DA:461,0
DA:462,0
DA:463,0
DA:465,0
DA:466,0
DA:467,0
DA:468,0
DA:469,0
DA:470,0
DA:471,0
DA:473,0
DA:475,0
DA:476,0
DA:478,0
DA:480,6
DA:486,4
DA:487,4
DA:488,4
DA:489,4
DA:490,4
DA:493,4
DA:494,0
DA:495,4
DA:496,0
DA:497,0
DA:498,0
DA:499,0
DA:501,0
DA:502,4
DA:504,4
DA:505,4
DA:506,4
DA:507,4
DA:508,4
DA:509,4
DA:510,1
DA:518,1
DA:519,1
DA:520,1
DA:521,1
DA:522,1
DA:523,1
DA:525,3
DA:532,3
DA:533,3
DA:534,3
DA:535,3
DA:536,3
DA:537,3
DA:539,4
DA:541,3
DA:542,3
DA:543,3
DA:544,3
DA:545,3
DA:546,3
DA:547,1
DA:555,1
DA:556,1
DA:557,1
DA:558,1
DA:559,1
DA:560,1
DA:562,2
DA:569,2
DA:570,2
DA:571,2
DA:572,2
DA:573,2
DA:574,2
DA:576,3
DA:578,9
DA:580,9
DA:581,9
DA:582,9
DA:583,9
DA:584,9
DA:585,9
DA:586,9
DA:588,9
DA:590,5
DA:592,5
DA:593,5
DA:594,5
DA:595,5
DA:596,5
DA:597,5
DA:598,5
DA:600,5
DA:607,12
DA:608,12
DA:609,12
DA:610,12
DA:611,12
DA:613,11
DA:614,11
DA:615,11
DA:616,11
DA:617,11
DA:619,11
DA:620,11
DA:622,4
DA:623,4
DA:624,4
DA:625,4
DA:626,4
DA:627,4
DA:628,4
DA:630,4
DA:631,4
DA:636,1
DA:637,1
DA:638,1
DA:639,1
DA:640,1
DA:641,1
DA:642,1
DA:643,1
DA:644,1
DA:645,1
DA:648,1
DA:649,1
DA:650,1
DA:651,1
DA:652,1
DA:657,1
DA:658,1
DA:659,1
DA:660,1
DA:661,1
DA:662,1
DA:663,1
DA:664,1
DA:665,1
DA:668,1
DA:669,1
DA:670,1
DA:671,1
DA:672,1
DA:673,1
DA:678,1
DA:679,1
DA:680,1
DA:681,1
DA:682,1
DA:683,1
DA:684,1
DA:685,3
DA:686,1
DA:687,1
DA:690,1
DA:691,1
DA:692,5
DA:693,5
DA:694,5
DA:695,1
DA:696,1
DA:697,1
DA:698,1
DA:699,1
DA:701,2
DA:702,4
DA:704,1
DA:709,1
DA:710,1
DA:711,1
DA:712,1
DA:713,1
DA:714,1
DA:715,1
DA:716,1
DA:717,1
DA:718,1
DA:719,1
DA:722,1
DA:723,1
DA:724,1
DA:725,1
DA:726,1
DA:731,1
DA:732,1
DA:733,1
DA:734,1
DA:735,1
DA:736,1
DA:737,1
DA:740,1
DA:741,1
DA:742,4
DA:743,4
DA:744,4
DA:745,4
DA:746,4
DA:747,4
DA:748,4
DA:749,4
DA:750,4
DA:751,4
DA:752,1
DA:753,1
DA:754,1
DA:755,1
DA:756,1
DA:757,1
DA:759,2
DA:760,2
DA:761,2
DA:762,2
DA:764,1
DA:769,1
DA:770,1
DA:771,1
DA:773,1
DA:774,1
DA:775,1
DA:776,1
DA:777,1
DA:780,1
DA:781,1
DA:782,4
DA:783,4
DA:784,4
DA:785,4
DA:786,4
DA:787,4
DA:788,4
DA:789,4
DA:790,4
DA:791,4
DA:792,1
DA:793,1
DA:794,1
DA:795,1
DA:796,1
DA:797,1
DA:798,1
BRF:0
BRH:0
LF:576
LH:450
end_of_record
SF:/Users/nick/Development/EttleX/EttleX-Project/Rust/crates/ettlex-store/src/repo/hydration.rs
FN:15,_RNvNtNtCs3PiHhja6dWM_12ettlex_store4repo9hydration10load_ettle
FN:157,_RNvNtNtCs3PiHhja6dWM_12ettlex_store4repo9hydration12load_all_eps
FN:70,_RNvNtNtCs3PiHhja6dWM_12ettlex_store4repo9hydration15load_all_ettles
FN:111,_RNvNtNtCs3PiHhja6dWM_12ettlex_store4repo9hydration7load_ep
FN:208,_RNvNtNtCs3PiHhja6dWM_12ettlex_store4repo9hydration9load_tree
FN:21,_RNCNvNtNtCs3PiHhja6dWM_12ettlex_store4repo9hydration10load_ettle0B7_
FN:51,_RNCNvNtNtCs3PiHhja6dWM_12ettlex_store4repo9hydration10load_ettles_0B7_
FN:163,_RNCNvNtNtCs3PiHhja6dWM_12ettlex_store4repo9hydration12load_all_eps0B7_
FN:76,_RNCNvNtNtCs3PiHhja6dWM_12ettlex_store4repo9hydration15load_all_ettles0B7_
FN:117,_RNCNvNtNtCs3PiHhja6dWM_12ettlex_store4repo9hydration7load_ep0B7_
FN:21,_RNCNvNtNtCsiIWUB9x025h_12ettlex_store4repo9hydration10load_ettle0B7_
FN:51,_RNCNvNtNtCsiIWUB9x025h_12ettlex_store4repo9hydration10load_ettles_0B7_
FN:163,_RNCNvNtNtCsiIWUB9x025h_12ettlex_store4repo9hydration12load_all_eps0B7_
FN:76,_RNCNvNtNtCsiIWUB9x025h_12ettlex_store4repo9hydration15load_all_ettles0B7_
FN:276,_RNvNtNtNtCsiIWUB9x025h_12ettlex_store4repo9hydration5tests13setup_test_db
FN:283,_RNvNtNtNtCsiIWUB9x025h_12ettlex_store4repo9hydration5testss_15test_load_ettle
FN:297,_RNvNtNtNtCsiIWUB9x025h_12ettlex_store4repo9hydration5testss_20test_load_tree_empty
FN:15,_RNvNtNtCsiIWUB9x025h_12ettlex_store4repo9hydration10load_ettle
FN:157,_RNvNtNtCsiIWUB9x025h_12ettlex_store4repo9hydration12load_all_eps
FN:70,_RNvNtNtCsiIWUB9x025h_12ettlex_store4repo9hydration15load_all_ettles
FN:208,_RNvNtNtCsiIWUB9x025h_12ettlex_store4repo9hydration9load_tree
FN:117,_RNCNvNtNtCsiIWUB9x025h_12ettlex_store4repo9hydration7load_ep0B7_
FN:111,_RNvNtNtCsiIWUB9x025h_12ettlex_store4repo9hydration7load_ep
FNDA:1,_RNvNtNtCs3PiHhja6dWM_12ettlex_store4repo9hydration10load_ettle
FNDA:150,_RNvNtNtCs3PiHhja6dWM_12ettlex_store4repo9hydration12load_all_eps
FNDA:152,_RNvNtNtCs3PiHhja6dWM_12ettlex_store4repo9hydration15load_all_ettles
FNDA:0,_RNvNtNtCs3PiHhja6dWM_12ettlex_store4repo9hydration7load_ep
FNDA:150,_RNvNtNtCs3PiHhja6dWM_12ettlex_store4repo9hydration9load_tree
FNDA:1,_RNCNvNtNtCs3PiHhja6dWM_12ettlex_store4repo9hydration10load_ettle0B7_
FNDA:0,_RNCNvNtNtCs3PiHhja6dWM_12ettlex_store4repo9hydration10load_ettles_0B7_
FNDA:163,_RNCNvNtNtCs3PiHhja6dWM_12ettlex_store4repo9hydration12load_all_eps0B7_
FNDA:162,_RNCNvNtNtCs3PiHhja6dWM_12ettlex_store4repo9hydration15load_all_ettles0B7_
FNDA:0,_RNCNvNtNtCs3PiHhja6dWM_12ettlex_store4repo9hydration7load_ep0B7_
FNDA:1,_RNCNvNtNtCsiIWUB9x025h_12ettlex_store4repo9hydration10load_ettle0B7_
FNDA:0,_RNCNvNtNtCsiIWUB9x025h_12ettlex_store4repo9hydration10load_ettles_0B7_
FNDA:0,_RNCNvNtNtCsiIWUB9x025h_12ettlex_store4repo9hydration12load_all_eps0B7_
FNDA:0,_RNCNvNtNtCsiIWUB9x025h_12ettlex_store4repo9hydration15load_all_ettles0B7_
FNDA:2,_RNvNtNtNtCsiIWUB9x025h_12ettlex_store4repo9hydration5tests13setup_test_db
FNDA:1,_RNvNtNtNtCsiIWUB9x025h_12ettlex_store4repo9hydration5testss_15test_load_ettle
FNDA:1,_RNvNtNtNtCsiIWUB9x025h_12ettlex_store4repo9hydration5testss_20test_load_tree_empty
FNDA:1,_RNvNtNtCsiIWUB9x025h_12ettlex_store4repo9hydration10load_ettle
FNDA:1,_RNvNtNtCsiIWUB9x025h_12ettlex_store4repo9hydration12load_all_eps
FNDA:1,_RNvNtNtCsiIWUB9x025h_12ettlex_store4repo9hydration15load_all_ettles
FNDA:1,_RNvNtNtCsiIWUB9x025h_12ettlex_store4repo9hydration9load_tree
FNDA:0,_RNCNvNtNtCsiIWUB9x025h_12ettlex_store4repo9hydration7load_ep0B7_
FNDA:0,_RNvNtNtCsiIWUB9x025h_12ettlex_store4repo9hydration7load_ep
FNF:13
FNH:10
DA:15,2
DA:16,2
DA:17,2
DA:18,2
DA:20,2
DA:21,2
DA:22,2
DA:23,2
DA:24,2
DA:25,2
DA:26,2
DA:27,2
DA:28,2
DA:29,2
DA:31,2
DA:32,2
DA:33,2
DA:34,2
DA:35,2
DA:36,2
DA:37,2
DA:38,2
DA:39,2
DA:41,2
DA:42,2
DA:43,2
DA:46,2
DA:47,2
DA:48,2
DA:50,2
DA:51,2
DA:52,2
DA:53,2
DA:54,2
DA:57,2
DA:58,2
DA:59,0
DA:60,0
DA:62,2
DA:64,2
DA:65,2
DA:70,153
DA:71,153
DA:72,153
DA:73,153
DA:75,153
DA:76,162
DA:77,162
DA:78,162
DA:79,162
DA:80,162
DA:81,162
DA:82,162
DA:83,162
DA:84,162
DA:86,162
DA:87,162
DA:88,162
DA:89,162
DA:90,162
DA:91,162
DA:92,162
DA:93,162
DA:94,162
DA:96,162
DA:97,162
DA:98,153
DA:99,153
DA:100,153
DA:103,162
DA:104,162
DA:105,162
DA:107,153
DA:108,153
DA:111,0
DA:112,0
DA:113,0
DA:114,0
DA:116,0
DA:117,0
DA:118,0
DA:119,0
DA:120,0
DA:121,0
DA:122,0
DA:123,0
DA:124,0
DA:125,0
DA:126,0
DA:127,0
DA:130,0
DA:131,0
DA:132,0
DA:133,0
DA:134,0
DA:136,0
DA:137,0
DA:138,0
DA:139,0
DA:140,0
DA:141,0
DA:142,0
DA:143,0
DA:145,0
DA:146,0
DA:147,0
DA:149,0
DA:151,0
DA:152,0
DA:157,151
DA:158,151
DA:159,151
DA:160,151
DA:162,151
DA:163,163
DA:164,163
DA:165,163
DA:166,163
DA:167,163
DA:168,163
DA:169,163
DA:170,163
DA:171,163
DA:172,163
DA:173,163
DA:176,163
DA:177,163
DA:178,163
DA:179,163
DA:180,163
DA:182,163
DA:183,163
DA:184,163
DA:185,163
DA:186,163
DA:187,163
DA:188,163
DA:189,163
DA:191,163
DA:192,163
DA:193,151
DA:194,151
DA:195,151
DA:198,163
DA:199,163
DA:200,163
DA:202,151
DA:203,151
DA:208,151
DA:209,151
DA:212,151
DA:215,151
DA:218,151
DA:219,151
DA:220,30
DA:221,30
DA:224,151
DA:225,151
DA:226,29
DA:227,29
DA:230,151
DA:231,151
DA:232,15
DA:233,15
DA:236,151
DA:237,151
DA:238,0
DA:239,0
DA:242,151
DA:243,151
DA:244,4
DA:245,4
DA:249,151
DA:251,163
DA:252,163
DA:253,163
DA:254,163
DA:255,163
DA:256,163
DA:259,153
DA:260,153
DA:261,152
DA:262,162
DA:263,162
DA:264,162
DA:265,1
DA:268,151
DA:269,151
DA:276,2
DA:277,2
DA:278,2
DA:279,2
DA:280,2
DA:283,1
DA:284,1
DA:285,1
DA:286,1
DA:288,1
DA:289,1
DA:291,1
DA:292,1
DA:293,1
DA:294,1
DA:297,1
DA:298,1
DA:299,1
DA:300,1
DA:301,1
DA:302,1
BRF:0
BRH:0
LF:214
LH:173
end_of_record
SF:/Users/nick/Development/EttleX/EttleX-Project/Rust/crates/ettlex-store/src/repo/sqlite_repo.rs
FN:79,_RNvMNtNtCs3PiHhja6dWM_12ettlex_store4repo11sqlite_repoNtB2_10SqliteRepo10persist_ep
FN:616,_RNvMNtNtCs3PiHhja6dWM_12ettlex_store4repo11sqlite_repoNtB2_10SqliteRepo12get_decision
FN:119,_RNvMNtNtCs3PiHhja6dWM_12ettlex_store4repo11sqlite_repoNtB2_10SqliteRepo13persist_ep_tx
FN:21,_RNvMNtNtCs3PiHhja6dWM_12ettlex_store4repo11sqlite_repoNtB2_10SqliteRepo13persist_ettle
FN:301,_RNvMNtNtCs3PiHhja6dWM_12ettlex_store4repo11sqlite_repoNtB2_10SqliteRepo14get_constraint
FN:672,_RNvMNtNtCs3PiHhja6dWM_12ettlex_store4repo11sqlite_repoNtB2_10SqliteRepo14list_decisions
FN:351,_RNvMNtNtCs3PiHhja6dWM_12ettlex_store4repo11sqlite_repoNtB2_10SqliteRepo16list_constraints
FN:481,_RNvMNtNtCs3PiHhja6dWM_12ettlex_store4repo11sqlite_repoNtB2_10SqliteRepo16persist_decision
FN:49,_RNvMNtNtCs3PiHhja6dWM_12ettlex_store4repo11sqlite_repoNtB2_10SqliteRepo16persist_ettle_tx
FN:916,_RNvMNtNtCs3PiHhja6dWM_12ettlex_store4repo11sqlite_repoNtB2_10SqliteRepo18list_eps_for_ettle
FN:237,_RNvMNtNtCs3PiHhja6dWM_12ettlex_store4repo11sqlite_repoNtB2_10SqliteRepo18persist_constraint
FN:731,_RNvMNtNtCs3PiHhja6dWM_12ettlex_store4repo11sqlite_repoNtB2_10SqliteRepo19list_decision_links
FN:525,_RNvMNtNtCs3PiHhja6dWM_12ettlex_store4repo11sqlite_repoNtB2_10SqliteRepo19persist_decision_tx
FN:935,_RNvMNtNtCs3PiHhja6dWM_12ettlex_store4repo11sqlite_repoNtB2_10SqliteRepo20list_child_eps_of_ep
FN:844,_RNvMNtNtCs3PiHhja6dWM_12ettlex_store4repo11sqlite_repoNtB2_10SqliteRepo21list_ettles_paginated
FN:957,_RNvMNtNtCs3PiHhja6dWM_12ettlex_store4repo11sqlite_repoNtB2_10SqliteRepo21list_parent_eps_of_ep
FN:269,_RNvMNtNtCs3PiHhja6dWM_12ettlex_store4repo11sqlite_repoNtB2_10SqliteRepo21persist_constraint_tx
FN:591,_RNvMNtNtCs3PiHhja6dWM_12ettlex_store4repo11sqlite_repoNtB2_10SqliteRepo21persist_decision_link
FN:569,_RNvMNtNtCs3PiHhja6dWM_12ettlex_store4repo11sqlite_repoNtB2_10SqliteRepo21persist_evidence_item
FN:772,_RNvMNtNtCs3PiHhja6dWM_12ettlex_store4repo11sqlite_repoNtB2_10SqliteRepo23list_all_decision_links
FN:808,_RNvMNtNtCs3PiHhja6dWM_12ettlex_store4repo11sqlite_repoNtB2_10SqliteRepo23list_all_evidence_items
FN:418,_RNvMNtNtCs3PiHhja6dWM_12ettlex_store4repo11sqlite_repoNtB2_10SqliteRepo23list_ep_constraint_refs
FN:1050,_RNvMNtNtCs3PiHhja6dWM_12ettlex_store4repo11sqlite_repoNtB2_10SqliteRepo24list_decisions_by_target
FN:1088,_RNvMNtNtCs3PiHhja6dWM_12ettlex_store4repo11sqlite_repoNtB2_10SqliteRepo24list_decisions_paginated
FN:396,_RNvMNtNtCs3PiHhja6dWM_12ettlex_store4repo11sqlite_repoNtB2_10SqliteRepo25persist_ep_constraint_ref
FN:1005,_RNvMNtNtCs3PiHhja6dWM_12ettlex_store4repo11sqlite_repoNtB2_10SqliteRepo26list_constraints_by_family
FN:449,_RNvMNtNtCs3PiHhja6dWM_12ettlex_store4repo11sqlite_repoNtB2_10SqliteRepo27list_all_ep_constraint_refs
FN:1031,_RNvMNtNtCs3PiHhja6dWM_12ettlex_store4repo11sqlite_repoNtB2_10SqliteRepo31list_constraints_for_ep_ordered
FN:192,_RNvMNtNtCs3PiHhja6dWM_12ettlex_store4repo11sqlite_repoNtB2_10SqliteRepo6get_ep
FN:157,_RNvMNtNtCs3PiHhja6dWM_12ettlex_store4repo11sqlite_repoNtB2_10SqliteRepo9get_ettle
FN:1206,_RINvMNtNtCs3PiHhja6dWM_12ettlex_store4repo11sqlite_repoNtB3_10SqliteRepo15query_decisionsARDNtNtNtCs4RJl5VwurMo_8rusqlite5types6to_sql5ToSqlNtNtCsezyhsC6CBT9_4core6marker4SyncNtB2g_4SendEL_j0_EB7_
FN:1206,_RINvMNtNtCs3PiHhja6dWM_12ettlex_store4repo11sqlite_repoNtB3_10SqliteRepo15query_decisionsRSRDNtNtNtCs4RJl5VwurMo_8rusqlite5types6to_sql5ToSqlEL_EB7_
FN:1168,_RINvMNtNtCs3PiHhja6dWM_12ettlex_store4repo11sqlite_repoNtB3_10SqliteRepo17query_constraintsARej1_EB7_
FN:1129,_RINvMNtNtCs3PiHhja6dWM_12ettlex_store4repo11sqlite_repoNtB3_10SqliteRepo9query_epsARej1_EB7_
FN:1211,_RNCINvMNtNtCs3PiHhja6dWM_12ettlex_store4repo11sqlite_repoNtB5_10SqliteRepo15query_decisionsARDNtNtNtCs4RJl5VwurMo_8rusqlite5types6to_sql5ToSqlNtNtCsezyhsC6CBT9_4core6marker4SyncNtB2i_4SendEL_j0_E0B9_
FN:1211,_RNCINvMNtNtCs3PiHhja6dWM_12ettlex_store4repo11sqlite_repoNtB5_10SqliteRepo15query_decisionsRSRDNtNtNtCs4RJl5VwurMo_8rusqlite5types6to_sql5ToSqlEL_E0B9_
FN:1173,_RNCINvMNtNtCs3PiHhja6dWM_12ettlex_store4repo11sqlite_repoNtB5_10SqliteRepo17query_constraintsARej1_E0B9_
FN:1134,_RNCINvMNtNtCs3PiHhja6dWM_12ettlex_store4repo11sqlite_repoNtB5_10SqliteRepo9query_epsARej1_E0B9_
FN:623,_RNCNvMNtNtCs3PiHhja6dWM_12ettlex_store4repo11sqlite_repoNtB4_10SqliteRepo12get_decision0B8_
FN:40,_RNCNvMNtNtCs3PiHhja6dWM_12ettlex_store4repo11sqlite_repoNtB4_10SqliteRepo13persist_ettle0B8_
FN:308,_RNCNvMNtNtCs3PiHhja6dWM_12ettlex_store4repo11sqlite_repoNtB4_10SqliteRepo14get_constraint0B8_
FN:682,_RNCNvMNtNtCs3PiHhja6dWM_12ettlex_store4repo11sqlite_repoNtB4_10SqliteRepo14list_decisions0B8_
FN:361,_RNCNvMNtNtCs3PiHhja6dWM_12ettlex_store4repo11sqlite_repoNtB4_10SqliteRepo16list_constraints0B8_
FN:482,_RNCNvMNtNtCs3PiHhja6dWM_12ettlex_store4repo11sqlite_repoNtB4_10SqliteRepo16persist_decision0B8_
FN:68,_RNCNvMNtNtCs3PiHhja6dWM_12ettlex_store4repo11sqlite_repoNtB4_10SqliteRepo16persist_ettle_tx0B8_
FN:238,_RNCNvMNtNtCs3PiHhja6dWM_12ettlex_store4repo11sqlite_repoNtB4_10SqliteRepo18persist_constraint0B8_
FN:746,_RNCNvMNtNtCs3PiHhja6dWM_12ettlex_store4repo11sqlite_repoNtB4_10SqliteRepo19list_decision_links0B8_
FN:526,_RNCNvMNtNtCs3PiHhja6dWM_12ettlex_store4repo11sqlite_repoNtB4_10SqliteRepo19persist_decision_tx0B8_
FN:941,_RNCNvMNtNtCs3PiHhja6dWM_12ettlex_store4repo11sqlite_repoNtB4_10SqliteRepo20list_child_eps_of_ep0B8_
FN:885,_RNCNvMNtNtCs3PiHhja6dWM_12ettlex_store4repo11sqlite_repoNtB4_10SqliteRepo21list_ettles_paginated0B8_
FN:888,_RNCNvMNtNtCs3PiHhja6dWM_12ettlex_store4repo11sqlite_repoNtB4_10SqliteRepo21list_ettles_paginateds_0B8_
FN:960,_RNCNvMNtNtCs3PiHhja6dWM_12ettlex_store4repo11sqlite_repoNtB4_10SqliteRepo21list_parent_eps_of_ep0B8_
FN:987,_RNCNvMNtNtCs3PiHhja6dWM_12ettlex_store4repo11sqlite_repoNtB4_10SqliteRepo21list_parent_eps_of_eps_0B8_
FN:270,_RNCNvMNtNtCs3PiHhja6dWM_12ettlex_store4repo11sqlite_repoNtB4_10SqliteRepo21persist_constraint_tx0B8_
FN:592,_RNCNvMNtNtCs3PiHhja6dWM_12ettlex_store4repo11sqlite_repoNtB4_10SqliteRepo21persist_decision_link0B8_
FN:782,_RNCNvMNtNtCs3PiHhja6dWM_12ettlex_store4repo11sqlite_repoNtB4_10SqliteRepo23list_all_decision_links0B8_
FN:818,_RNCNvMNtNtCs3PiHhja6dWM_12ettlex_store4repo11sqlite_repoNtB4_10SqliteRepo23list_all_evidence_items0B8_
FN:429,_RNCNvMNtNtCs3PiHhja6dWM_12ettlex_store4repo11sqlite_repoNtB4_10SqliteRepo23list_ep_constraint_refs0B8_
FN:459,_RNCNvMNtNtCs3PiHhja6dWM_12ettlex_store4repo11sqlite_repoNtB4_10SqliteRepo27list_all_ep_constraint_refs0B8_
FN:198,_RNCNvMNtNtCs3PiHhja6dWM_12ettlex_store4repo11sqlite_repoNtB4_10SqliteRepo6get_ep0B8_
FN:163,_RNCNvMNtNtCs3PiHhja6dWM_12ettlex_store4repo11sqlite_repoNtB4_10SqliteRepo9get_ettle0B8_
FN:79,_RNvMNtNtCsiIWUB9x025h_12ettlex_store4repo11sqlite_repoNtB2_10SqliteRepo10persist_ep
FN:119,_RNvMNtNtCsiIWUB9x025h_12ettlex_store4repo11sqlite_repoNtB2_10SqliteRepo13persist_ep_tx
FN:21,_RNvMNtNtCsiIWUB9x025h_12ettlex_store4repo11sqlite_repoNtB2_10SqliteRepo13persist_ettle
FN:672,_RNvMNtNtCsiIWUB9x025h_12ettlex_store4repo11sqlite_repoNtB2_10SqliteRepo14list_decisions
FN:351,_RNvMNtNtCsiIWUB9x025h_12ettlex_store4repo11sqlite_repoNtB2_10SqliteRepo16list_constraints
FN:49,_RNvMNtNtCsiIWUB9x025h_12ettlex_store4repo11sqlite_repoNtB2_10SqliteRepo16persist_ettle_tx
FN:772,_RNvMNtNtCsiIWUB9x025h_12ettlex_store4repo11sqlite_repoNtB2_10SqliteRepo23list_all_decision_links
FN:808,_RNvMNtNtCsiIWUB9x025h_12ettlex_store4repo11sqlite_repoNtB2_10SqliteRepo23list_all_evidence_items
FN:449,_RNvMNtNtCsiIWUB9x025h_12ettlex_store4repo11sqlite_repoNtB2_10SqliteRepo27list_all_ep_constraint_refs
FN:192,_RNvMNtNtCsiIWUB9x025h_12ettlex_store4repo11sqlite_repoNtB2_10SqliteRepo6get_ep
FN:157,_RNvMNtNtCsiIWUB9x025h_12ettlex_store4repo11sqlite_repoNtB2_10SqliteRepo9get_ettle
FN:1264,_RNvNtNtNtCsiIWUB9x025h_12ettlex_store4repo11sqlite_repo5tests13setup_test_db
FN:1287,_RNvNtNtNtCsiIWUB9x025h_12ettlex_store4repo11sqlite_repo5testss_23test_persist_and_get_ep
FN:1271,_RNvNtNtNtCsiIWUB9x025h_12ettlex_store4repo11sqlite_repo5testss_26test_persist_and_get_ettle
FN:1320,_RNvNtNtNtCsiIWUB9x025h_12ettlex_store4repo11sqlite_repo5testss_29test_persist_ettle_idempotent
FN:40,_RNCNvMNtNtCsiIWUB9x025h_12ettlex_store4repo11sqlite_repoNtB4_10SqliteRepo13persist_ettle0B8_
FN:682,_RNCNvMNtNtCsiIWUB9x025h_12ettlex_store4repo11sqlite_repoNtB4_10SqliteRepo14list_decisions0B8_
FN:361,_RNCNvMNtNtCsiIWUB9x025h_12ettlex_store4repo11sqlite_repoNtB4_10SqliteRepo16list_constraints0B8_
FN:68,_RNCNvMNtNtCsiIWUB9x025h_12ettlex_store4repo11sqlite_repoNtB4_10SqliteRepo16persist_ettle_tx0B8_
FN:782,_RNCNvMNtNtCsiIWUB9x025h_12ettlex_store4repo11sqlite_repoNtB4_10SqliteRepo23list_all_decision_links0B8_
FN:818,_RNCNvMNtNtCsiIWUB9x025h_12ettlex_store4repo11sqlite_repoNtB4_10SqliteRepo23list_all_evidence_items0B8_
FN:459,_RNCNvMNtNtCsiIWUB9x025h_12ettlex_store4repo11sqlite_repoNtB4_10SqliteRepo27list_all_ep_constraint_refs0B8_
FN:198,_RNCNvMNtNtCsiIWUB9x025h_12ettlex_store4repo11sqlite_repoNtB4_10SqliteRepo6get_ep0B8_
FN:163,_RNCNvMNtNtCsiIWUB9x025h_12ettlex_store4repo11sqlite_repoNtB4_10SqliteRepo9get_ettle0B8_
FN:1206,_RINvMNtNtCsiIWUB9x025h_12ettlex_store4repo11sqlite_repoNtB3_10SqliteRepo15query_decisionspEB7_
FN:1168,_RINvMNtNtCsiIWUB9x025h_12ettlex_store4repo11sqlite_repoNtB3_10SqliteRepo17query_constraintspEB7_
FN:1129,_RINvMNtNtCsiIWUB9x025h_12ettlex_store4repo11sqlite_repoNtB3_10SqliteRepo9query_epspEB7_
FN:1211,_RNCINvMNtNtCsiIWUB9x025h_12ettlex_store4repo11sqlite_repoNtB5_10SqliteRepo15query_decisionspE0B9_
FN:1173,_RNCINvMNtNtCsiIWUB9x025h_12ettlex_store4repo11sqlite_repoNtB5_10SqliteRepo17query_constraintspE0B9_
FN:1134,_RNCINvMNtNtCsiIWUB9x025h_12ettlex_store4repo11sqlite_repoNtB5_10SqliteRepo9query_epspE0B9_
FN:623,_RNCNvMNtNtCsiIWUB9x025h_12ettlex_store4repo11sqlite_repoNtB4_10SqliteRepo12get_decision0B8_
FN:308,_RNCNvMNtNtCsiIWUB9x025h_12ettlex_store4repo11sqlite_repoNtB4_10SqliteRepo14get_constraint0B8_
FN:482,_RNCNvMNtNtCsiIWUB9x025h_12ettlex_store4repo11sqlite_repoNtB4_10SqliteRepo16persist_decision0B8_
FN:238,_RNCNvMNtNtCsiIWUB9x025h_12ettlex_store4repo11sqlite_repoNtB4_10SqliteRepo18persist_constraint0B8_
FN:746,_RNCNvMNtNtCsiIWUB9x025h_12ettlex_store4repo11sqlite_repoNtB4_10SqliteRepo19list_decision_links0B8_
FN:526,_RNCNvMNtNtCsiIWUB9x025h_12ettlex_store4repo11sqlite_repoNtB4_10SqliteRepo19persist_decision_tx0B8_
FN:941,_RNCNvMNtNtCsiIWUB9x025h_12ettlex_store4repo11sqlite_repoNtB4_10SqliteRepo20list_child_eps_of_ep0B8_
FN:885,_RNCNvMNtNtCsiIWUB9x025h_12ettlex_store4repo11sqlite_repoNtB4_10SqliteRepo21list_ettles_paginated0B8_
FN:888,_RNCNvMNtNtCsiIWUB9x025h_12ettlex_store4repo11sqlite_repoNtB4_10SqliteRepo21list_ettles_paginateds_0B8_
FN:960,_RNCNvMNtNtCsiIWUB9x025h_12ettlex_store4repo11sqlite_repoNtB4_10SqliteRepo21list_parent_eps_of_ep0B8_
FN:987,_RNCNvMNtNtCsiIWUB9x025h_12ettlex_store4repo11sqlite_repoNtB4_10SqliteRepo21list_parent_eps_of_eps_0B8_
FN:270,_RNCNvMNtNtCsiIWUB9x025h_12ettlex_store4repo11sqlite_repoNtB4_10SqliteRepo21persist_constraint_tx0B8_
FN:592,_RNCNvMNtNtCsiIWUB9x025h_12ettlex_store4repo11sqlite_repoNtB4_10SqliteRepo21persist_decision_link0B8_
FN:429,_RNCNvMNtNtCsiIWUB9x025h_12ettlex_store4repo11sqlite_repoNtB4_10SqliteRepo23list_ep_constraint_refs0B8_
FN:616,_RNvMNtNtCsiIWUB9x025h_12ettlex_store4repo11sqlite_repoNtB2_10SqliteRepo12get_decision
FN:301,_RNvMNtNtCsiIWUB9x025h_12ettlex_store4repo11sqlite_repoNtB2_10SqliteRepo14get_constraint
FN:481,_RNvMNtNtCsiIWUB9x025h_12ettlex_store4repo11sqlite_repoNtB2_10SqliteRepo16persist_decision
FN:916,_RNvMNtNtCsiIWUB9x025h_12ettlex_store4repo11sqlite_repoNtB2_10SqliteRepo18list_eps_for_ettle
FN:237,_RNvMNtNtCsiIWUB9x025h_12ettlex_store4repo11sqlite_repoNtB2_10SqliteRepo18persist_constraint
FN:731,_RNvMNtNtCsiIWUB9x025h_12ettlex_store4repo11sqlite_repoNtB2_10SqliteRepo19list_decision_links
FN:525,_RNvMNtNtCsiIWUB9x025h_12ettlex_store4repo11sqlite_repoNtB2_10SqliteRepo19persist_decision_tx
FN:935,_RNvMNtNtCsiIWUB9x025h_12ettlex_store4repo11sqlite_repoNtB2_10SqliteRepo20list_child_eps_of_ep
FN:844,_RNvMNtNtCsiIWUB9x025h_12ettlex_store4repo11sqlite_repoNtB2_10SqliteRepo21list_ettles_paginated
FN:957,_RNvMNtNtCsiIWUB9x025h_12ettlex_store4repo11sqlite_repoNtB2_10SqliteRepo21list_parent_eps_of_ep
FN:269,_RNvMNtNtCsiIWUB9x025h_12ettlex_store4repo11sqlite_repoNtB2_10SqliteRepo21persist_constraint_tx
FN:591,_RNvMNtNtCsiIWUB9x025h_12ettlex_store4repo11sqlite_repoNtB2_10SqliteRepo21persist_decision_link
FN:569,_RNvMNtNtCsiIWUB9x025h_12ettlex_store4repo11sqlite_repoNtB2_10SqliteRepo21persist_evidence_item
FN:418,_RNvMNtNtCsiIWUB9x025h_12ettlex_store4repo11sqlite_repoNtB2_10SqliteRepo23list_ep_constraint_refs
FN:1050,_RNvMNtNtCsiIWUB9x025h_12ettlex_store4repo11sqlite_repoNtB2_10SqliteRepo24list_decisions_by_target
FN:1088,_RNvMNtNtCsiIWUB9x025h_12ettlex_store4repo11sqlite_repoNtB2_10SqliteRepo24list_decisions_paginated
FN:396,_RNvMNtNtCsiIWUB9x025h_12ettlex_store4repo11sqlite_repoNtB2_10SqliteRepo25persist_ep_constraint_ref
FN:1005,_RNvMNtNtCsiIWUB9x025h_12ettlex_store4repo11sqlite_repoNtB2_10SqliteRepo26list_constraints_by_family
FN:1031,_RNvMNtNtCsiIWUB9x025h_12ettlex_store4repo11sqlite_repoNtB2_10SqliteRepo31list_constraints_for_ep_ordered
FNDA:14,_RNvMNtNtCs3PiHhja6dWM_12ettlex_store4repo11sqlite_repoNtB2_10SqliteRepo10persist_ep
FNDA:1,_RNvMNtNtCs3PiHhja6dWM_12ettlex_store4repo11sqlite_repoNtB2_10SqliteRepo12get_decision
FNDA:17,_RNvMNtNtCs3PiHhja6dWM_12ettlex_store4repo11sqlite_repoNtB2_10SqliteRepo13persist_ep_tx
FNDA:15,_RNvMNtNtCs3PiHhja6dWM_12ettlex_store4repo11sqlite_repoNtB2_10SqliteRepo13persist_ettle
FNDA:14,_RNvMNtNtCs3PiHhja6dWM_12ettlex_store4repo11sqlite_repoNtB2_10SqliteRepo14get_constraint
FNDA:150,_RNvMNtNtCs3PiHhja6dWM_12ettlex_store4repo11sqlite_repoNtB2_10SqliteRepo14list_decisions
FNDA:152,_RNvMNtNtCs3PiHhja6dWM_12ettlex_store4repo11sqlite_repoNtB2_10SqliteRepo16list_constraints
FNDA:18,_RNvMNtNtCs3PiHhja6dWM_12ettlex_store4repo11sqlite_repoNtB2_10SqliteRepo16persist_decision
FNDA:25,_RNvMNtNtCs3PiHhja6dWM_12ettlex_store4repo11sqlite_repoNtB2_10SqliteRepo16persist_ettle_tx
FNDA:9,_RNvMNtNtCs3PiHhja6dWM_12ettlex_store4repo11sqlite_repoNtB2_10SqliteRepo18list_eps_for_ettle
FNDA:30,_RNvMNtNtCs3PiHhja6dWM_12ettlex_store4repo11sqlite_repoNtB2_10SqliteRepo18persist_constraint
FNDA:0,_RNvMNtNtCs3PiHhja6dWM_12ettlex_store4repo11sqlite_repoNtB2_10SqliteRepo19list_decision_links
FNDA:0,_RNvMNtNtCs3PiHhja6dWM_12ettlex_store4repo11sqlite_repoNtB2_10SqliteRepo19persist_decision_tx
FNDA:1,_RNvMNtNtCs3PiHhja6dWM_12ettlex_store4repo11sqlite_repoNtB2_10SqliteRepo20list_child_eps_of_ep
FNDA:11,_RNvMNtNtCs3PiHhja6dWM_12ettlex_store4repo11sqlite_repoNtB2_10SqliteRepo21list_ettles_paginated
FNDA:2,_RNvMNtNtCs3PiHhja6dWM_12ettlex_store4repo11sqlite_repoNtB2_10SqliteRepo21list_parent_eps_of_ep
FNDA:0,_RNvMNtNtCs3PiHhja6dWM_12ettlex_store4repo11sqlite_repoNtB2_10SqliteRepo21persist_constraint_tx
FNDA:5,_RNvMNtNtCs3PiHhja6dWM_12ettlex_store4repo11sqlite_repoNtB2_10SqliteRepo21persist_decision_link
FNDA:1,_RNvMNtNtCs3PiHhja6dWM_12ettlex_store4repo11sqlite_repoNtB2_10SqliteRepo21persist_evidence_item
FNDA:150,_RNvMNtNtCs3PiHhja6dWM_12ettlex_store4repo11sqlite_repoNtB2_10SqliteRepo23list_all_decision_links
FNDA:150,_RNvMNtNtCs3PiHhja6dWM_12ettlex_store4repo11sqlite_repoNtB2_10SqliteRepo23list_all_evidence_items
FNDA:5,_RNvMNtNtCs3PiHhja6dWM_12ettlex_store4repo11sqlite_repoNtB2_10SqliteRepo23list_ep_constraint_refs
FNDA:7,_RNvMNtNtCs3PiHhja6dWM_12ettlex_store4repo11sqlite_repoNtB2_10SqliteRepo24list_decisions_by_target
FNDA:3,_RNvMNtNtCs3PiHhja6dWM_12ettlex_store4repo11sqlite_repoNtB2_10SqliteRepo24list_decisions_paginated
FNDA:19,_RNvMNtNtCs3PiHhja6dWM_12ettlex_store4repo11sqlite_repoNtB2_10SqliteRepo25persist_ep_constraint_ref
FNDA:2,_RNvMNtNtCs3PiHhja6dWM_12ettlex_store4repo11sqlite_repoNtB2_10SqliteRepo26list_constraints_by_family
FNDA:150,_RNvMNtNtCs3PiHhja6dWM_12ettlex_store4repo11sqlite_repoNtB2_10SqliteRepo27list_all_ep_constraint_refs
FNDA:1,_RNvMNtNtCs3PiHhja6dWM_12ettlex_store4repo11sqlite_repoNtB2_10SqliteRepo31list_constraints_for_ep_ordered
FNDA:13,_RNvMNtNtCs3PiHhja6dWM_12ettlex_store4repo11sqlite_repoNtB2_10SqliteRepo6get_ep
FNDA:20,_RNvMNtNtCs3PiHhja6dWM_12ettlex_store4repo11sqlite_repoNtB2_10SqliteRepo9get_ettle
FNDA:3,_RINvMNtNtCs3PiHhja6dWM_12ettlex_store4repo11sqlite_repoNtB3_10SqliteRepo15query_decisionsARDNtNtNtCs4RJl5VwurMo_8rusqlite5types6to_sql5ToSqlNtNtCsezyhsC6CBT9_4core6marker4SyncNtB2g_4SendEL_j0_EB7_
FNDA:7,_RINvMNtNtCs3PiHhja6dWM_12ettlex_store4repo11sqlite_repoNtB3_10SqliteRepo15query_decisionsRSRDNtNtNtCs4RJl5VwurMo_8rusqlite5types6to_sql5ToSqlEL_EB7_
FNDA:3,_RINvMNtNtCs3PiHhja6dWM_12ettlex_store4repo11sqlite_repoNtB3_10SqliteRepo17query_constraintsARej1_EB7_
FNDA:11,_RINvMNtNtCs3PiHhja6dWM_12ettlex_store4repo11sqlite_repoNtB3_10SqliteRepo9query_epsARej1_EB7_
FNDA:5,_RNCINvMNtNtCs3PiHhja6dWM_12ettlex_store4repo11sqlite_repoNtB5_10SqliteRepo15query_decisionsARDNtNtNtCs4RJl5VwurMo_8rusqlite5types6to_sql5ToSqlNtNtCsezyhsC6CBT9_4core6marker4SyncNtB2i_4SendEL_j0_E0B9_
FNDA:5,_RNCINvMNtNtCs3PiHhja6dWM_12ettlex_store4repo11sqlite_repoNtB5_10SqliteRepo15query_decisionsRSRDNtNtNtCs4RJl5VwurMo_8rusqlite5types6to_sql5ToSqlEL_E0B9_
FNDA:5,_RNCINvMNtNtCs3PiHhja6dWM_12ettlex_store4repo11sqlite_repoNtB5_10SqliteRepo17query_constraintsARej1_E0B9_
FNDA:23,_RNCINvMNtNtCs3PiHhja6dWM_12ettlex_store4repo11sqlite_repoNtB5_10SqliteRepo9query_epsARej1_E0B9_
FNDA:1,_RNCNvMNtNtCs3PiHhja6dWM_12ettlex_store4repo11sqlite_repoNtB4_10SqliteRepo12get_decision0B8_
FNDA:0,_RNCNvMNtNtCs3PiHhja6dWM_12ettlex_store4repo11sqlite_repoNtB4_10SqliteRepo13persist_ettle0B8_
FNDA:12,_RNCNvMNtNtCs3PiHhja6dWM_12ettlex_store4repo11sqlite_repoNtB4_10SqliteRepo14get_constraint0B8_
FNDA:15,_RNCNvMNtNtCs3PiHhja6dWM_12ettlex_store4repo11sqlite_repoNtB4_10SqliteRepo14list_decisions0B8_
FNDA:36,_RNCNvMNtNtCs3PiHhja6dWM_12ettlex_store4repo11sqlite_repoNtB4_10SqliteRepo16list_constraints0B8_
FNDA:1,_RNCNvMNtNtCs3PiHhja6dWM_12ettlex_store4repo11sqlite_repoNtB4_10SqliteRepo16persist_decision0B8_
FNDA:0,_RNCNvMNtNtCs3PiHhja6dWM_12ettlex_store4repo11sqlite_repoNtB4_10SqliteRepo16persist_ettle_tx0B8_
FNDA:3,_RNCNvMNtNtCs3PiHhja6dWM_12ettlex_store4repo11sqlite_repoNtB4_10SqliteRepo18persist_constraint0B8_
FNDA:0,_RNCNvMNtNtCs3PiHhja6dWM_12ettlex_store4repo11sqlite_repoNtB4_10SqliteRepo19list_decision_links0B8_
FNDA:0,_RNCNvMNtNtCs3PiHhja6dWM_12ettlex_store4repo11sqlite_repoNtB4_10SqliteRepo19persist_decision_tx0B8_
FNDA:1,_RNCNvMNtNtCs3PiHhja6dWM_12ettlex_store4repo11sqlite_repoNtB4_10SqliteRepo20list_child_eps_of_ep0B8_
FNDA:3,_RNCNvMNtNtCs3PiHhja6dWM_12ettlex_store4repo11sqlite_repoNtB4_10SqliteRepo21list_ettles_paginated0B8_
FNDA:515,_RNCNvMNtNtCs3PiHhja6dWM_12ettlex_store4repo11sqlite_repoNtB4_10SqliteRepo21list_ettles_paginateds_0B8_
FNDA:2,_RNCNvMNtNtCs3PiHhja6dWM_12ettlex_store4repo11sqlite_repoNtB4_10SqliteRepo21list_parent_eps_of_ep0B8_
FNDA:3,_RNCNvMNtNtCs3PiHhja6dWM_12ettlex_store4repo11sqlite_repoNtB4_10SqliteRepo21list_parent_eps_of_eps_0B8_
FNDA:0,_RNCNvMNtNtCs3PiHhja6dWM_12ettlex_store4repo11sqlite_repoNtB4_10SqliteRepo21persist_constraint_tx0B8_
FNDA:0,_RNCNvMNtNtCs3PiHhja6dWM_12ettlex_store4repo11sqlite_repoNtB4_10SqliteRepo21persist_decision_link0B8_
FNDA:4,_RNCNvMNtNtCs3PiHhja6dWM_12ettlex_store4repo11sqlite_repoNtB4_10SqliteRepo23list_all_decision_links0B8_
FNDA:0,_RNCNvMNtNtCs3PiHhja6dWM_12ettlex_store4repo11sqlite_repoNtB4_10SqliteRepo23list_all_evidence_items0B8_
FNDA:6,_RNCNvMNtNtCs3PiHhja6dWM_12ettlex_store4repo11sqlite_repoNtB4_10SqliteRepo23list_ep_constraint_refs0B8_
FNDA:29,_RNCNvMNtNtCs3PiHhja6dWM_12ettlex_store4repo11sqlite_repoNtB4_10SqliteRepo27list_all_ep_constraint_refs0B8_
FNDA:12,_RNCNvMNtNtCs3PiHhja6dWM_12ettlex_store4repo11sqlite_repoNtB4_10SqliteRepo6get_ep0B8_
FNDA:9,_RNCNvMNtNtCs3PiHhja6dWM_12ettlex_store4repo11sqlite_repoNtB4_10SqliteRepo9get_ettle0B8_
FNDA:1,_RNvMNtNtCsiIWUB9x025h_12ettlex_store4repo11sqlite_repoNtB2_10SqliteRepo10persist_ep
FNDA:27,_RNvMNtNtCsiIWUB9x025h_12ettlex_store4repo11sqlite_repoNtB2_10SqliteRepo13persist_ep_tx
FNDA:5,_RNvMNtNtCsiIWUB9x025h_12ettlex_store4repo11sqlite_repoNtB2_10SqliteRepo13persist_ettle
FNDA:1,_RNvMNtNtCsiIWUB9x025h_12ettlex_store4repo11sqlite_repoNtB2_10SqliteRepo14list_decisions
FNDA:1,_RNvMNtNtCsiIWUB9x025h_12ettlex_store4repo11sqlite_repoNtB2_10SqliteRepo16list_constraints
FNDA:35,_RNvMNtNtCsiIWUB9x025h_12ettlex_store4repo11sqlite_repoNtB2_10SqliteRepo16persist_ettle_tx
FNDA:1,_RNvMNtNtCsiIWUB9x025h_12ettlex_store4repo11sqlite_repoNtB2_10SqliteRepo23list_all_decision_links
FNDA:1,_RNvMNtNtCsiIWUB9x025h_12ettlex_store4repo11sqlite_repoNtB2_10SqliteRepo23list_all_evidence_items
FNDA:1,_RNvMNtNtCsiIWUB9x025h_12ettlex_store4repo11sqlite_repoNtB2_10SqliteRepo27list_all_ep_constraint_refs
FNDA:10,_RNvMNtNtCsiIWUB9x025h_12ettlex_store4repo11sqlite_repoNtB2_10SqliteRepo6get_ep
FNDA:21,_RNvMNtNtCsiIWUB9x025h_12ettlex_store4repo11sqlite_repoNtB2_10SqliteRepo9get_ettle
FNDA:3,_RNvNtNtNtCsiIWUB9x025h_12ettlex_store4repo11sqlite_repo5tests13setup_test_db
FNDA:1,_RNvNtNtNtCsiIWUB9x025h_12ettlex_store4repo11sqlite_repo5testss_23test_persist_and_get_ep
FNDA:1,_RNvNtNtNtCsiIWUB9x025h_12ettlex_store4repo11sqlite_repo5testss_26test_persist_and_get_ettle
FNDA:1,_RNvNtNtNtCsiIWUB9x025h_12ettlex_store4repo11sqlite_repo5testss_29test_persist_ettle_idempotent
FNDA:0,_RNCNvMNtNtCsiIWUB9x025h_12ettlex_store4repo11sqlite_repoNtB4_10SqliteRepo13persist_ettle0B8_
FNDA:0,_RNCNvMNtNtCsiIWUB9x025h_12ettlex_store4repo11sqlite_repoNtB4_10SqliteRepo14list_decisions0B8_
FNDA:0,_RNCNvMNtNtCsiIWUB9x025h_12ettlex_store4repo11sqlite_repoNtB4_10SqliteRepo16list_constraints0B8_
FNDA:0,_RNCNvMNtNtCsiIWUB9x025h_12ettlex_store4repo11sqlite_repoNtB4_10SqliteRepo16persist_ettle_tx0B8_
FNDA:0,_RNCNvMNtNtCsiIWUB9x025h_12ettlex_store4repo11sqlite_repoNtB4_10SqliteRepo23list_all_decision_links0B8_
FNDA:0,_RNCNvMNtNtCsiIWUB9x025h_12ettlex_store4repo11sqlite_repoNtB4_10SqliteRepo23list_all_evidence_items0B8_
FNDA:0,_RNCNvMNtNtCsiIWUB9x025h_12ettlex_store4repo11sqlite_repoNtB4_10SqliteRepo27list_all_ep_constraint_refs0B8_
FNDA:10,_RNCNvMNtNtCsiIWUB9x025h_12ettlex_store4repo11sqlite_repoNtB4_10SqliteRepo6get_ep0B8_
FNDA:8,_RNCNvMNtNtCsiIWUB9x025h_12ettlex_store4repo11sqlite_repoNtB4_10SqliteRepo9get_ettle0B8_
FNDA:0,_RINvMNtNtCsiIWUB9x025h_12ettlex_store4repo11sqlite_repoNtB3_10SqliteRepo15query_decisionspEB7_
FNDA:0,_RINvMNtNtCsiIWUB9x025h_12ettlex_store4repo11sqlite_repoNtB3_10SqliteRepo17query_constraintspEB7_
FNDA:0,_RINvMNtNtCsiIWUB9x025h_12ettlex_store4repo11sqlite_repoNtB3_10SqliteRepo9query_epspEB7_
FNDA:0,_RNCINvMNtNtCsiIWUB9x025h_12ettlex_store4repo11sqlite_repoNtB5_10SqliteRepo15query_decisionspE0B9_
FNDA:0,_RNCINvMNtNtCsiIWUB9x025h_12ettlex_store4repo11sqlite_repoNtB5_10SqliteRepo17query_constraintspE0B9_
FNDA:0,_RNCINvMNtNtCsiIWUB9x025h_12ettlex_store4repo11sqlite_repoNtB5_10SqliteRepo9query_epspE0B9_
FNDA:0,_RNCNvMNtNtCsiIWUB9x025h_12ettlex_store4repo11sqlite_repoNtB4_10SqliteRepo12get_decision0B8_
FNDA:0,_RNCNvMNtNtCsiIWUB9x025h_12ettlex_store4repo11sqlite_repoNtB4_10SqliteRepo14get_constraint0B8_
FNDA:0,_RNCNvMNtNtCsiIWUB9x025h_12ettlex_store4repo11sqlite_repoNtB4_10SqliteRepo16persist_decision0B8_
FNDA:0,_RNCNvMNtNtCsiIWUB9x025h_12ettlex_store4repo11sqlite_repoNtB4_10SqliteRepo18persist_constraint0B8_
FNDA:0,_RNCNvMNtNtCsiIWUB9x025h_12ettlex_store4repo11sqlite_repoNtB4_10SqliteRepo19list_decision_links0B8_
FNDA:0,_RNCNvMNtNtCsiIWUB9x025h_12ettlex_store4repo11sqlite_repoNtB4_10SqliteRepo19persist_decision_tx0B8_
FNDA:0,_RNCNvMNtNtCsiIWUB9x025h_12ettlex_store4repo11sqlite_repoNtB4_10SqliteRepo20list_child_eps_of_ep0B8_
FNDA:0,_RNCNvMNtNtCsiIWUB9x025h_12ettlex_store4repo11sqlite_repoNtB4_10SqliteRepo21list_ettles_paginated0B8_
FNDA:0,_RNCNvMNtNtCsiIWUB9x025h_12ettlex_store4repo11sqlite_repoNtB4_10SqliteRepo21list_ettles_paginateds_0B8_
FNDA:0,_RNCNvMNtNtCsiIWUB9x025h_12ettlex_store4repo11sqlite_repoNtB4_10SqliteRepo21list_parent_eps_of_ep0B8_
FNDA:0,_RNCNvMNtNtCsiIWUB9x025h_12ettlex_store4repo11sqlite_repoNtB4_10SqliteRepo21list_parent_eps_of_eps_0B8_
FNDA:0,_RNCNvMNtNtCsiIWUB9x025h_12ettlex_store4repo11sqlite_repoNtB4_10SqliteRepo21persist_constraint_tx0B8_
FNDA:0,_RNCNvMNtNtCsiIWUB9x025h_12ettlex_store4repo11sqlite_repoNtB4_10SqliteRepo21persist_decision_link0B8_
FNDA:0,_RNCNvMNtNtCsiIWUB9x025h_12ettlex_store4repo11sqlite_repoNtB4_10SqliteRepo23list_ep_constraint_refs0B8_
FNDA:0,_RNvMNtNtCsiIWUB9x025h_12ettlex_store4repo11sqlite_repoNtB2_10SqliteRepo12get_decision
FNDA:0,_RNvMNtNtCsiIWUB9x025h_12ettlex_store4repo11sqlite_repoNtB2_10SqliteRepo14get_constraint
FNDA:0,_RNvMNtNtCsiIWUB9x025h_12ettlex_store4repo11sqlite_repoNtB2_10SqliteRepo16persist_decision
FNDA:0,_RNvMNtNtCsiIWUB9x025h_12ettlex_store4repo11sqlite_repoNtB2_10SqliteRepo18list_eps_for_ettle
FNDA:0,_RNvMNtNtCsiIWUB9x025h_12ettlex_store4repo11sqlite_repoNtB2_10SqliteRepo18persist_constraint
FNDA:0,_RNvMNtNtCsiIWUB9x025h_12ettlex_store4repo11sqlite_repoNtB2_10SqliteRepo19list_decision_links
FNDA:0,_RNvMNtNtCsiIWUB9x025h_12ettlex_store4repo11sqlite_repoNtB2_10SqliteRepo19persist_decision_tx
FNDA:0,_RNvMNtNtCsiIWUB9x025h_12ettlex_store4repo11sqlite_repoNtB2_10SqliteRepo20list_child_eps_of_ep
FNDA:0,_RNvMNtNtCsiIWUB9x025h_12ettlex_store4repo11sqlite_repoNtB2_10SqliteRepo21list_ettles_paginated
FNDA:0,_RNvMNtNtCsiIWUB9x025h_12ettlex_store4repo11sqlite_repoNtB2_10SqliteRepo21list_parent_eps_of_ep
FNDA:0,_RNvMNtNtCsiIWUB9x025h_12ettlex_store4repo11sqlite_repoNtB2_10SqliteRepo21persist_constraint_tx
FNDA:0,_RNvMNtNtCsiIWUB9x025h_12ettlex_store4repo11sqlite_repoNtB2_10SqliteRepo21persist_decision_link
FNDA:0,_RNvMNtNtCsiIWUB9x025h_12ettlex_store4repo11sqlite_repoNtB2_10SqliteRepo21persist_evidence_item
FNDA:0,_RNvMNtNtCsiIWUB9x025h_12ettlex_store4repo11sqlite_repoNtB2_10SqliteRepo23list_ep_constraint_refs
FNDA:0,_RNvMNtNtCsiIWUB9x025h_12ettlex_store4repo11sqlite_repoNtB2_10SqliteRepo24list_decisions_by_target
FNDA:0,_RNvMNtNtCsiIWUB9x025h_12ettlex_store4repo11sqlite_repoNtB2_10SqliteRepo24list_decisions_paginated
FNDA:0,_RNvMNtNtCsiIWUB9x025h_12ettlex_store4repo11sqlite_repoNtB2_10SqliteRepo25persist_ep_constraint_ref
FNDA:0,_RNvMNtNtCsiIWUB9x025h_12ettlex_store4repo11sqlite_repoNtB2_10SqliteRepo26list_constraints_by_family
FNDA:0,_RNvMNtNtCsiIWUB9x025h_12ettlex_store4repo11sqlite_repoNtB2_10SqliteRepo31list_constraints_for_ep_ordered
FNF:63
FNH:53
DA:21,20
DA:22,20
DA:23,20
DA:24,20
DA:25,20
DA:26,20
DA:27,20
DA:28,20
DA:29,20
DA:30,20
DA:31,20
DA:32,20
DA:37,20
DA:38,20
DA:39,20
DA:40,20
DA:43,20
DA:45,20
DA:46,20
DA:49,60
DA:50,60
DA:51,60
DA:52,60
DA:53,60
DA:54,60
DA:55,60
DA:56,60
DA:57,60
DA:58,60
DA:59,60
DA:60,60
DA:65,60
DA:66,60
DA:67,60
DA:68,60
DA:71,60
DA:73,60
DA:74,60
DA:79,15
DA:82,15
DA:83,15
DA:84,15
DA:85,15
DA:87,15
DA:89,15
DA:90,15
DA:91,15
DA:92,15
DA:93,15
DA:94,15
DA:95,15
DA:96,15
DA:97,15
DA:98,15
DA:99,15
DA:103,15
DA:105,15
DA:108,15
DA:109,15
DA:110,15
DA:113,15
DA:115,15
DA:116,15
DA:119,44
DA:120,44
DA:121,44
DA:122,44
DA:123,44
DA:125,44
DA:127,44
DA:128,44
DA:129,44
DA:130,44
DA:131,44
DA:132,44
DA:133,44
DA:134,44
DA:135,44
DA:136,44
DA:137,44
DA:141,44
DA:143,44
DA:146,44
DA:147,44
DA:148,44
DA:151,44
DA:153,44
DA:154,44
DA:157,41
DA:158,41
DA:159,41
DA:160,41
DA:162,41
DA:163,41
DA:164,17
DA:165,17
DA:166,17
DA:167,17
DA:168,17
DA:169,17
DA:170,17
DA:171,17
DA:173,17
DA:174,17
DA:175,17
DA:176,17
DA:177,17
DA:178,17
DA:179,17
DA:180,17
DA:181,17
DA:183,17
DA:184,17
DA:185,41
DA:186,41
DA:188,41
DA:189,41
DA:192,23
DA:193,23
DA:194,23
DA:195,23
DA:197,23
DA:198,23
DA:199,22
DA:200,22
DA:201,22
DA:202,22
DA:203,22
DA:204,22
DA:205,22
DA:206,22
DA:207,22
DA:208,22
DA:211,22
DA:212,22
DA:213,22
DA:214,22
DA:215,22
DA:217,22
DA:218,22
DA:219,22
DA:220,22
DA:221,22
DA:222,22
DA:223,22
DA:224,22
DA:226,22
DA:227,22
DA:228,23
DA:229,23
DA:231,23
DA:232,23
DA:237,30
DA:238,30
DA:240,30
DA:241,30
DA:242,30
DA:243,30
DA:244,30
DA:245,30
DA:246,30
DA:247,30
DA:248,30
DA:249,30
DA:250,30
DA:251,30
DA:256,30
DA:258,30
DA:259,30
DA:263,30
DA:265,30
DA:266,30
DA:269,0
DA:270,0
DA:272,0
DA:273,0
DA:274,0
DA:275,0
DA:276,0
DA:277,0
DA:278,0
DA:279,0
DA:280,0
DA:281,0
DA:282,0
DA:283,0
DA:284,0
DA:285,0
DA:286,0
DA:287,0
DA:288,0
DA:289,0
DA:290,0
DA:291,0
DA:292,0
DA:293,0
DA:294,0
DA:295,0
DA:297,0
DA:298,0
DA:301,14
DA:302,14
DA:303,14
DA:304,14
DA:305,14
DA:306,14
DA:307,14
DA:308,12
DA:309,12
DA:310,12
DA:311,12
DA:312,12
DA:313,12
DA:314,12
DA:315,12
DA:316,12
DA:317,12
DA:319,12
DA:320,12
DA:322,12
DA:323,12
DA:324,12
DA:325,12
DA:326,12
DA:327,12
DA:331,12
DA:334,12
DA:335,12
DA:336,12
DA:337,12
DA:338,12
DA:339,12
DA:341,12
DA:342,12
DA:344,14
DA:345,14
DA:347,14
DA:348,14
DA:351,153
DA:352,153
DA:353,153
DA:354,153
DA:355,153
DA:356,153
DA:358,153
DA:360,153
DA:361,153
DA:362,36
DA:363,36
DA:364,36
DA:365,36
DA:366,36
DA:367,36
DA:368,36
DA:369,36
DA:370,36
DA:372,36
DA:373,36
DA:375,36
DA:376,36
DA:378,36
DA:379,36
DA:380,36
DA:381,36
DA:382,36
DA:383,36
DA:384,36
DA:386,36
DA:387,36
DA:388,153
DA:389,153
DA:390,153
DA:392,153
DA:393,153
DA:396,19
DA:397,19
DA:398,19
DA:399,19
DA:400,19
DA:401,19
DA:402,19
DA:403,19
DA:404,19
DA:405,19
DA:409,19
DA:412,19
DA:414,17
DA:415,19
DA:418,5
DA:419,5
DA:420,5
DA:421,5
DA:422,5
DA:423,5
DA:424,5
DA:426,5
DA:428,5
DA:429,6
DA:430,6
DA:431,6
DA:432,6
DA:433,6
DA:435,6
DA:436,6
DA:437,6
DA:439,6
DA:440,6
DA:441,5
DA:442,5
DA:443,5
DA:445,5
DA:446,5
DA:449,151
DA:450,151
DA:451,151
DA:452,151
DA:453,151
DA:454,151
DA:456,151
DA:458,151
DA:459,151
DA:460,29
DA:461,29
DA:462,29
DA:463,29
DA:465,29
DA:466,29
DA:467,29
DA:469,29
DA:470,29
DA:471,151
DA:472,151
DA:473,151
DA:475,151
DA:476,151
DA:481,18
DA:482,18
DA:484,18
DA:485,18
DA:486,18
DA:487,18
DA:488,18
DA:489,18
DA:490,18
DA:491,18
DA:492,18
DA:493,18
DA:494,18
DA:495,18
DA:496,18
DA:497,18
DA:498,18
DA:499,18
DA:500,18
DA:501,18
DA:514,18
DA:515,18
DA:519,18
DA:521,18
DA:522,18
DA:525,0
DA:526,0
DA:528,0
DA:529,0
DA:530,0
DA:531,0
DA:532,0
DA:533,0
DA:534,0
DA:535,0
DA:536,0
DA:537,0
DA:538,0
DA:539,0
DA:540,0
DA:541,0
DA:542,0
DA:543,0
DA:544,0
DA:545,0
DA:546,0
DA:547,0
DA:548,0
DA:549,0
DA:550,0
DA:551,0
DA:552,0
DA:553,0
DA:554,0
DA:555,0
DA:556,0
DA:557,0
DA:558,0
DA:559,0
DA:560,0
DA:561,0
DA:562,0
DA:563,0
DA:565,0
DA:566,0
DA:569,1
DA:570,1
DA:571,1
DA:572,1
DA:573,1
DA:574,1
DA:575,1
DA:576,1
DA:577,1
DA:582,1
DA:585,1
DA:587,1
DA:588,1
DA:591,5
DA:592,5
DA:594,5
DA:595,5
DA:596,5
DA:597,5
DA:598,5
DA:599,5
DA:600,5
DA:606,5
DA:610,5
DA:612,5
DA:613,5
DA:616,1
DA:617,1
DA:618,1
DA:619,1
DA:620,1
DA:621,1
DA:622,1
DA:623,1
DA:624,1
DA:625,1
DA:626,1
DA:627,1
DA:628,1
DA:629,1
DA:630,1
DA:631,1
DA:632,1
DA:633,1
DA:634,1
DA:635,1
DA:636,1
DA:637,1
DA:638,1
DA:640,1
DA:641,1
DA:642,1
DA:643,1
DA:644,1
DA:645,1
DA:646,1
DA:647,1
DA:648,1
DA:649,1
DA:650,1
DA:651,1
DA:654,1
DA:655,1
DA:656,1
DA:657,1
DA:658,1
DA:659,1
DA:660,1
DA:662,1
DA:663,1
DA:665,1
DA:666,1
DA:668,1
DA:669,1
DA:672,151
DA:673,151
DA:674,151
DA:675,151
DA:676,151
DA:677,151
DA:679,151
DA:681,151
DA:682,151
DA:683,15
DA:684,15
DA:685,15
DA:686,15
DA:687,15
DA:688,15
DA:689,15
DA:690,15
DA:691,15
DA:692,15
DA:693,15
DA:694,15
DA:695,15
DA:696,15
DA:697,15
DA:699,15
DA:700,15
DA:701,15
DA:702,15
DA:703,15
DA:704,15
DA:705,15
DA:706,15
DA:707,15
DA:708,15
DA:709,15
DA:710,15
DA:713,15
DA:714,15
DA:715,15
DA:716,15
DA:717,15
DA:718,15
DA:719,15
DA:721,15
DA:722,15
DA:723,151
DA:724,151
DA:725,151
DA:727,151
DA:728,151
DA:731,0
DA:732,0
DA:733,0
DA:734,0
DA:735,0
DA:736,0
DA:737,0
DA:738,0
DA:739,0
DA:740,0
DA:741,0
DA:743,0
DA:745,0
DA:746,0
DA:747,0
DA:748,0
DA:749,0
DA:750,0
DA:751,0
DA:752,0
DA:753,0
DA:755,0
DA:756,0
DA:757,0
DA:758,0
DA:759,0
DA:760,0
DA:762,0
DA:763,0
DA:764,0
DA:765,0
DA:766,0
DA:768,0
DA:769,0
DA:772,151
DA:773,151
DA:774,151
DA:775,151
DA:776,151
DA:777,151
DA:779,151
DA:781,151
DA:782,151
DA:783,4
DA:784,4
DA:785,4
DA:786,4
DA:787,4
DA:788,4
DA:789,4
DA:791,4
DA:792,4
DA:793,4
DA:794,4
DA:795,4
DA:796,4
DA:798,4
DA:799,4
DA:800,151
DA:801,151
DA:802,151
DA:804,151
DA:805,151
DA:808,151
DA:809,151
DA:810,151
DA:811,151
DA:812,151
DA:813,151
DA:815,151
DA:817,151
DA:818,151
DA:819,0
DA:820,0
DA:821,0
DA:822,0
DA:823,0
DA:825,0
DA:826,0
DA:827,0
DA:828,0
DA:830,0
DA:831,0
DA:832,151
DA:833,151
DA:834,151
DA:836,151
DA:837,151
DA:844,11
DA:845,11
DA:846,11
DA:847,11
DA:848,11
DA:849,11
DA:851,11
DA:852,11
DA:854,11
DA:855,2
DA:856,2
DA:857,9
DA:859,11
DA:860,1
DA:861,1
DA:862,1
DA:863,1
DA:864,1
DA:865,1
DA:866,1
DA:867,10
DA:869,11
DA:870,8
DA:872,3
DA:875,11
DA:884,11
DA:885,11
DA:887,11
DA:888,515
DA:889,515
DA:890,515
DA:891,515
DA:892,515
DA:893,515
DA:894,515
DA:895,515
DA:897,515
DA:898,515
DA:899,515
DA:900,515
DA:901,515
DA:902,515
DA:903,515
DA:904,515
DA:906,515
DA:907,515
DA:908,11
DA:909,11
DA:910,11
DA:912,11
DA:913,11
DA:916,9
DA:917,9
DA:918,9
DA:919,9
DA:920,9
DA:921,9
DA:922,9
DA:923,9
DA:925,9
DA:927,9
DA:928,9
DA:935,1
DA:937,1
DA:938,1
DA:939,1
DA:940,1
DA:941,1
DA:943,1
DA:944,1
DA:945,1
DA:947,1
DA:948,0
DA:949,1
DA:951,1
DA:957,2
DA:959,2
DA:960,2
DA:961,2
DA:962,2
DA:963,2
DA:964,2
DA:966,2
DA:967,0
DA:968,2
DA:972,2
DA:973,2
DA:974,2
DA:975,2
DA:976,2
DA:977,2
DA:978,2
DA:980,2
DA:982,2
DA:986,2
DA:987,3
DA:988,2
DA:989,1
DA:990,1
DA:991,1
DA:992,1
DA:993,1
DA:994,1
DA:995,1
DA:996,1
DA:998,1
DA:999,2
DA:1005,2
DA:1006,2
DA:1007,2
DA:1008,2
DA:1009,2
DA:1010,2
DA:1011,1
DA:1012,1
DA:1013,1
DA:1014,1
DA:1015,1
DA:1016,1
DA:1018,1
DA:1019,1
DA:1020,1
DA:1021,1
DA:1022,1
DA:1023,1
DA:1026,2
DA:1027,2
DA:1028,2
DA:1031,1
DA:1032,1
DA:1033,1
DA:1034,1
DA:1035,1
DA:1036,1
DA:1037,1
DA:1038,1
DA:1039,1
DA:1040,1
DA:1041,1
DA:1042,1
DA:1044,1
DA:1046,1
DA:1047,1
DA:1050,7
DA:1051,7
DA:1052,7
DA:1053,7
DA:1054,7
DA:1055,7
DA:1056,7
DA:1057,0
DA:1058,0
DA:1059,0
DA:1060,0
DA:1061,0
DA:1062,0
DA:1063,0
DA:1064,0
DA:1065,0
DA:1066,0
DA:1068,7
DA:1069,7
DA:1070,7
DA:1071,7
DA:1072,7
DA:1073,7
DA:1074,7
DA:1075,7
DA:1076,7
DA:1077,7
DA:1078,7
DA:1081,7
DA:1082,7
DA:1083,7
DA:1088,3
DA:1089,3
DA:1090,3
DA:1091,3
DA:1092,3
DA:1093,3
DA:1094,3
DA:1104,0
DA:1117,3
DA:1119,3
DA:1120,3
DA:1121,0
DA:1123,3
DA:1129,11
DA:1130,11
DA:1131,11
DA:1132,11
DA:1133,11
DA:1134,23
DA:1135,23
DA:1136,23
DA:1137,23
DA:1138,23
DA:1139,23
DA:1140,23
DA:1141,23
DA:1142,23
DA:1143,23
DA:1145,23
DA:1146,23
DA:1147,23
DA:1148,23
DA:1149,23
DA:1151,23
DA:1152,23
DA:1153,23
DA:1154,23
DA:1155,23
DA:1156,23
DA:1157,23
DA:1159,23
DA:1160,23
DA:1161,11
DA:1162,11
DA:1163,11
DA:1165,11
DA:1166,11
DA:1168,3
DA:1169,3
DA:1170,3
DA:1171,3
DA:1172,3
DA:1173,5
DA:1174,5
DA:1175,5
DA:1176,5
DA:1177,5
DA:1178,5
DA:1179,5
DA:1180,5
DA:1181,5
DA:1182,5
DA:1184,5
DA:1185,5
DA:1187,5
DA:1188,5
DA:1189,5
DA:1190,5
DA:1191,5
DA:1192,5
DA:1193,5
DA:1194,5
DA:1195,5
DA:1197,5
DA:1198,5
DA:1199,3
DA:1200,3
DA:1201,3
DA:1203,3
DA:1204,3
DA:1206,10
DA:1207,10
DA:1208,10
DA:1209,10
DA:1210,10
DA:1211,10
DA:1212,10
DA:1213,10
DA:1214,10
DA:1215,10
DA:1216,10
DA:1217,10
DA:1218,10
DA:1219,10
DA:1220,10
DA:1221,10
DA:1222,10
DA:1223,10
DA:1224,10
DA:1225,10
DA:1226,10
DA:1228,10
DA:1229,10
DA:1230,10
DA:1231,10
DA:1232,10
DA:1233,10
DA:1234,10
DA:1235,10
DA:1236,10
DA:1237,10
DA:1238,10
DA:1239,10
DA:1241,10
DA:1242,10
DA:1243,10
DA:1244,10
DA:1245,10
DA:1246,10
DA:1247,10
DA:1249,10
DA:1250,10
DA:1251,10
DA:1252,10
DA:1253,10
DA:1255,10
DA:1256,10
DA:1264,3
DA:1265,3
DA:1266,3
DA:1267,3
DA:1268,3
DA:1271,1
DA:1272,1
DA:1273,1
DA:1275,1
DA:1277,1
DA:1278,1
DA:1279,1
DA:1281,1
DA:1282,1
DA:1283,1
DA:1284,1
DA:1287,1
DA:1288,1
DA:1291,1
DA:1292,1
DA:1294,1
DA:1295,1
DA:1296,1
DA:1299,1
DA:1300,1
DA:1301,1
DA:1304,1
DA:1306,1
DA:1307,1
DA:1308,1
DA:1310,1
DA:1311,1
DA:1312,1
DA:1313,1
DA:1314,1
DA:1315,1
DA:1316,1
DA:1317,1
DA:1320,1
DA:1321,1
DA:1322,1
DA:1324,1
DA:1327,1
DA:1328,1
DA:1330,1
DA:1331,1
DA:1332,1
DA:1334,1
DA:1335,1
BRF:0
BRH:0
LF:985
LH:851
end_of_record
SF:/Users/nick/Development/EttleX/EttleX-Project/Rust/crates/ettlex-store/src/seed/digest.rs
FN:99,_RNCNvNtNtCs3PiHhja6dWM_12ettlex_store4seed6digest16canonicalize_eps0B7_
FN:67,_RNCNvNtNtCs3PiHhja6dWM_12ettlex_store4seed6digest17canonicalize_seed0B7_
FN:79,_RNCNvNtNtCs3PiHhja6dWM_12ettlex_store4seed6digest17canonicalize_seeds0_0B7_
FN:72,_RNCNvNtNtCs3PiHhja6dWM_12ettlex_store4seed6digest17canonicalize_seeds_0B7_
FN:95,_RNvNtNtCs3PiHhja6dWM_12ettlex_store4seed6digest16canonicalize_eps
FN:61,_RNvNtNtCs3PiHhja6dWM_12ettlex_store4seed6digest17canonicalize_seed
FN:45,_RNvNtNtCs3PiHhja6dWM_12ettlex_store4seed6digest19compute_seed_digest
FN:95,_RNvNtNtCsiIWUB9x025h_12ettlex_store4seed6digest16canonicalize_eps
FN:61,_RNvNtNtCsiIWUB9x025h_12ettlex_store4seed6digest17canonicalize_seed
FN:45,_RNvNtNtCsiIWUB9x025h_12ettlex_store4seed6digest19compute_seed_digest
FN:99,_RNCNvNtNtCsiIWUB9x025h_12ettlex_store4seed6digest16canonicalize_eps0B7_
FN:67,_RNCNvNtNtCsiIWUB9x025h_12ettlex_store4seed6digest17canonicalize_seed0B7_
FN:79,_RNCNvNtNtCsiIWUB9x025h_12ettlex_store4seed6digest17canonicalize_seeds0_0B7_
FN:72,_RNCNvNtNtCsiIWUB9x025h_12ettlex_store4seed6digest17canonicalize_seeds_0B7_
FN:118,_RNvNtNtNtCsiIWUB9x025h_12ettlex_store4seed6digest5testss_23test_seed_digest_stable
FN:193,_RNvNtNtNtCsiIWUB9x025h_12ettlex_store4seed6digest5testss_34test_seed_digest_what_polymorphism
FN:147,_RNvNtNtNtCsiIWUB9x025h_12ettlex_store4seed6digest5testss_35test_seed_digest_format_independent
FN:243,_RNvNtNtNtCsiIWUB9x025h_12ettlex_store4seed6digest5testss_36test_seed_digest_stable_with_sorting
FNDA:14,_RNCNvNtNtCs3PiHhja6dWM_12ettlex_store4seed6digest16canonicalize_eps0B7_
FNDA:11,_RNCNvNtNtCs3PiHhja6dWM_12ettlex_store4seed6digest17canonicalize_seed0B7_
FNDA:3,_RNCNvNtNtCs3PiHhja6dWM_12ettlex_store4seed6digest17canonicalize_seeds0_0B7_
FNDA:3,_RNCNvNtNtCs3PiHhja6dWM_12ettlex_store4seed6digest17canonicalize_seeds_0B7_
FNDA:11,_RNvNtNtCs3PiHhja6dWM_12ettlex_store4seed6digest16canonicalize_eps
FNDA:8,_RNvNtNtCs3PiHhja6dWM_12ettlex_store4seed6digest17canonicalize_seed
FNDA:8,_RNvNtNtCs3PiHhja6dWM_12ettlex_store4seed6digest19compute_seed_digest
FNDA:26,_RNvNtNtCsiIWUB9x025h_12ettlex_store4seed6digest16canonicalize_eps
FNDA:21,_RNvNtNtCsiIWUB9x025h_12ettlex_store4seed6digest17canonicalize_seed
FNDA:21,_RNvNtNtCsiIWUB9x025h_12ettlex_store4seed6digest19compute_seed_digest
FNDA:35,_RNCNvNtNtCsiIWUB9x025h_12ettlex_store4seed6digest16canonicalize_eps0B7_
FNDA:26,_RNCNvNtNtCsiIWUB9x025h_12ettlex_store4seed6digest17canonicalize_seed0B7_
FNDA:6,_RNCNvNtNtCsiIWUB9x025h_12ettlex_store4seed6digest17canonicalize_seeds0_0B7_
FNDA:5,_RNCNvNtNtCsiIWUB9x025h_12ettlex_store4seed6digest17canonicalize_seeds_0B7_
FNDA:1,_RNvNtNtNtCsiIWUB9x025h_12ettlex_store4seed6digest5testss_23test_seed_digest_stable
FNDA:1,_RNvNtNtNtCsiIWUB9x025h_12ettlex_store4seed6digest5testss_34test_seed_digest_what_polymorphism
FNDA:1,_RNvNtNtNtCsiIWUB9x025h_12ettlex_store4seed6digest5testss_35test_seed_digest_format_independent
FNDA:1,_RNvNtNtNtCsiIWUB9x025h_12ettlex_store4seed6digest5testss_36test_seed_digest_stable_with_sorting
FNF:11
FNH:11
DA:45,29
DA:47,29
DA:50,29
DA:53,29
DA:54,29
DA:55,29
DA:57,29
DA:58,29
DA:61,29
DA:63,29
DA:64,29
DA:65,29
DA:66,29
DA:67,37
DA:68,37
DA:69,37
DA:70,37
DA:71,29
DA:72,29
DA:75,29
DA:76,29
DA:77,29
DA:78,29
DA:79,9
DA:80,9
DA:81,9
DA:82,9
DA:83,29
DA:84,29
DA:86,29
DA:87,29
DA:88,29
DA:89,29
DA:90,29
DA:91,29
DA:92,29
DA:95,37
DA:96,37
DA:97,37
DA:98,37
DA:99,49
DA:100,49
DA:101,49
DA:102,49
DA:103,49
DA:104,49
DA:105,49
DA:106,37
DA:108,37
DA:109,37
DA:110,37
DA:118,1
DA:119,1
DA:120,1
DA:121,1
DA:122,1
DA:123,1
DA:124,1
DA:125,1
DA:126,1
DA:127,1
DA:128,1
DA:129,1
DA:130,1
DA:131,1
DA:132,1
DA:133,1
DA:134,1
DA:136,1
DA:137,1
DA:139,1
DA:140,1
DA:142,1
DA:143,1
DA:144,1
DA:147,1
DA:149,1
DA:150,1
DA:151,1
DA:152,1
DA:153,1
DA:154,1
DA:155,1
DA:156,1
DA:157,1
DA:158,1
DA:159,1
DA:160,1
DA:161,1
DA:162,1
DA:163,1
DA:164,1
DA:166,1
DA:167,1
DA:168,1
DA:169,1
DA:170,1
DA:171,1
DA:172,1
DA:173,1
DA:174,1
DA:175,1
DA:176,1
DA:177,1
DA:178,1
DA:179,1
DA:180,1
DA:181,1
DA:183,1
DA:184,1
DA:186,1
DA:187,1
DA:189,1
DA:190,1
DA:193,1
DA:195,1
DA:196,1
DA:197,1
DA:198,1
DA:199,1
DA:200,1
DA:201,1
DA:202,1
DA:203,1
DA:204,1
DA:205,1
DA:206,1
DA:207,1
DA:208,1
DA:209,1
DA:210,1
DA:212,1
DA:213,1
DA:214,1
DA:215,1
DA:216,1
DA:217,1
DA:218,1
DA:219,1
DA:220,1
DA:221,1
DA:222,1
DA:223,1
DA:224,1
DA:225,1
DA:226,1
DA:227,1
DA:228,1
DA:230,1
DA:231,1
DA:233,1
DA:234,1
DA:236,1
DA:240,1
DA:243,1
DA:245,1
DA:246,1
DA:247,1
DA:248,1
DA:249,1
DA:250,1
DA:251,1
DA:252,1
DA:253,1
DA:254,1
DA:255,1
DA:256,1
DA:257,1
DA:258,1
DA:259,1
DA:260,1
DA:261,1
DA:262,1
DA:263,1
DA:264,1
DA:265,1
DA:266,1
DA:267,1
DA:268,1
DA:269,1
DA:271,1
DA:272,1
DA:273,1
DA:274,1
DA:275,1
DA:276,1
DA:277,1
DA:278,1
DA:279,1
DA:280,1
DA:281,1
DA:282,1
DA:283,1
DA:284,1
DA:285,1
DA:286,1
DA:287,1
DA:288,1
DA:289,1
DA:290,1
DA:291,1
DA:292,1
DA:293,1
DA:294,1
DA:295,1
DA:297,1
DA:298,1
DA:300,1
DA:301,1
DA:303,1
DA:307,1
BRF:0
BRH:0
LF:212
LH:212
end_of_record
SF:/Users/nick/Development/EttleX/EttleX-Project/Rust/crates/ettlex-store/src/seed/format_v0.rs
FN:80,_RINvNtNtCs3PiHhja6dWM_12ettlex_store4seed9format_v016deserialize_whatQNtNtCs5GiwRgj49bf_10serde_yaml2de22DeserializerFromEventsEB6_
FN:103,_RINvXNvNtNtCs3PiHhja6dWM_12ettlex_store4seed9format_v016deserialize_whatNtB3_11WhatVisitorNtNtCsj1TtBeWBeu0_10serde_core2de7Visitor9visit_mapQNtNtCs5GiwRgj49bf_10serde_yaml2de9MapAccessEB9_
FN:96,_RINvXNvNtNtCs3PiHhja6dWM_12ettlex_store4seed9format_v016deserialize_whatNtB3_11WhatVisitorNtNtCsj1TtBeWBeu0_10serde_core2de7Visitor9visit_strNtNtCs5GiwRgj49bf_10serde_yaml5error5ErrorEB9_
FN:116,_RNCINvXNvNtNtCs3PiHhja6dWM_12ettlex_store4seed9format_v016deserialize_whatNtB5_11WhatVisitorNtNtCsj1TtBeWBeu0_10serde_core2de7Visitor9visit_mapQNtNtCs5GiwRgj49bf_10serde_yaml2de9MapAccessE0Bb_
FN:92,_RNvXNvNtNtCs3PiHhja6dWM_12ettlex_store4seed9format_v016deserialize_whatNtB2_11WhatVisitorNtNtCsj1TtBeWBeu0_10serde_core2de7Visitor9expecting
FN:80,_RINvNtNtCsiIWUB9x025h_12ettlex_store4seed9format_v016deserialize_whatQNtNtCs5GiwRgj49bf_10serde_yaml2de22DeserializerFromEventsEB6_
FN:103,_RINvXNvNtNtCsiIWUB9x025h_12ettlex_store4seed9format_v016deserialize_whatNtB3_11WhatVisitorNtNtCsj1TtBeWBeu0_10serde_core2de7Visitor9visit_mapQNtNtCs5GiwRgj49bf_10serde_yaml2de9MapAccessEB9_
FN:96,_RINvXNvNtNtCsiIWUB9x025h_12ettlex_store4seed9format_v016deserialize_whatNtB3_11WhatVisitorNtNtCsj1TtBeWBeu0_10serde_core2de7Visitor9visit_strNtNtCs5GiwRgj49bf_10serde_yaml5error5ErrorEB9_
FN:116,_RNCINvXNvNtNtCsiIWUB9x025h_12ettlex_store4seed9format_v016deserialize_whatNtB5_11WhatVisitorNtNtCsj1TtBeWBeu0_10serde_core2de7Visitor9visit_mapQNtNtCs5GiwRgj49bf_10serde_yaml2de9MapAccessE0Bb_
FN:178,_RNvNtNtNtCsiIWUB9x025h_12ettlex_store4seed9format_v05testss_22test_what_typed_format
FN:128,_RNvNtNtNtCsiIWUB9x025h_12ettlex_store4seed9format_v05testss_23test_parse_minimal_seed
FN:155,_RNvNtNtNtCsiIWUB9x025h_12ettlex_store4seed9format_v05testss_23test_what_string_format
FN:92,_RNvXNvNtNtCsiIWUB9x025h_12ettlex_store4seed9format_v016deserialize_whatNtB2_11WhatVisitorNtNtCsj1TtBeWBeu0_10serde_core2de7Visitor9expecting
FNDA:22,_RINvNtNtCs3PiHhja6dWM_12ettlex_store4seed9format_v016deserialize_whatQNtNtCs5GiwRgj49bf_10serde_yaml2de22DeserializerFromEventsEB6_
FNDA:1,_RINvXNvNtNtCs3PiHhja6dWM_12ettlex_store4seed9format_v016deserialize_whatNtB3_11WhatVisitorNtNtCsj1TtBeWBeu0_10serde_core2de7Visitor9visit_mapQNtNtCs5GiwRgj49bf_10serde_yaml2de9MapAccessEB9_
FNDA:21,_RINvXNvNtNtCs3PiHhja6dWM_12ettlex_store4seed9format_v016deserialize_whatNtB3_11WhatVisitorNtNtCsj1TtBeWBeu0_10serde_core2de7Visitor9visit_strNtNtCs5GiwRgj49bf_10serde_yaml5error5ErrorEB9_
FNDA:0,_RNCINvXNvNtNtCs3PiHhja6dWM_12ettlex_store4seed9format_v016deserialize_whatNtB5_11WhatVisitorNtNtCsj1TtBeWBeu0_10serde_core2de7Visitor9visit_mapQNtNtCs5GiwRgj49bf_10serde_yaml2de9MapAccessE0Bb_
FNDA:0,_RNvXNvNtNtCs3PiHhja6dWM_12ettlex_store4seed9format_v016deserialize_whatNtB2_11WhatVisitorNtNtCsj1TtBeWBeu0_10serde_core2de7Visitor9expecting
FNDA:46,_RINvNtNtCsiIWUB9x025h_12ettlex_store4seed9format_v016deserialize_whatQNtNtCs5GiwRgj49bf_10serde_yaml2de22DeserializerFromEventsEB6_
FNDA:3,_RINvXNvNtNtCsiIWUB9x025h_12ettlex_store4seed9format_v016deserialize_whatNtB3_11WhatVisitorNtNtCsj1TtBeWBeu0_10serde_core2de7Visitor9visit_mapQNtNtCs5GiwRgj49bf_10serde_yaml2de9MapAccessEB9_
FNDA:43,_RINvXNvNtNtCsiIWUB9x025h_12ettlex_store4seed9format_v016deserialize_whatNtB3_11WhatVisitorNtNtCsj1TtBeWBeu0_10serde_core2de7Visitor9visit_strNtNtCs5GiwRgj49bf_10serde_yaml5error5ErrorEB9_
FNDA:0,_RNCINvXNvNtNtCsiIWUB9x025h_12ettlex_store4seed9format_v016deserialize_whatNtB5_11WhatVisitorNtNtCsj1TtBeWBeu0_10serde_core2de7Visitor9visit_mapQNtNtCs5GiwRgj49bf_10serde_yaml2de9MapAccessE0Bb_
FNDA:1,_RNvNtNtNtCsiIWUB9x025h_12ettlex_store4seed9format_v05testss_22test_what_typed_format
FNDA:1,_RNvNtNtNtCsiIWUB9x025h_12ettlex_store4seed9format_v05testss_23test_parse_minimal_seed
FNDA:1,_RNvNtNtNtCsiIWUB9x025h_12ettlex_store4seed9format_v05testss_23test_what_string_format
FNDA:0,_RNvXNvNtNtCsiIWUB9x025h_12ettlex_store4seed9format_v016deserialize_whatNtB2_11WhatVisitorNtNtCsj1TtBeWBeu0_10serde_core2de7Visitor9expecting
FNF:8
FNH:6
DA:80,68
DA:81,68
DA:82,68
DA:92,0
DA:93,0
DA:94,0
DA:96,64
DA:97,64
DA:98,64
DA:100,64
DA:101,64
DA:103,4
DA:104,4
DA:105,4
DA:107,4
DA:108,8
DA:109,4
DA:110,4
DA:113,0
DA:116,4
DA:117,4
DA:120,68
DA:121,68
DA:128,1
DA:129,1
DA:130,1
DA:131,1
DA:132,1
DA:133,1
DA:134,1
DA:135,1
DA:136,1
DA:137,1
DA:138,1
DA:139,1
DA:140,1
DA:141,1
DA:142,1
DA:143,1
DA:144,1
DA:146,1
DA:147,1
DA:148,1
DA:149,1
DA:150,1
DA:151,1
DA:152,1
DA:155,1
DA:156,1
DA:157,1
DA:158,1
DA:159,1
DA:160,1
DA:161,1
DA:162,1
DA:163,1
DA:164,1
DA:165,1
DA:166,1
DA:167,1
DA:168,1
DA:169,1
DA:170,1
DA:171,1
DA:173,1
DA:174,1
DA:175,1
DA:178,1
DA:179,1
DA:180,1
DA:181,1
DA:182,1
DA:183,1
DA:184,1
DA:185,1
DA:186,1
DA:187,1
DA:188,1
DA:189,1
DA:190,1
DA:191,1
DA:192,1
DA:193,1
DA:194,1
DA:195,1
DA:197,1
DA:198,1
DA:199,1
BRF:0
BRH:0
LF:89
LH:84
end_of_record
SF:/Users/nick/Development/EttleX/EttleX-Project/Rust/crates/ettlex-store/src/seed/importer.rs
FN:59,_RNCNvNtNtCs3PiHhja6dWM_12ettlex_store4seed8importer11import_seed0B7_
FN:87,_RNCNvNtNtCs3PiHhja6dWM_12ettlex_store4seed8importer11import_seeds0_0B7_
FN:163,_RNCNvNtNtCs3PiHhja6dWM_12ettlex_store4seed8importer11import_seeds1_0B7_
FN:73,_RNCNvNtNtCs3PiHhja6dWM_12ettlex_store4seed8importer11import_seeds_0B7_
FN:25,_RNvNtNtCs3PiHhja6dWM_12ettlex_store4seed8importer11import_seed
FN:249,_RNCNvNtNtNtCsiIWUB9x025h_12ettlex_store4seed8importer5testss_24test_import_minimal_seed0B9_
FN:261,_RNCNvNtNtNtCsiIWUB9x025h_12ettlex_store4seed8importer5testss_24test_import_minimal_seeds0_0B9_
FN:255,_RNCNvNtNtNtCsiIWUB9x025h_12ettlex_store4seed8importer5testss_24test_import_minimal_seeds_0B9_
FN:383,_RNCNvNtNtNtCsiIWUB9x025h_12ettlex_store4seed8importer5testss_27test_cross_seed_link_import0B9_
FN:397,_RNCNvNtNtNtCsiIWUB9x025h_12ettlex_store4seed8importer5testss_27test_cross_seed_link_imports_0B9_
FN:317,_RNCNvNtNtNtCsiIWUB9x025h_12ettlex_store4seed8importer5testss_28test_import_failure_rollback0B9_
FN:323,_RNCNvNtNtNtCsiIWUB9x025h_12ettlex_store4seed8importer5testss_28test_import_failure_rollbacks_0B9_
FN:281,_RNCNvNtNtNtCsiIWUB9x025h_12ettlex_store4seed8importer5testss_32test_import_full_seed_with_links0B9_
FN:300,_RNCNvNtNtNtCsiIWUB9x025h_12ettlex_store4seed8importer5testss_32test_import_full_seed_with_linkss0_0B9_
FN:290,_RNCNvNtNtNtCsiIWUB9x025h_12ettlex_store4seed8importer5testss_32test_import_full_seed_with_linkss_0B9_
FN:565,_RNCNvNtNtNtCsiIWUB9x025h_12ettlex_store4seed8importer5testss_37test_import_update_skips_existing_eps0B9_
FN:608,_RNCNvNtNtNtCsiIWUB9x025h_12ettlex_store4seed8importer5testss_37test_import_update_skips_existing_epss_0B9_
FN:447,_RNCNvNtNtNtCsiIWUB9x025h_12ettlex_store4seed8importer5testss_42test_import_adds_new_eps_to_existing_ettle0B9_
FN:517,_RNCNvNtNtNtCsiIWUB9x025h_12ettlex_store4seed8importer5testss_42test_import_adds_new_eps_to_existing_ettles2_0B9_
FN:496,_RNCNvNtNtNtCsiIWUB9x025h_12ettlex_store4seed8importer5testss_42test_import_adds_new_eps_to_existing_ettles_0B9_
FN:770,_RNCNvNtNtNtCsiIWUB9x025h_12ettlex_store4seed8importer5testss_43test_import_allows_multiple_children_per_ep0B9_
FN:827,_RNCNvNtNtNtCsiIWUB9x025h_12ettlex_store4seed8importer5testss_43test_import_allows_multiple_children_per_eps0_0B9_
FN:684,_RNCNvNtNtNtCsiIWUB9x025h_12ettlex_store4seed8importer5testss_47test_import_update_with_links_to_existing_ettle0B9_
FN:735,_RNCNvNtNtNtCsiIWUB9x025h_12ettlex_store4seed8importer5testss_47test_import_update_with_links_to_existing_ettles0_0B9_
FN:724,_RNCNvNtNtNtCsiIWUB9x025h_12ettlex_store4seed8importer5testss_47test_import_update_with_links_to_existing_ettles_0B9_
FN:25,_RNvNtNtCsiIWUB9x025h_12ettlex_store4seed8importer11import_seed
FN:233,_RNvNtNtNtCsiIWUB9x025h_12ettlex_store4seed8importer5tests12fixtures_dir
FN:227,_RNvNtNtNtCsiIWUB9x025h_12ettlex_store4seed8importer5tests13setup_test_db
FN:240,_RNvNtNtNtCsiIWUB9x025h_12ettlex_store4seed8importer5testss_24test_import_minimal_seed
FN:331,_RNvNtNtNtCsiIWUB9x025h_12ettlex_store4seed8importer5testss_27test_cross_seed_link_import
FN:307,_RNvNtNtNtCsiIWUB9x025h_12ettlex_store4seed8importer5testss_28test_import_failure_rollback
FN:272,_RNvNtNtNtCsiIWUB9x025h_12ettlex_store4seed8importer5testss_32test_import_full_seed_with_links
FN:528,_RNvNtNtNtCsiIWUB9x025h_12ettlex_store4seed8importer5testss_37test_import_update_skips_existing_eps
FN:411,_RNvNtNtNtCsiIWUB9x025h_12ettlex_store4seed8importer5testss_42test_import_adds_new_eps_to_existing_ettle
FN:751,_RNvNtNtNtCsiIWUB9x025h_12ettlex_store4seed8importer5testss_43test_import_allows_multiple_children_per_ep
FN:628,_RNvNtNtNtCsiIWUB9x025h_12ettlex_store4seed8importer5testss_47test_import_update_with_links_to_existing_ettle
FN:59,_RNCNvNtNtCsiIWUB9x025h_12ettlex_store4seed8importer11import_seed0B7_
FN:87,_RNCNvNtNtCsiIWUB9x025h_12ettlex_store4seed8importer11import_seeds0_0B7_
FN:163,_RNCNvNtNtCsiIWUB9x025h_12ettlex_store4seed8importer11import_seeds1_0B7_
FN:73,_RNCNvNtNtCsiIWUB9x025h_12ettlex_store4seed8importer11import_seeds_0B7_
FNDA:0,_RNCNvNtNtCs3PiHhja6dWM_12ettlex_store4seed8importer11import_seed0B7_
FNDA:0,_RNCNvNtNtCs3PiHhja6dWM_12ettlex_store4seed8importer11import_seeds0_0B7_
FNDA:0,_RNCNvNtNtCs3PiHhja6dWM_12ettlex_store4seed8importer11import_seeds1_0B7_
FNDA:0,_RNCNvNtNtCs3PiHhja6dWM_12ettlex_store4seed8importer11import_seeds_0B7_
FNDA:8,_RNvNtNtCs3PiHhja6dWM_12ettlex_store4seed8importer11import_seed
FNDA:1,_RNCNvNtNtNtCsiIWUB9x025h_12ettlex_store4seed8importer5testss_24test_import_minimal_seed0B9_
FNDA:1,_RNCNvNtNtNtCsiIWUB9x025h_12ettlex_store4seed8importer5testss_24test_import_minimal_seeds0_0B9_
FNDA:1,_RNCNvNtNtNtCsiIWUB9x025h_12ettlex_store4seed8importer5testss_24test_import_minimal_seeds_0B9_
FNDA:1,_RNCNvNtNtNtCsiIWUB9x025h_12ettlex_store4seed8importer5testss_27test_cross_seed_link_import0B9_
FNDA:1,_RNCNvNtNtNtCsiIWUB9x025h_12ettlex_store4seed8importer5testss_27test_cross_seed_link_imports_0B9_
FNDA:1,_RNCNvNtNtNtCsiIWUB9x025h_12ettlex_store4seed8importer5testss_28test_import_failure_rollback0B9_
FNDA:1,_RNCNvNtNtNtCsiIWUB9x025h_12ettlex_store4seed8importer5testss_28test_import_failure_rollbacks_0B9_
FNDA:1,_RNCNvNtNtNtCsiIWUB9x025h_12ettlex_store4seed8importer5testss_32test_import_full_seed_with_links0B9_
FNDA:1,_RNCNvNtNtNtCsiIWUB9x025h_12ettlex_store4seed8importer5testss_32test_import_full_seed_with_linkss0_0B9_
FNDA:1,_RNCNvNtNtNtCsiIWUB9x025h_12ettlex_store4seed8importer5testss_32test_import_full_seed_with_linkss_0B9_
FNDA:1,_RNCNvNtNtNtCsiIWUB9x025h_12ettlex_store4seed8importer5testss_37test_import_update_skips_existing_eps0B9_
FNDA:1,_RNCNvNtNtNtCsiIWUB9x025h_12ettlex_store4seed8importer5testss_37test_import_update_skips_existing_epss_0B9_
FNDA:1,_RNCNvNtNtNtCsiIWUB9x025h_12ettlex_store4seed8importer5testss_42test_import_adds_new_eps_to_existing_ettle0B9_
FNDA:1,_RNCNvNtNtNtCsiIWUB9x025h_12ettlex_store4seed8importer5testss_42test_import_adds_new_eps_to_existing_ettles2_0B9_
FNDA:1,_RNCNvNtNtNtCsiIWUB9x025h_12ettlex_store4seed8importer5testss_42test_import_adds_new_eps_to_existing_ettles_0B9_
FNDA:1,_RNCNvNtNtNtCsiIWUB9x025h_12ettlex_store4seed8importer5testss_43test_import_allows_multiple_children_per_ep0B9_
FNDA:1,_RNCNvNtNtNtCsiIWUB9x025h_12ettlex_store4seed8importer5testss_43test_import_allows_multiple_children_per_eps0_0B9_
FNDA:1,_RNCNvNtNtNtCsiIWUB9x025h_12ettlex_store4seed8importer5testss_47test_import_update_with_links_to_existing_ettle0B9_
FNDA:1,_RNCNvNtNtNtCsiIWUB9x025h_12ettlex_store4seed8importer5testss_47test_import_update_with_links_to_existing_ettles0_0B9_
FNDA:1,_RNCNvNtNtNtCsiIWUB9x025h_12ettlex_store4seed8importer5testss_47test_import_update_with_links_to_existing_ettles_0B9_
FNDA:14,_RNvNtNtCsiIWUB9x025h_12ettlex_store4seed8importer11import_seed
FNDA:5,_RNvNtNtNtCsiIWUB9x025h_12ettlex_store4seed8importer5tests12fixtures_dir
FNDA:8,_RNvNtNtNtCsiIWUB9x025h_12ettlex_store4seed8importer5tests13setup_test_db
FNDA:1,_RNvNtNtNtCsiIWUB9x025h_12ettlex_store4seed8importer5testss_24test_import_minimal_seed
FNDA:1,_RNvNtNtNtCsiIWUB9x025h_12ettlex_store4seed8importer5testss_27test_cross_seed_link_import
FNDA:1,_RNvNtNtNtCsiIWUB9x025h_12ettlex_store4seed8importer5testss_28test_import_failure_rollback
FNDA:1,_RNvNtNtNtCsiIWUB9x025h_12ettlex_store4seed8importer5testss_32test_import_full_seed_with_links
FNDA:1,_RNvNtNtNtCsiIWUB9x025h_12ettlex_store4seed8importer5testss_37test_import_update_skips_existing_eps
FNDA:1,_RNvNtNtNtCsiIWUB9x025h_12ettlex_store4seed8importer5testss_42test_import_adds_new_eps_to_existing_ettle
FNDA:1,_RNvNtNtNtCsiIWUB9x025h_12ettlex_store4seed8importer5testss_43test_import_allows_multiple_children_per_ep
FNDA:1,_RNvNtNtNtCsiIWUB9x025h_12ettlex_store4seed8importer5testss_47test_import_update_with_links_to_existing_ettle
FNDA:4,_RNCNvNtNtCsiIWUB9x025h_12ettlex_store4seed8importer11import_seed0B7_
FNDA:4,_RNCNvNtNtCsiIWUB9x025h_12ettlex_store4seed8importer11import_seeds0_0B7_
FNDA:5,_RNCNvNtNtCsiIWUB9x025h_12ettlex_store4seed8importer11import_seeds1_0B7_
FNDA:4,_RNCNvNtNtCsiIWUB9x025h_12ettlex_store4seed8importer11import_seeds_0B7_
FNF:35
FNH:35
DA:25,22
DA:27,22
DA:30,21
DA:33,21
DA:36,21
DA:39,21
DA:42,27
DA:44,27
DA:45,0
DA:46,27
DA:49,27
DA:50,27
DA:53,27
DA:54,27
DA:55,3
DA:56,3
DA:57,3
DA:58,3
DA:59,4
DA:60,3
DA:62,4
DA:63,4
DA:65,24
DA:67,27
DA:69,3
DA:70,3
DA:71,3
DA:72,3
DA:73,4
DA:74,3
DA:76,4
DA:77,4
DA:78,4
DA:79,4
DA:80,4
DA:81,4
DA:83,4
DA:84,4
DA:85,4
DA:86,4
DA:87,4
DA:89,4
DA:90,4
DA:91,0
DA:92,0
DA:93,0
DA:94,0
DA:95,0
DA:96,4
DA:97,4
DA:98,0
DA:100,3
DA:101,3
DA:104,24
DA:105,24
DA:107,24
DA:108,24
DA:109,24
DA:113,39
DA:115,39
DA:116,4
DA:117,35
DA:120,35
DA:121,35
DA:122,35
DA:123,35
DA:124,35
DA:125,35
DA:126,35
DA:127,35
DA:131,35
DA:132,35
DA:133,35
DA:136,35
DA:137,35
DA:141,27
DA:144,27
DA:147,27
DA:151,21
DA:156,9
DA:157,3
DA:159,3
DA:160,3
DA:161,3
DA:162,3
DA:163,5
DA:164,3
DA:166,3
DA:167,5
DA:168,5
DA:169,5
DA:170,5
DA:171,5
DA:172,5
DA:176,3
DA:177,3
DA:178,0
DA:179,6
DA:182,9
DA:183,0
DA:184,0
DA:185,0
DA:186,9
DA:189,9
DA:190,0
DA:191,0
DA:192,0
DA:193,9
DA:196,9
DA:197,9
DA:199,0
DA:200,9
DA:203,9
DA:206,9
DA:207,9
DA:208,9
DA:209,9
DA:213,21
DA:216,21
DA:218,21
DA:219,22
DA:227,8
DA:228,8
DA:229,8
DA:230,8
DA:231,8
DA:233,5
DA:234,5
DA:235,5
DA:236,5
DA:237,5
DA:240,1
DA:241,1
DA:242,1
DA:244,1
DA:245,1
DA:248,1
DA:249,1
DA:250,1
DA:251,1
DA:254,1
DA:255,1
DA:256,1
DA:257,1
DA:260,1
DA:261,1
DA:262,1
DA:263,1
DA:264,1
DA:265,1
DA:266,1
DA:269,1
DA:272,1
DA:273,1
DA:274,1
DA:276,1
DA:277,1
DA:280,1
DA:281,1
DA:282,1
DA:283,1
DA:286,1
DA:287,1
DA:288,1
DA:289,1
DA:290,1
DA:292,1
DA:293,1
DA:296,1
DA:297,1
DA:298,1
DA:299,1
DA:300,1
DA:302,1
DA:303,1
DA:304,1
DA:307,1
DA:308,1
DA:309,1
DA:312,1
DA:313,1
DA:316,1
DA:317,1
DA:318,1
DA:319,1
DA:322,1
DA:323,1
DA:324,1
DA:325,1
DA:326,1
DA:327,1
DA:328,1
DA:331,1
DA:332,1
DA:335,1
DA:336,1
DA:337,1
DA:338,1
DA:340,0
DA:345,1
DA:346,1
DA:347,1
DA:348,1
DA:349,1
DA:350,1
DA:351,1
DA:352,1
DA:353,1
DA:354,1
DA:355,1
DA:356,1
DA:357,1
DA:358,1
DA:359,1
DA:360,1
DA:361,1
DA:362,1
DA:363,1
DA:366,1
DA:367,1
DA:368,1
DA:371,1
DA:372,1
DA:373,1
DA:375,0
DA:379,1
DA:380,1
DA:381,1
DA:382,1
DA:383,1
DA:385,1
DA:386,1
DA:388,1
DA:393,1
DA:394,1
DA:395,1
DA:396,1
DA:397,1
DA:399,1
DA:400,1
DA:402,1
DA:407,1
DA:408,1
DA:411,1
DA:412,1
DA:415,1
DA:416,1
DA:417,1
DA:418,1
DA:419,1
DA:420,1
DA:421,1
DA:422,1
DA:423,1
DA:424,1
DA:425,1
DA:426,1
DA:427,1
DA:428,1
DA:429,1
DA:430,1
DA:431,1
DA:432,1
DA:433,1
DA:435,1
DA:436,1
DA:437,1
DA:439,0
DA:443,1
DA:444,1
DA:445,1
DA:446,1
DA:447,1
DA:449,1
DA:450,1
DA:453,1
DA:454,1
DA:455,1
DA:456,1
DA:457,1
DA:458,1
DA:459,1
DA:460,1
DA:461,1
DA:462,1
DA:463,1
DA:464,1
DA:465,1
DA:466,1
DA:467,1
DA:468,1
DA:469,1
DA:470,1
DA:471,1
DA:472,1
DA:473,1
DA:474,1
DA:475,1
DA:476,1
DA:477,1
DA:478,1
DA:479,1
DA:480,1
DA:481,1
DA:482,1
DA:484,1
DA:485,1
DA:486,1
DA:488,0
DA:492,1
DA:493,1
DA:494,1
DA:495,1
DA:496,1
DA:498,1
DA:499,1
DA:502,1
DA:503,1
DA:504,1
DA:505,1
DA:507,1
DA:508,1
DA:509,1
DA:510,1
DA:513,1
DA:514,1
DA:515,1
DA:516,1
DA:517,1
DA:519,1
DA:520,1
DA:523,1
DA:524,1
DA:525,1
DA:528,1
DA:529,1
DA:532,1
DA:533,1
DA:534,1
DA:535,1
DA:536,1
DA:537,1
DA:538,1
DA:539,1
DA:540,1
DA:541,1
DA:542,1
DA:543,1
DA:544,1
DA:545,1
DA:546,1
DA:547,1
DA:548,1
DA:549,1
DA:550,1
DA:551,1
DA:552,1
DA:553,1
DA:554,1
DA:555,1
DA:556,1
DA:558,1
DA:561,1
DA:562,1
DA:563,1
DA:564,1
DA:565,1
DA:567,1
DA:570,1
DA:571,1
DA:572,1
DA:573,1
DA:574,1
DA:575,1
DA:576,1
DA:577,1
DA:578,1
DA:579,1
DA:580,1
DA:581,1
DA:582,1
DA:583,1
DA:584,1
DA:585,1
DA:586,1
DA:587,1
DA:588,1
DA:589,1
DA:590,1
DA:591,1
DA:592,1
DA:593,1
DA:594,1
DA:595,1
DA:596,1
DA:597,1
DA:598,1
DA:599,1
DA:601,1
DA:604,1
DA:605,1
DA:606,1
DA:607,1
DA:608,1
DA:610,1
DA:611,1
DA:617,1
DA:618,1
DA:619,1
DA:620,1
DA:623,1
DA:624,1
DA:625,1
DA:628,1
DA:629,1
DA:632,1
DA:633,1
DA:634,1
DA:635,1
DA:636,1
DA:637,1
DA:638,1
DA:639,1
DA:640,1
DA:641,1
DA:642,1
DA:643,1
DA:644,1
DA:645,1
DA:646,1
DA:647,1
DA:648,1
DA:649,1
DA:650,1
DA:652,1
DA:655,1
DA:656,1
DA:657,1
DA:658,1
DA:659,1
DA:660,1
DA:661,1
DA:662,1
DA:663,1
DA:664,1
DA:665,1
DA:666,1
DA:667,1
DA:668,1
DA:669,1
DA:670,1
DA:671,1
DA:672,1
DA:673,1
DA:674,1
DA:675,1
DA:677,1
DA:680,1
DA:681,1
DA:682,1
DA:683,1
DA:684,1
DA:686,1
DA:687,1
DA:690,1
DA:691,1
DA:692,1
DA:693,1
DA:694,1
DA:695,1
DA:696,1
DA:697,1
DA:698,1
DA:699,1
DA:700,1
DA:701,1
DA:702,1
DA:703,1
DA:704,1
DA:705,1
DA:706,1
DA:707,1
DA:708,1
DA:709,1
DA:710,1
DA:711,1
DA:712,1
DA:713,1
DA:715,1
DA:716,1
DA:717,1
DA:719,0
DA:723,1
DA:724,1
DA:725,1
DA:726,1
DA:727,1
DA:728,1
DA:731,1
DA:732,1
DA:733,1
DA:734,1
DA:735,1
DA:737,1
DA:738,1
DA:740,1
DA:745,1
DA:746,1
DA:747,1
DA:748,1
DA:751,1
DA:754,1
DA:757,1
DA:758,1
DA:759,1
DA:760,1
DA:762,0
DA:766,1
DA:767,1
DA:768,1
DA:769,1
DA:770,1
DA:772,1
DA:773,1
DA:775,1
DA:780,1
DA:781,1
DA:782,1
DA:783,1
DA:784,1
DA:785,1
DA:786,1
DA:787,1
DA:788,1
DA:789,1
DA:790,1
DA:791,1
DA:792,1
DA:793,1
DA:794,1
DA:795,1
DA:796,1
DA:797,1
DA:798,1
DA:800,1
DA:801,1
DA:802,1
DA:805,1
DA:806,1
DA:807,1
DA:809,0
DA:813,1
DA:814,1
DA:815,1
DA:816,1
DA:819,1
DA:820,1
DA:823,1
DA:824,1
DA:825,1
DA:826,1
DA:827,1
DA:829,1
DA:830,1
DA:832,1
DA:837,1
DA:838,1
BRF:0
BRH:0
LF:577
LH:555
end_of_record
SF:/Users/nick/Development/EttleX/EttleX-Project/Rust/crates/ettlex-store/src/seed/parser.rs
FN:141,_RNCNvNtNtCs3PiHhja6dWM_12ettlex_store4seed6parser13validate_seeds2_0B7_
FN:72,_RNCNvNtNtCs3PiHhja6dWM_12ettlex_store4seed6parser13validate_seeds_0B7_
FN:36,_RNCNvNtNtCs3PiHhja6dWM_12ettlex_store4seed6parser22parse_seed_str_with_db0B7_
FN:22,_RNCNvNtNtCs3PiHhja6dWM_12ettlex_store4seed6parser23parse_seed_file_with_db0B7_
FN:45,_RNvNtNtCs3PiHhja6dWM_12ettlex_store4seed6parser13validate_seed
FN:28,_RNvNtNtCs3PiHhja6dWM_12ettlex_store4seed6parser14parse_seed_str
FN:15,_RNvNtNtCs3PiHhja6dWM_12ettlex_store4seed6parser15parse_seed_file
FN:33,_RNvNtNtCs3PiHhja6dWM_12ettlex_store4seed6parser22parse_seed_str_with_db
FN:20,_RNvNtNtCs3PiHhja6dWM_12ettlex_store4seed6parser23parse_seed_file_with_db
FN:45,_RNvNtNtCsiIWUB9x025h_12ettlex_store4seed6parser13validate_seed
FN:28,_RNvNtNtCsiIWUB9x025h_12ettlex_store4seed6parser14parse_seed_str
FN:33,_RNvNtNtCsiIWUB9x025h_12ettlex_store4seed6parser22parse_seed_str_with_db
FN:20,_RNvNtNtCsiIWUB9x025h_12ettlex_store4seed6parser23parse_seed_file_with_db
FN:163,_RNvNtNtNtCsiIWUB9x025h_12ettlex_store4seed6parser5testss_21test_parse_valid_seed
FN:233,_RNvNtNtNtCsiIWUB9x025h_12ettlex_store4seed6parser5testss_29test_reject_missing_reference
FN:261,_RNvNtNtNtCsiIWUB9x025h_12ettlex_store4seed6parser5testss_29test_what_polymorphism_stable
FN:202,_RNvNtNtNtCsiIWUB9x025h_12ettlex_store4seed6parser5testss_30test_reject_duplicate_ordinals
FN:186,_RNvNtNtNtCsiIWUB9x025h_12ettlex_store4seed6parser5testss_34test_reject_invalid_schema_version
FN:141,_RNCNvNtNtCsiIWUB9x025h_12ettlex_store4seed6parser13validate_seeds2_0B7_
FN:72,_RNCNvNtNtCsiIWUB9x025h_12ettlex_store4seed6parser13validate_seeds_0B7_
FN:36,_RNCNvNtNtCsiIWUB9x025h_12ettlex_store4seed6parser22parse_seed_str_with_db0B7_
FN:22,_RNCNvNtNtCsiIWUB9x025h_12ettlex_store4seed6parser23parse_seed_file_with_db0B7_
FN:15,_RNvNtNtCsiIWUB9x025h_12ettlex_store4seed6parser15parse_seed_file
FNDA:16,_RNCNvNtNtCs3PiHhja6dWM_12ettlex_store4seed6parser13validate_seeds2_0B7_
FNDA:16,_RNCNvNtNtCs3PiHhja6dWM_12ettlex_store4seed6parser13validate_seeds_0B7_
FNDA:0,_RNCNvNtNtCs3PiHhja6dWM_12ettlex_store4seed6parser22parse_seed_str_with_db0B7_
FNDA:0,_RNCNvNtNtCs3PiHhja6dWM_12ettlex_store4seed6parser23parse_seed_file_with_db0B7_
FNDA:14,_RNvNtNtCs3PiHhja6dWM_12ettlex_store4seed6parser13validate_seed
FNDA:2,_RNvNtNtCs3PiHhja6dWM_12ettlex_store4seed6parser14parse_seed_str
FNDA:4,_RNvNtNtCs3PiHhja6dWM_12ettlex_store4seed6parser15parse_seed_file
FNDA:14,_RNvNtNtCs3PiHhja6dWM_12ettlex_store4seed6parser22parse_seed_str_with_db
FNDA:12,_RNvNtNtCs3PiHhja6dWM_12ettlex_store4seed6parser23parse_seed_file_with_db
FNDA:28,_RNvNtNtCsiIWUB9x025h_12ettlex_store4seed6parser13validate_seed
FNDA:14,_RNvNtNtCsiIWUB9x025h_12ettlex_store4seed6parser14parse_seed_str
FNDA:28,_RNvNtNtCsiIWUB9x025h_12ettlex_store4seed6parser22parse_seed_str_with_db
FNDA:14,_RNvNtNtCsiIWUB9x025h_12ettlex_store4seed6parser23parse_seed_file_with_db
FNDA:1,_RNvNtNtNtCsiIWUB9x025h_12ettlex_store4seed6parser5testss_21test_parse_valid_seed
FNDA:1,_RNvNtNtNtCsiIWUB9x025h_12ettlex_store4seed6parser5testss_29test_reject_missing_reference
FNDA:1,_RNvNtNtNtCsiIWUB9x025h_12ettlex_store4seed6parser5testss_29test_what_polymorphism_stable
FNDA:1,_RNvNtNtNtCsiIWUB9x025h_12ettlex_store4seed6parser5testss_30test_reject_duplicate_ordinals
FNDA:1,_RNvNtNtNtCsiIWUB9x025h_12ettlex_store4seed6parser5testss_34test_reject_invalid_schema_version
FNDA:29,_RNCNvNtNtCsiIWUB9x025h_12ettlex_store4seed6parser13validate_seeds2_0B7_
FNDA:30,_RNCNvNtNtCsiIWUB9x025h_12ettlex_store4seed6parser13validate_seeds_0B7_
FNDA:0,_RNCNvNtNtCsiIWUB9x025h_12ettlex_store4seed6parser22parse_seed_str_with_db0B7_
FNDA:0,_RNCNvNtNtCsiIWUB9x025h_12ettlex_store4seed6parser23parse_seed_file_with_db0B7_
FNDA:0,_RNvNtNtCsiIWUB9x025h_12ettlex_store4seed6parser15parse_seed_file
FNF:14
FNH:12
DA:15,4
DA:16,4
DA:17,4
DA:20,26
DA:21,26
DA:22,26
DA:24,26
DA:25,26
DA:28,16
DA:29,16
DA:30,16
DA:33,42
DA:35,42
DA:36,42
DA:39,42
DA:41,36
DA:42,42
DA:45,42
DA:47,42
DA:48,2
DA:49,2
DA:50,2
DA:51,2
DA:52,40
DA:55,49
DA:56,49
DA:57,65
DA:58,65
DA:59,3
DA:60,3
DA:61,3
DA:62,3
DA:63,62
DA:68,37
DA:69,37
DA:70,37
DA:71,37
DA:72,46
DA:73,37
DA:75,37
DA:77,11
DA:78,3
DA:80,3
DA:81,3
DA:82,3
DA:83,3
DA:86,3
DA:88,3
DA:89,0
DA:90,0
DA:91,0
DA:92,0
DA:93,3
DA:95,0
DA:96,0
DA:97,0
DA:98,0
DA:100,8
DA:103,11
DA:104,3
DA:106,3
DA:107,3
DA:108,3
DA:109,3
DA:112,3
DA:114,3
DA:115,0
DA:116,0
DA:117,0
DA:118,0
DA:119,3
DA:121,0
DA:122,0
DA:123,0
DA:124,0
DA:126,8
DA:129,11
DA:130,1
DA:131,1
DA:132,1
DA:133,1
DA:134,10
DA:138,36
DA:139,36
DA:140,36
DA:141,45
DA:142,36
DA:144,36
DA:145,10
DA:146,7
DA:147,0
DA:148,0
DA:149,0
DA:150,0
DA:151,7
DA:152,3
DA:155,36
DA:156,42
DA:163,1
DA:164,1
DA:165,1
DA:166,1
DA:167,1
DA:168,1
DA:169,1
DA:170,1
DA:171,1
DA:172,1
DA:173,1
DA:174,1
DA:175,1
DA:176,1
DA:177,1
DA:178,1
DA:179,1
DA:181,1
DA:182,1
DA:183,1
DA:186,1
DA:187,1
DA:188,1
DA:189,1
DA:190,1
DA:191,1
DA:192,1
DA:193,1
DA:195,1
DA:196,1
DA:197,1
DA:198,1
DA:199,1
DA:202,1
DA:203,1
DA:204,1
DA:205,1
DA:206,1
DA:207,1
DA:208,1
DA:209,1
DA:210,1
DA:211,1
DA:212,1
DA:213,1
DA:214,1
DA:215,1
DA:216,1
DA:217,1
DA:218,1
DA:219,1
DA:220,1
DA:221,1
DA:222,1
DA:223,1
DA:224,1
DA:226,1
DA:227,1
DA:228,1
DA:229,1
DA:230,1
DA:233,1
DA:234,1
DA:235,1
DA:236,1
DA:237,1
DA:238,1
DA:239,1
DA:240,1
DA:241,1
DA:242,1
DA:243,1
DA:244,1
DA:245,1
DA:246,1
DA:247,1
DA:248,1
DA:249,1
DA:250,1
DA:251,1
DA:252,1
DA:254,1
DA:255,1
DA:256,1
DA:257,1
DA:258,1
DA:261,1
DA:262,1
DA:263,1
DA:264,1
DA:265,1
DA:266,1
DA:267,1
DA:268,1
DA:269,1
DA:270,1
DA:271,1
DA:272,1
DA:273,1
DA:274,1
DA:275,1
DA:276,1
DA:277,1
DA:279,1
DA:280,1
DA:281,1
DA:282,1
DA:283,1
DA:284,1
DA:285,1
DA:286,1
DA:287,1
DA:288,1
DA:289,1
DA:290,1
DA:291,1
DA:292,1
DA:293,1
DA:294,1
DA:295,1
DA:297,1
DA:298,1
DA:301,1
DA:302,1
BRF:0
BRH:0
LF:226
LH:204
end_of_record
SF:/Users/nick/Development/EttleX/EttleX-Project/Rust/crates/ettlex-store/src/seed/provenance.rs
FN:40,_RNCNCNvNtNtCs3PiHhja6dWM_12ettlex_store4seed10provenance10emit_event00B9_
FN:61,_RNCNCNvNtNtCs3PiHhja6dWM_12ettlex_store4seed10provenance13emit_event_tx00B9_
FN:40,_RNCNvNtNtCs3PiHhja6dWM_12ettlex_store4seed10provenance10emit_event0B7_
FN:41,_RNCNvNtNtCs3PiHhja6dWM_12ettlex_store4seed10provenance10emit_events_0B7_
FN:61,_RNCNvNtNtCs3PiHhja6dWM_12ettlex_store4seed10provenance13emit_event_tx0B7_
FN:62,_RNCNvNtNtCs3PiHhja6dWM_12ettlex_store4seed10provenance13emit_event_txs_0B7_
FN:22,_RNvMNtNtCs3PiHhja6dWM_12ettlex_store4seed10provenanceNtB2_14ProvenanceKind6as_str
FN:32,_RNvNtNtCs3PiHhja6dWM_12ettlex_store4seed10provenance10emit_event
FN:86,_RNvNtNtCs3PiHhja6dWM_12ettlex_store4seed10provenance12emit_applied
FN:74,_RNvNtNtCs3PiHhja6dWM_12ettlex_store4seed10provenance12emit_started
FN:53,_RNvNtNtCs3PiHhja6dWM_12ettlex_store4seed10provenance13emit_event_tx
FN:98,_RNvNtNtCs3PiHhja6dWM_12ettlex_store4seed10provenance14emit_completed
FN:22,_RNvMNtNtCsiIWUB9x025h_12ettlex_store4seed10provenanceNtB2_14ProvenanceKind6as_str
FN:32,_RNvNtNtCsiIWUB9x025h_12ettlex_store4seed10provenance10emit_event
FN:86,_RNvNtNtCsiIWUB9x025h_12ettlex_store4seed10provenance12emit_applied
FN:74,_RNvNtNtCsiIWUB9x025h_12ettlex_store4seed10provenance12emit_started
FN:53,_RNvNtNtCsiIWUB9x025h_12ettlex_store4seed10provenance13emit_event_tx
FN:98,_RNvNtNtCsiIWUB9x025h_12ettlex_store4seed10provenance14emit_completed
FN:115,_RNvNtNtNtCsiIWUB9x025h_12ettlex_store4seed10provenance5tests13setup_test_db
FN:122,_RNvNtNtNtCsiIWUB9x025h_12ettlex_store4seed10provenance5testss_15test_emit_event
FN:141,_RNvNtNtNtCsiIWUB9x025h_12ettlex_store4seed10provenance5testss_35test_emit_started_applied_completed
FN:133,_RNCNvNtNtNtCsiIWUB9x025h_12ettlex_store4seed10provenance5testss_15test_emit_event0B9_
FN:159,_RNCNvNtNtNtCsiIWUB9x025h_12ettlex_store4seed10provenance5testss_35test_emit_started_applied_completed0B9_
FN:40,_RNCNCNvNtNtCsiIWUB9x025h_12ettlex_store4seed10provenance10emit_event00B9_
FN:61,_RNCNCNvNtNtCsiIWUB9x025h_12ettlex_store4seed10provenance13emit_event_tx00B9_
FN:40,_RNCNvNtNtCsiIWUB9x025h_12ettlex_store4seed10provenance10emit_event0B7_
FN:41,_RNCNvNtNtCsiIWUB9x025h_12ettlex_store4seed10provenance10emit_events_0B7_
FN:61,_RNCNvNtNtCsiIWUB9x025h_12ettlex_store4seed10provenance13emit_event_tx0B7_
FN:62,_RNCNvNtNtCsiIWUB9x025h_12ettlex_store4seed10provenance13emit_event_txs_0B7_
FNDA:0,_RNCNCNvNtNtCs3PiHhja6dWM_12ettlex_store4seed10provenance10emit_event00B9_
FNDA:0,_RNCNCNvNtNtCs3PiHhja6dWM_12ettlex_store4seed10provenance13emit_event_tx00B9_
FNDA:0,_RNCNvNtNtCs3PiHhja6dWM_12ettlex_store4seed10provenance10emit_event0B7_
FNDA:0,_RNCNvNtNtCs3PiHhja6dWM_12ettlex_store4seed10provenance10emit_events_0B7_
FNDA:27,_RNCNvNtNtCs3PiHhja6dWM_12ettlex_store4seed10provenance13emit_event_tx0B7_
FNDA:0,_RNCNvNtNtCs3PiHhja6dWM_12ettlex_store4seed10provenance13emit_event_txs_0B7_
FNDA:27,_RNvMNtNtCs3PiHhja6dWM_12ettlex_store4seed10provenanceNtB2_14ProvenanceKind6as_str
FNDA:0,_RNvNtNtCs3PiHhja6dWM_12ettlex_store4seed10provenance10emit_event
FNDA:11,_RNvNtNtCs3PiHhja6dWM_12ettlex_store4seed10provenance12emit_applied
FNDA:8,_RNvNtNtCs3PiHhja6dWM_12ettlex_store4seed10provenance12emit_started
FNDA:27,_RNvNtNtCs3PiHhja6dWM_12ettlex_store4seed10provenance13emit_event_tx
FNDA:8,_RNvNtNtCs3PiHhja6dWM_12ettlex_store4seed10provenance14emit_completed
FNDA:47,_RNvMNtNtCsiIWUB9x025h_12ettlex_store4seed10provenanceNtB2_14ProvenanceKind6as_str
FNDA:1,_RNvNtNtCsiIWUB9x025h_12ettlex_store4seed10provenance10emit_event
FNDA:18,_RNvNtNtCsiIWUB9x025h_12ettlex_store4seed10provenance12emit_applied
FNDA:14,_RNvNtNtCsiIWUB9x025h_12ettlex_store4seed10provenance12emit_started
FNDA:46,_RNvNtNtCsiIWUB9x025h_12ettlex_store4seed10provenance13emit_event_tx
FNDA:14,_RNvNtNtCsiIWUB9x025h_12ettlex_store4seed10provenance14emit_completed
FNDA:2,_RNvNtNtNtCsiIWUB9x025h_12ettlex_store4seed10provenance5tests13setup_test_db
FNDA:1,_RNvNtNtNtCsiIWUB9x025h_12ettlex_store4seed10provenance5testss_15test_emit_event
FNDA:1,_RNvNtNtNtCsiIWUB9x025h_12ettlex_store4seed10provenance5testss_35test_emit_started_applied_completed
FNDA:1,_RNCNvNtNtNtCsiIWUB9x025h_12ettlex_store4seed10provenance5testss_15test_emit_event0B9_
FNDA:1,_RNCNvNtNtNtCsiIWUB9x025h_12ettlex_store4seed10provenance5testss_35test_emit_started_applied_completed0B9_
FNDA:0,_RNCNCNvNtNtCsiIWUB9x025h_12ettlex_store4seed10provenance10emit_event00B9_
FNDA:0,_RNCNCNvNtNtCsiIWUB9x025h_12ettlex_store4seed10provenance13emit_event_tx00B9_
FNDA:0,_RNCNvNtNtCsiIWUB9x025h_12ettlex_store4seed10provenance10emit_event0B7_
FNDA:1,_RNCNvNtNtCsiIWUB9x025h_12ettlex_store4seed10provenance10emit_events_0B7_
FNDA:46,_RNCNvNtNtCsiIWUB9x025h_12ettlex_store4seed10provenance13emit_event_tx0B7_
FNDA:0,_RNCNvNtNtCsiIWUB9x025h_12ettlex_store4seed10provenance13emit_event_txs_0B7_
FNF:17
FNH:13
DA:22,74
DA:23,74
DA:24,23
DA:25,29
DA:26,22
DA:28,74
DA:32,1
DA:33,1
DA:34,1
DA:35,1
DA:36,1
DA:37,1
DA:38,1
DA:39,1
DA:40,1
DA:41,1
DA:43,1
DA:44,1
DA:45,1
DA:47,1
DA:49,1
DA:50,1
DA:53,73
DA:54,73
DA:55,73
DA:56,73
DA:57,73
DA:58,73
DA:59,73
DA:60,73
DA:61,73
DA:62,73
DA:64,73
DA:65,73
DA:66,73
DA:67,73
DA:68,73
DA:70,73
DA:71,73
DA:74,22
DA:75,22
DA:76,22
DA:77,22
DA:78,22
DA:79,22
DA:80,22
DA:81,22
DA:83,22
DA:86,29
DA:87,29
DA:88,29
DA:89,29
DA:90,29
DA:91,29
DA:92,29
DA:93,29
DA:95,29
DA:98,22
DA:99,22
DA:100,22
DA:101,22
DA:102,22
DA:103,22
DA:104,22
DA:105,22
DA:107,22
DA:115,2
DA:116,2
DA:117,2
DA:118,2
DA:119,2
DA:122,1
DA:123,1
DA:124,1
DA:126,1
DA:129,1
DA:130,1
DA:131,1
DA:132,1
DA:133,1
DA:135,1
DA:137,1
DA:138,1
DA:141,1
DA:142,1
DA:143,1
DA:145,1
DA:147,1
DA:148,1
DA:149,1
DA:150,1
DA:152,1
DA:155,1
DA:156,1
DA:157,1
DA:158,1
DA:159,1
DA:161,1
DA:163,1
DA:164,1
BRF:0
BRH:0
LF:106
LH:102
end_of_record
SF:/Users/nick/Development/EttleX/EttleX-Project/Rust/crates/ettlex-store/src/snapshot/persist.rs
FN:263,_RNvNtNtCs3PiHhja6dWM_12ettlex_store8snapshot7persist15commit_snapshot
FN:204,_RNvNtNtCs3PiHhja6dWM_12ettlex_store8snapshot7persist18query_current_head
FN:58,_RNvNtNtCs3PiHhja6dWM_12ettlex_store8snapshot7persist23persist_manifest_to_cas
FN:163,_RNvNtNtCs3PiHhja6dWM_12ettlex_store8snapshot7persist24query_by_semantic_digest
FN:101,_RNvNtNtCs3PiHhja6dWM_12ettlex_store8snapshot7persist28create_snapshot_ledger_entry
FN:279,_RNCNvNtNtCs3PiHhja6dWM_12ettlex_store8snapshot7persist15commit_snapshot0B7_
FN:338,_RNCNvNtNtCs3PiHhja6dWM_12ettlex_store8snapshot7persist15commit_snapshots1_0B7_
FN:294,_RNCNvNtNtCs3PiHhja6dWM_12ettlex_store8snapshot7persist15commit_snapshots_0B7_
FN:215,_RNCNvNtNtCs3PiHhja6dWM_12ettlex_store8snapshot7persist18query_current_head0B7_
FN:224,_RNCNvNtNtCs3PiHhja6dWM_12ettlex_store8snapshot7persist18query_current_heads0_0B7_
FN:222,_RNCNvNtNtCs3PiHhja6dWM_12ettlex_store8snapshot7persist18query_current_heads_0B7_
FN:60,_RNCNvNtNtCs3PiHhja6dWM_12ettlex_store8snapshot7persist23persist_manifest_to_cas0B7_
FN:67,_RNCNvNtNtCs3PiHhja6dWM_12ettlex_store8snapshot7persist23persist_manifest_to_cass_0B7_
FN:176,_RNCNvNtNtCs3PiHhja6dWM_12ettlex_store8snapshot7persist24query_by_semantic_digest0B7_
FN:192,_RNCNvNtNtCs3PiHhja6dWM_12ettlex_store8snapshot7persist24query_by_semantic_digests0_0B7_
FN:183,_RNCNvNtNtCs3PiHhja6dWM_12ettlex_store8snapshot7persist24query_by_semantic_digests_0B7_
FN:109,_RNCNvNtNtCs3PiHhja6dWM_12ettlex_store8snapshot7persist28create_snapshot_ledger_entry0B7_
FN:143,_RNCNvNtNtCs3PiHhja6dWM_12ettlex_store8snapshot7persist28create_snapshot_ledger_entrys_0B7_
FN:279,_RNCNvNtNtCsiIWUB9x025h_12ettlex_store8snapshot7persist15commit_snapshot0B7_
FN:338,_RNCNvNtNtCsiIWUB9x025h_12ettlex_store8snapshot7persist15commit_snapshots1_0B7_
FN:294,_RNCNvNtNtCsiIWUB9x025h_12ettlex_store8snapshot7persist15commit_snapshots_0B7_
FN:215,_RNCNvNtNtCsiIWUB9x025h_12ettlex_store8snapshot7persist18query_current_head0B7_
FN:224,_RNCNvNtNtCsiIWUB9x025h_12ettlex_store8snapshot7persist18query_current_heads0_0B7_
FN:222,_RNCNvNtNtCsiIWUB9x025h_12ettlex_store8snapshot7persist18query_current_heads_0B7_
FN:60,_RNCNvNtNtCsiIWUB9x025h_12ettlex_store8snapshot7persist23persist_manifest_to_cas0B7_
FN:67,_RNCNvNtNtCsiIWUB9x025h_12ettlex_store8snapshot7persist23persist_manifest_to_cass_0B7_
FN:176,_RNCNvNtNtCsiIWUB9x025h_12ettlex_store8snapshot7persist24query_by_semantic_digest0B7_
FN:192,_RNCNvNtNtCsiIWUB9x025h_12ettlex_store8snapshot7persist24query_by_semantic_digests0_0B7_
FN:183,_RNCNvNtNtCsiIWUB9x025h_12ettlex_store8snapshot7persist24query_by_semantic_digests_0B7_
FN:109,_RNCNvNtNtCsiIWUB9x025h_12ettlex_store8snapshot7persist28create_snapshot_ledger_entry0B7_
FN:143,_RNCNvNtNtCsiIWUB9x025h_12ettlex_store8snapshot7persist28create_snapshot_ledger_entrys_0B7_
FN:263,_RNvNtNtCsiIWUB9x025h_12ettlex_store8snapshot7persist15commit_snapshot
FN:204,_RNvNtNtCsiIWUB9x025h_12ettlex_store8snapshot7persist18query_current_head
FN:58,_RNvNtNtCsiIWUB9x025h_12ettlex_store8snapshot7persist23persist_manifest_to_cas
FN:163,_RNvNtNtCsiIWUB9x025h_12ettlex_store8snapshot7persist24query_by_semantic_digest
FN:101,_RNvNtNtCsiIWUB9x025h_12ettlex_store8snapshot7persist28create_snapshot_ledger_entry
FNDA:66,_RNvNtNtCs3PiHhja6dWM_12ettlex_store8snapshot7persist15commit_snapshot
FNDA:65,_RNvNtNtCs3PiHhja6dWM_12ettlex_store8snapshot7persist18query_current_head
FNDA:58,_RNvNtNtCs3PiHhja6dWM_12ettlex_store8snapshot7persist23persist_manifest_to_cas
FNDA:10,_RNvNtNtCs3PiHhja6dWM_12ettlex_store8snapshot7persist24query_by_semantic_digest
FNDA:54,_RNvNtNtCs3PiHhja6dWM_12ettlex_store8snapshot7persist28create_snapshot_ledger_entry
FNDA:0,_RNCNvNtNtCs3PiHhja6dWM_12ettlex_store8snapshot7persist15commit_snapshot0B7_
FNDA:0,_RNCNvNtNtCs3PiHhja6dWM_12ettlex_store8snapshot7persist15commit_snapshots1_0B7_
FNDA:2,_RNCNvNtNtCs3PiHhja6dWM_12ettlex_store8snapshot7persist15commit_snapshots_0B7_
FNDA:0,_RNCNvNtNtCs3PiHhja6dWM_12ettlex_store8snapshot7persist18query_current_head0B7_
FNDA:0,_RNCNvNtNtCs3PiHhja6dWM_12ettlex_store8snapshot7persist18query_current_heads0_0B7_
FNDA:16,_RNCNvNtNtCs3PiHhja6dWM_12ettlex_store8snapshot7persist18query_current_heads_0B7_
FNDA:0,_RNCNvNtNtCs3PiHhja6dWM_12ettlex_store8snapshot7persist23persist_manifest_to_cas0B7_
FNDA:1,_RNCNvNtNtCs3PiHhja6dWM_12ettlex_store8snapshot7persist23persist_manifest_to_cass_0B7_
FNDA:0,_RNCNvNtNtCs3PiHhja6dWM_12ettlex_store8snapshot7persist24query_by_semantic_digest0B7_
FNDA:0,_RNCNvNtNtCs3PiHhja6dWM_12ettlex_store8snapshot7persist24query_by_semantic_digests0_0B7_
FNDA:6,_RNCNvNtNtCs3PiHhja6dWM_12ettlex_store8snapshot7persist24query_by_semantic_digests_0B7_
FNDA:0,_RNCNvNtNtCs3PiHhja6dWM_12ettlex_store8snapshot7persist28create_snapshot_ledger_entry0B7_
FNDA:0,_RNCNvNtNtCs3PiHhja6dWM_12ettlex_store8snapshot7persist28create_snapshot_ledger_entrys_0B7_
FNDA:0,_RNCNvNtNtCsiIWUB9x025h_12ettlex_store8snapshot7persist15commit_snapshot0B7_
FNDA:0,_RNCNvNtNtCsiIWUB9x025h_12ettlex_store8snapshot7persist15commit_snapshots1_0B7_
FNDA:0,_RNCNvNtNtCsiIWUB9x025h_12ettlex_store8snapshot7persist15commit_snapshots_0B7_
FNDA:0,_RNCNvNtNtCsiIWUB9x025h_12ettlex_store8snapshot7persist18query_current_head0B7_
FNDA:0,_RNCNvNtNtCsiIWUB9x025h_12ettlex_store8snapshot7persist18query_current_heads0_0B7_
FNDA:0,_RNCNvNtNtCsiIWUB9x025h_12ettlex_store8snapshot7persist18query_current_heads_0B7_
FNDA:0,_RNCNvNtNtCsiIWUB9x025h_12ettlex_store8snapshot7persist23persist_manifest_to_cas0B7_
FNDA:0,_RNCNvNtNtCsiIWUB9x025h_12ettlex_store8snapshot7persist23persist_manifest_to_cass_0B7_
FNDA:0,_RNCNvNtNtCsiIWUB9x025h_12ettlex_store8snapshot7persist24query_by_semantic_digest0B7_
FNDA:0,_RNCNvNtNtCsiIWUB9x025h_12ettlex_store8snapshot7persist24query_by_semantic_digests0_0B7_
FNDA:0,_RNCNvNtNtCsiIWUB9x025h_12ettlex_store8snapshot7persist24query_by_semantic_digests_0B7_
FNDA:0,_RNCNvNtNtCsiIWUB9x025h_12ettlex_store8snapshot7persist28create_snapshot_ledger_entry0B7_
FNDA:0,_RNCNvNtNtCsiIWUB9x025h_12ettlex_store8snapshot7persist28create_snapshot_ledger_entrys_0B7_
FNDA:0,_RNvNtNtCsiIWUB9x025h_12ettlex_store8snapshot7persist15commit_snapshot
FNDA:0,_RNvNtNtCsiIWUB9x025h_12ettlex_store8snapshot7persist18query_current_head
FNDA:0,_RNvNtNtCsiIWUB9x025h_12ettlex_store8snapshot7persist23persist_manifest_to_cas
FNDA:0,_RNvNtNtCsiIWUB9x025h_12ettlex_store8snapshot7persist24query_by_semantic_digest
FNDA:0,_RNvNtNtCsiIWUB9x025h_12ettlex_store8snapshot7persist28create_snapshot_ledger_entry
FNF:18
FNH:9
DA:58,58
DA:60,58
DA:61,0
DA:62,0
DA:63,0
DA:64,0
DA:67,58
DA:68,1
DA:69,1
DA:70,1
DA:71,1
DA:73,57
DA:75,0
DA:79,57
DA:80,58
DA:101,54
DA:102,54
DA:103,54
DA:104,54
DA:105,54
DA:106,54
DA:108,54
DA:109,54
DA:110,0
DA:111,0
DA:112,0
DA:113,0
DA:114,54
DA:116,54
DA:117,54
DA:118,54
DA:119,54
DA:120,54
DA:121,54
DA:122,54
DA:123,54
DA:124,54
DA:125,54
DA:126,54
DA:127,54
DA:128,54
DA:129,54
DA:130,54
DA:131,54
DA:132,54
DA:133,54
DA:134,54
DA:135,54
DA:136,54
DA:137,54
DA:138,54
DA:139,54
DA:140,54
DA:141,54
DA:142,54
DA:143,54
DA:144,0
DA:145,0
DA:146,0
DA:147,0
DA:149,54
DA:156,54
DA:157,54
DA:163,10
DA:164,10
DA:165,10
DA:166,10
DA:167,10
DA:168,10
DA:169,10
DA:170,10
DA:171,10
DA:172,10
DA:173,10
DA:174,10
DA:175,10
DA:176,10
DA:177,0
DA:178,0
DA:179,0
DA:180,0
DA:182,10
DA:183,10
DA:185,6
DA:186,6
DA:187,6
DA:190,6
DA:191,10
DA:192,10
DA:193,0
DA:194,0
DA:195,0
DA:196,0
DA:198,10
DA:199,10
DA:204,65
DA:205,65
DA:206,65
DA:207,65
DA:208,65
DA:209,65
DA:210,65
DA:211,65
DA:212,65
DA:213,65
DA:214,65
DA:215,65
DA:216,0
DA:217,0
DA:218,0
DA:219,0
DA:221,65
DA:222,65
DA:223,65
DA:224,65
DA:225,0
DA:226,0
DA:227,0
DA:228,0
DA:230,65
DA:231,65
DA:263,66
DA:264,66
DA:265,66
DA:266,66
DA:267,66
DA:268,66
DA:270,66
DA:271,1
DA:272,1
DA:273,1
DA:274,1
DA:275,1
DA:276,1
DA:277,65
DA:279,65
DA:280,0
DA:281,0
DA:282,0
DA:283,0
DA:286,65
DA:287,7
DA:288,5
DA:289,5
DA:291,3
DA:293,4
DA:294,4
DA:295,4
DA:296,4
DA:297,4
DA:298,4
DA:299,4
DA:300,4
DA:301,4
DA:306,58
DA:310,61
DA:311,10
DA:312,6
DA:318,6
DA:319,4
DA:320,51
DA:325,55
DA:328,54
DA:331,54
DA:332,54
DA:335,54
DA:338,54
DA:339,0
DA:340,0
DA:341,0
DA:342,0
DA:344,54
DA:345,54
DA:346,54
DA:347,54
DA:348,54
DA:349,54
DA:350,66
BRF:0
BRH:0
LF:201
LH:146
end_of_record
SF:/Users/nick/Development/EttleX/EttleX-Project/Rust/crates/ettlex-store/src/snapshot/query.rs
FN:95,_RNvNtNtCs3PiHhja6dWM_12ettlex_store8snapshot5query18fetch_snapshot_row
FN:116,_RNvNtNtCs3PiHhja6dWM_12ettlex_store8snapshot5query18list_snapshot_rows
FN:176,_RNvNtNtCs3PiHhja6dWM_12ettlex_store8snapshot5query19fetch_head_snapshot
FN:190,_RNvNtNtCs3PiHhja6dWM_12ettlex_store8snapshot5query19row_to_snapshot_row
FN:156,_RNvNtNtCs3PiHhja6dWM_12ettlex_store8snapshot5query22fetch_snapshot_digests
FN:76,_RNvNtNtCs3PiHhja6dWM_12ettlex_store8snapshot5query30fetch_manifest_bytes_by_digest
FN:44,_RNvNtNtCs3PiHhja6dWM_12ettlex_store8snapshot5query30fetch_snapshot_manifest_digest
FN:105,_RNCNvNtNtCs3PiHhja6dWM_12ettlex_store8snapshot5query18fetch_snapshot_row0B7_
FN:161,_RNCNvNtNtCs3PiHhja6dWM_12ettlex_store8snapshot5query22fetch_snapshot_digests0B7_
FN:165,_RNCNvNtNtCs3PiHhja6dWM_12ettlex_store8snapshot5query22fetch_snapshot_digestss_0B7_
FN:77,_RNCNvNtNtCs3PiHhja6dWM_12ettlex_store8snapshot5query30fetch_manifest_bytes_by_digest0B7_
FN:49,_RNCNvNtNtCs3PiHhja6dWM_12ettlex_store8snapshot5query30fetch_snapshot_manifest_digest0B7_
FN:52,_RNCNvNtNtCs3PiHhja6dWM_12ettlex_store8snapshot5query30fetch_snapshot_manifest_digests_0B7_
FN:95,_RNvNtNtCsiIWUB9x025h_12ettlex_store8snapshot5query18fetch_snapshot_row
FN:116,_RNvNtNtCsiIWUB9x025h_12ettlex_store8snapshot5query18list_snapshot_rows
FN:176,_RNvNtNtCsiIWUB9x025h_12ettlex_store8snapshot5query19fetch_head_snapshot
FN:190,_RNvNtNtCsiIWUB9x025h_12ettlex_store8snapshot5query19row_to_snapshot_row
FN:156,_RNvNtNtCsiIWUB9x025h_12ettlex_store8snapshot5query22fetch_snapshot_digests
FN:215,_RNvNtNtNtCsiIWUB9x025h_12ettlex_store8snapshot5query5tests15insert_snapshot
FN:209,_RNvNtNtNtCsiIWUB9x025h_12ettlex_store8snapshot5query5tests5setup
FN:227,_RNvNtNtNtCsiIWUB9x025h_12ettlex_store8snapshot5query5testss_29test_fetch_snapshot_row_found
FN:280,_RNvNtNtNtCsiIWUB9x025h_12ettlex_store8snapshot5query5testss_30test_fetch_head_snapshot_empty
FN:264,_RNvNtNtNtCsiIWUB9x025h_12ettlex_store8snapshot5query5testss_33test_fetch_snapshot_digests_found
FN:238,_RNvNtNtNtCsiIWUB9x025h_12ettlex_store8snapshot5query5testss_33test_fetch_snapshot_row_not_found
FN:245,_RNvNtNtNtCsiIWUB9x025h_12ettlex_store8snapshot5query5testss_33test_list_snapshot_rows_no_filter
FN:273,_RNvNtNtNtCsiIWUB9x025h_12ettlex_store8snapshot5query5testss_37test_fetch_snapshot_digests_not_found
FN:287,_RNvNtNtNtCsiIWUB9x025h_12ettlex_store8snapshot5query5testss_39test_fetch_head_snapshot_returns_latest
FN:254,_RNvNtNtNtCsiIWUB9x025h_12ettlex_store8snapshot5query5testss_41test_list_snapshot_rows_with_ettle_filter
FN:77,_RNCNvNtNtCsiIWUB9x025h_12ettlex_store8snapshot5query30fetch_manifest_bytes_by_digest0B7_
FN:49,_RNCNvNtNtCsiIWUB9x025h_12ettlex_store8snapshot5query30fetch_snapshot_manifest_digest0B7_
FN:52,_RNCNvNtNtCsiIWUB9x025h_12ettlex_store8snapshot5query30fetch_snapshot_manifest_digests_0B7_
FN:76,_RNvNtNtCsiIWUB9x025h_12ettlex_store8snapshot5query30fetch_manifest_bytes_by_digest
FN:44,_RNvNtNtCsiIWUB9x025h_12ettlex_store8snapshot5query30fetch_snapshot_manifest_digest
FN:105,_RNCNvNtNtCsiIWUB9x025h_12ettlex_store8snapshot5query18fetch_snapshot_row0B7_
FN:161,_RNCNvNtNtCsiIWUB9x025h_12ettlex_store8snapshot5query22fetch_snapshot_digests0B7_
FN:165,_RNCNvNtNtCsiIWUB9x025h_12ettlex_store8snapshot5query22fetch_snapshot_digestss_0B7_
FNDA:2,_RNvNtNtCs3PiHhja6dWM_12ettlex_store8snapshot5query18fetch_snapshot_row
FNDA:2,_RNvNtNtCs3PiHhja6dWM_12ettlex_store8snapshot5query18list_snapshot_rows
FNDA:0,_RNvNtNtCs3PiHhja6dWM_12ettlex_store8snapshot5query19fetch_head_snapshot
FNDA:3,_RNvNtNtCs3PiHhja6dWM_12ettlex_store8snapshot5query19row_to_snapshot_row
FNDA:0,_RNvNtNtCs3PiHhja6dWM_12ettlex_store8snapshot5query22fetch_snapshot_digests
FNDA:16,_RNvNtNtCs3PiHhja6dWM_12ettlex_store8snapshot5query30fetch_manifest_bytes_by_digest
FNDA:11,_RNvNtNtCs3PiHhja6dWM_12ettlex_store8snapshot5query30fetch_snapshot_manifest_digest
FNDA:0,_RNCNvNtNtCs3PiHhja6dWM_12ettlex_store8snapshot5query18fetch_snapshot_row0B7_
FNDA:0,_RNCNvNtNtCs3PiHhja6dWM_12ettlex_store8snapshot5query22fetch_snapshot_digests0B7_
FNDA:0,_RNCNvNtNtCs3PiHhja6dWM_12ettlex_store8snapshot5query22fetch_snapshot_digestss_0B7_
FNDA:3,_RNCNvNtNtCs3PiHhja6dWM_12ettlex_store8snapshot5query30fetch_manifest_bytes_by_digest0B7_
FNDA:9,_RNCNvNtNtCs3PiHhja6dWM_12ettlex_store8snapshot5query30fetch_snapshot_manifest_digest0B7_
FNDA:0,_RNCNvNtNtCs3PiHhja6dWM_12ettlex_store8snapshot5query30fetch_snapshot_manifest_digests_0B7_
FNDA:2,_RNvNtNtCsiIWUB9x025h_12ettlex_store8snapshot5query18fetch_snapshot_row
FNDA:2,_RNvNtNtCsiIWUB9x025h_12ettlex_store8snapshot5query18list_snapshot_rows
FNDA:2,_RNvNtNtCsiIWUB9x025h_12ettlex_store8snapshot5query19fetch_head_snapshot
FNDA:5,_RNvNtNtCsiIWUB9x025h_12ettlex_store8snapshot5query19row_to_snapshot_row
FNDA:2,_RNvNtNtCsiIWUB9x025h_12ettlex_store8snapshot5query22fetch_snapshot_digests
FNDA:6,_RNvNtNtNtCsiIWUB9x025h_12ettlex_store8snapshot5query5tests15insert_snapshot
FNDA:8,_RNvNtNtNtCsiIWUB9x025h_12ettlex_store8snapshot5query5tests5setup
FNDA:1,_RNvNtNtNtCsiIWUB9x025h_12ettlex_store8snapshot5query5testss_29test_fetch_snapshot_row_found
FNDA:1,_RNvNtNtNtCsiIWUB9x025h_12ettlex_store8snapshot5query5testss_30test_fetch_head_snapshot_empty
FNDA:1,_RNvNtNtNtCsiIWUB9x025h_12ettlex_store8snapshot5query5testss_33test_fetch_snapshot_digests_found
FNDA:1,_RNvNtNtNtCsiIWUB9x025h_12ettlex_store8snapshot5query5testss_33test_fetch_snapshot_row_not_found
FNDA:1,_RNvNtNtNtCsiIWUB9x025h_12ettlex_store8snapshot5query5testss_33test_list_snapshot_rows_no_filter
FNDA:1,_RNvNtNtNtCsiIWUB9x025h_12ettlex_store8snapshot5query5testss_37test_fetch_snapshot_digests_not_found
FNDA:1,_RNvNtNtNtCsiIWUB9x025h_12ettlex_store8snapshot5query5testss_39test_fetch_head_snapshot_returns_latest
FNDA:1,_RNvNtNtNtCsiIWUB9x025h_12ettlex_store8snapshot5query5testss_41test_list_snapshot_rows_with_ettle_filter
FNDA:0,_RNCNvNtNtCsiIWUB9x025h_12ettlex_store8snapshot5query30fetch_manifest_bytes_by_digest0B7_
FNDA:0,_RNCNvNtNtCsiIWUB9x025h_12ettlex_store8snapshot5query30fetch_snapshot_manifest_digest0B7_
FNDA:0,_RNCNvNtNtCsiIWUB9x025h_12ettlex_store8snapshot5query30fetch_snapshot_manifest_digests_0B7_
FNDA:0,_RNvNtNtCsiIWUB9x025h_12ettlex_store8snapshot5query30fetch_manifest_bytes_by_digest
FNDA:0,_RNvNtNtCsiIWUB9x025h_12ettlex_store8snapshot5query30fetch_snapshot_manifest_digest
FNDA:1,_RNCNvNtNtCsiIWUB9x025h_12ettlex_store8snapshot5query18fetch_snapshot_row0B7_
FNDA:1,_RNCNvNtNtCsiIWUB9x025h_12ettlex_store8snapshot5query22fetch_snapshot_digests0B7_
FNDA:1,_RNCNvNtNtCsiIWUB9x025h_12ettlex_store8snapshot5query22fetch_snapshot_digestss_0B7_
FNF:23
FNH:22
DA:44,11
DA:45,11
DA:46,11
DA:47,11
DA:48,11
DA:49,9
DA:51,11
DA:52,11
DA:53,0
DA:54,0
DA:55,0
DA:56,0
DA:58,11
DA:59,9
DA:60,2
DA:61,2
DA:62,2
DA:63,2
DA:65,11
DA:76,16
DA:77,16
DA:78,3
DA:79,3
DA:80,3
DA:81,3
DA:82,3
DA:84,0
DA:86,3
DA:87,16
DA:95,4
DA:96,4
DA:97,4
DA:98,4
DA:99,4
DA:100,4
DA:103,4
DA:104,4
DA:105,4
DA:106,1
DA:107,1
DA:108,1
DA:109,1
DA:110,1
DA:111,4
DA:116,4
DA:117,4
DA:119,3
DA:120,3
DA:121,3
DA:122,3
DA:123,3
DA:124,3
DA:125,3
DA:127,3
DA:128,3
DA:129,3
DA:130,3
DA:131,3
DA:132,3
DA:134,1
DA:135,1
DA:136,1
DA:137,1
DA:138,1
DA:139,1
DA:140,1
DA:141,1
DA:142,1
DA:144,1
DA:145,1
DA:146,1
DA:147,1
DA:148,1
DA:149,1
DA:152,4
DA:153,4
DA:156,2
DA:157,2
DA:158,2
DA:159,2
DA:160,2
DA:161,1
DA:163,2
DA:164,2
DA:165,2
DA:166,1
DA:167,1
DA:168,1
DA:169,1
DA:170,1
DA:171,2
DA:176,2
DA:177,2
DA:178,2
DA:179,2
DA:180,2
DA:181,2
DA:182,2
DA:183,2
DA:186,2
DA:187,2
DA:188,2
DA:190,8
DA:192,8
DA:193,8
DA:194,8
DA:195,8
DA:196,8
